
projectfinal.elf:     file format elf32-littlearm

Sections:
Idx Name          Size      VMA       LMA       File off  Algn
  0 .isr_vector   00000188  08000000  08000000  00001000  2**0
                  CONTENTS, ALLOC, LOAD, READONLY, DATA
  1 .text         00003b6c  08000188  08000188  00001188  2**2
                  CONTENTS, ALLOC, LOAD, READONLY, CODE
  2 .rodata       00000048  08003cf4  08003cf4  00004cf4  2**2
                  CONTENTS, ALLOC, LOAD, READONLY, DATA
  3 .ARM.extab    00000000  08003d3c  08003d3c  00005034  2**0
                  CONTENTS, READONLY
  4 .ARM          00000008  08003d3c  08003d3c  00004d3c  2**2
                  CONTENTS, ALLOC, LOAD, READONLY, DATA
  5 .preinit_array 00000000  08003d44  08003d44  00005034  2**0
                  CONTENTS, ALLOC, LOAD, DATA
  6 .init_array   00000004  08003d44  08003d44  00004d44  2**2
                  CONTENTS, ALLOC, LOAD, READONLY, DATA
  7 .fini_array   00000004  08003d48  08003d48  00004d48  2**2
                  CONTENTS, ALLOC, LOAD, READONLY, DATA
  8 .data         00000034  20000000  08003d4c  00005000  2**2
                  CONTENTS, ALLOC, LOAD, DATA
  9 .bss          0000011c  20000034  08003d80  00005034  2**2
                  ALLOC
 10 ._user_heap_stack 00000600  20000150  08003d80  00005150  2**0
                  ALLOC
 11 .ARM.attributes 00000030  00000000  00000000  00005034  2**0
                  CONTENTS, READONLY
 12 .debug_info   0000d07e  00000000  00000000  00005064  2**0
                  CONTENTS, READONLY, DEBUGGING, OCTETS
 13 .debug_abbrev 00001f36  00000000  00000000  000120e2  2**0
                  CONTENTS, READONLY, DEBUGGING, OCTETS
 14 .debug_aranges 00000b58  00000000  00000000  00014018  2**3
                  CONTENTS, READONLY, DEBUGGING, OCTETS
 15 .debug_rnglists 000008af  00000000  00000000  00014b70  2**0
                  CONTENTS, READONLY, DEBUGGING, OCTETS
 16 .debug_macro  000267c1  00000000  00000000  0001541f  2**0
                  CONTENTS, READONLY, DEBUGGING, OCTETS
 17 .debug_line   0000e277  00000000  00000000  0003bbe0  2**0
                  CONTENTS, READONLY, DEBUGGING, OCTETS
 18 .debug_str    000eb74e  00000000  00000000  00049e57  2**0
                  CONTENTS, READONLY, DEBUGGING, OCTETS
 19 .comment      00000043  00000000  00000000  001355a5  2**0
                  CONTENTS, READONLY
 20 .debug_frame  00002d40  00000000  00000000  001355e8  2**2
                  CONTENTS, READONLY, DEBUGGING, OCTETS
 21 .debug_line_str 00000067  00000000  00000000  00138328  2**0
                  CONTENTS, READONLY, DEBUGGING, OCTETS

Disassembly of section .text:

08000188 <__do_global_dtors_aux>:
 8000188:	b510      	push	{r4, lr}
 800018a:	4c05      	ldr	r4, [pc, #20]	@ (80001a0 <__do_global_dtors_aux+0x18>)
 800018c:	7823      	ldrb	r3, [r4, #0]
 800018e:	b933      	cbnz	r3, 800019e <__do_global_dtors_aux+0x16>
 8000190:	4b04      	ldr	r3, [pc, #16]	@ (80001a4 <__do_global_dtors_aux+0x1c>)
 8000192:	b113      	cbz	r3, 800019a <__do_global_dtors_aux+0x12>
 8000194:	4804      	ldr	r0, [pc, #16]	@ (80001a8 <__do_global_dtors_aux+0x20>)
 8000196:	f3af 8000 	nop.w
 800019a:	2301      	movs	r3, #1
 800019c:	7023      	strb	r3, [r4, #0]
 800019e:	bd10      	pop	{r4, pc}
 80001a0:	20000034 	.word	0x20000034
 80001a4:	00000000 	.word	0x00000000
 80001a8:	08003cdc 	.word	0x08003cdc

080001ac <frame_dummy>:
 80001ac:	b508      	push	{r3, lr}
 80001ae:	4b03      	ldr	r3, [pc, #12]	@ (80001bc <frame_dummy+0x10>)
 80001b0:	b11b      	cbz	r3, 80001ba <frame_dummy+0xe>
 80001b2:	4903      	ldr	r1, [pc, #12]	@ (80001c0 <frame_dummy+0x14>)
 80001b4:	4803      	ldr	r0, [pc, #12]	@ (80001c4 <frame_dummy+0x18>)
 80001b6:	f3af 8000 	nop.w
 80001ba:	bd08      	pop	{r3, pc}
 80001bc:	00000000 	.word	0x00000000
 80001c0:	20000038 	.word	0x20000038
 80001c4:	08003cdc 	.word	0x08003cdc

080001c8 <__aeabi_uldivmod>:
 80001c8:	b953      	cbnz	r3, 80001e0 <__aeabi_uldivmod+0x18>
 80001ca:	b94a      	cbnz	r2, 80001e0 <__aeabi_uldivmod+0x18>
 80001cc:	2900      	cmp	r1, #0
 80001ce:	bf08      	it	eq
 80001d0:	2800      	cmpeq	r0, #0
 80001d2:	bf1c      	itt	ne
 80001d4:	f04f 31ff 	movne.w	r1, #4294967295
 80001d8:	f04f 30ff 	movne.w	r0, #4294967295
 80001dc:	f000 b988 	b.w	80004f0 <__aeabi_idiv0>
 80001e0:	f1ad 0c08 	sub.w	ip, sp, #8
 80001e4:	e96d ce04 	strd	ip, lr, [sp, #-16]!
 80001e8:	f000 f806 	bl	80001f8 <__udivmoddi4>
 80001ec:	f8dd e004 	ldr.w	lr, [sp, #4]
 80001f0:	e9dd 2302 	ldrd	r2, r3, [sp, #8]
 80001f4:	b004      	add	sp, #16
 80001f6:	4770      	bx	lr

080001f8 <__udivmoddi4>:
 80001f8:	e92d 47f0 	stmdb	sp!, {r4, r5, r6, r7, r8, r9, sl, lr}
 80001fc:	9d08      	ldr	r5, [sp, #32]
 80001fe:	468e      	mov	lr, r1
 8000200:	4604      	mov	r4, r0
 8000202:	4688      	mov	r8, r1
 8000204:	2b00      	cmp	r3, #0
 8000206:	d14a      	bne.n	800029e <__udivmoddi4+0xa6>
 8000208:	428a      	cmp	r2, r1
 800020a:	4617      	mov	r7, r2
 800020c:	d962      	bls.n	80002d4 <__udivmoddi4+0xdc>
 800020e:	fab2 f682 	clz	r6, r2
 8000212:	b14e      	cbz	r6, 8000228 <__udivmoddi4+0x30>
 8000214:	f1c6 0320 	rsb	r3, r6, #32
 8000218:	fa01 f806 	lsl.w	r8, r1, r6
 800021c:	fa20 f303 	lsr.w	r3, r0, r3
 8000220:	40b7      	lsls	r7, r6
 8000222:	ea43 0808 	orr.w	r8, r3, r8
 8000226:	40b4      	lsls	r4, r6
 8000228:	ea4f 4e17 	mov.w	lr, r7, lsr #16
 800022c:	fa1f fc87 	uxth.w	ip, r7
 8000230:	fbb8 f1fe 	udiv	r1, r8, lr
 8000234:	0c23      	lsrs	r3, r4, #16
 8000236:	fb0e 8811 	mls	r8, lr, r1, r8
 800023a:	ea43 4308 	orr.w	r3, r3, r8, lsl #16
 800023e:	fb01 f20c 	mul.w	r2, r1, ip
 8000242:	429a      	cmp	r2, r3
 8000244:	d909      	bls.n	800025a <__udivmoddi4+0x62>
 8000246:	18fb      	adds	r3, r7, r3
 8000248:	f101 30ff 	add.w	r0, r1, #4294967295
 800024c:	f080 80ea 	bcs.w	8000424 <__udivmoddi4+0x22c>
 8000250:	429a      	cmp	r2, r3
 8000252:	f240 80e7 	bls.w	8000424 <__udivmoddi4+0x22c>
 8000256:	3902      	subs	r1, #2
 8000258:	443b      	add	r3, r7
 800025a:	1a9a      	subs	r2, r3, r2
 800025c:	b2a3      	uxth	r3, r4
 800025e:	fbb2 f0fe 	udiv	r0, r2, lr
 8000262:	fb0e 2210 	mls	r2, lr, r0, r2
 8000266:	ea43 4302 	orr.w	r3, r3, r2, lsl #16
 800026a:	fb00 fc0c 	mul.w	ip, r0, ip
 800026e:	459c      	cmp	ip, r3
 8000270:	d909      	bls.n	8000286 <__udivmoddi4+0x8e>
 8000272:	18fb      	adds	r3, r7, r3
 8000274:	f100 32ff 	add.w	r2, r0, #4294967295
 8000278:	f080 80d6 	bcs.w	8000428 <__udivmoddi4+0x230>
 800027c:	459c      	cmp	ip, r3
 800027e:	f240 80d3 	bls.w	8000428 <__udivmoddi4+0x230>
 8000282:	443b      	add	r3, r7
 8000284:	3802      	subs	r0, #2
 8000286:	ea40 4001 	orr.w	r0, r0, r1, lsl #16
 800028a:	eba3 030c 	sub.w	r3, r3, ip
 800028e:	2100      	movs	r1, #0
 8000290:	b11d      	cbz	r5, 800029a <__udivmoddi4+0xa2>
 8000292:	40f3      	lsrs	r3, r6
 8000294:	2200      	movs	r2, #0
 8000296:	e9c5 3200 	strd	r3, r2, [r5]
 800029a:	e8bd 87f0 	ldmia.w	sp!, {r4, r5, r6, r7, r8, r9, sl, pc}
 800029e:	428b      	cmp	r3, r1
 80002a0:	d905      	bls.n	80002ae <__udivmoddi4+0xb6>
 80002a2:	b10d      	cbz	r5, 80002a8 <__udivmoddi4+0xb0>
 80002a4:	e9c5 0100 	strd	r0, r1, [r5]
 80002a8:	2100      	movs	r1, #0
 80002aa:	4608      	mov	r0, r1
 80002ac:	e7f5      	b.n	800029a <__udivmoddi4+0xa2>
 80002ae:	fab3 f183 	clz	r1, r3
 80002b2:	2900      	cmp	r1, #0
 80002b4:	d146      	bne.n	8000344 <__udivmoddi4+0x14c>
 80002b6:	4573      	cmp	r3, lr
 80002b8:	d302      	bcc.n	80002c0 <__udivmoddi4+0xc8>
 80002ba:	4282      	cmp	r2, r0
 80002bc:	f200 8105 	bhi.w	80004ca <__udivmoddi4+0x2d2>
 80002c0:	1a84      	subs	r4, r0, r2
 80002c2:	eb6e 0203 	sbc.w	r2, lr, r3
 80002c6:	2001      	movs	r0, #1
 80002c8:	4690      	mov	r8, r2
 80002ca:	2d00      	cmp	r5, #0
 80002cc:	d0e5      	beq.n	800029a <__udivmoddi4+0xa2>
 80002ce:	e9c5 4800 	strd	r4, r8, [r5]
 80002d2:	e7e2      	b.n	800029a <__udivmoddi4+0xa2>
 80002d4:	2a00      	cmp	r2, #0
 80002d6:	f000 8090 	beq.w	80003fa <__udivmoddi4+0x202>
 80002da:	fab2 f682 	clz	r6, r2
 80002de:	2e00      	cmp	r6, #0
 80002e0:	f040 80a4 	bne.w	800042c <__udivmoddi4+0x234>
 80002e4:	1a8a      	subs	r2, r1, r2
 80002e6:	0c03      	lsrs	r3, r0, #16
 80002e8:	ea4f 4e17 	mov.w	lr, r7, lsr #16
 80002ec:	b280      	uxth	r0, r0
 80002ee:	b2bc      	uxth	r4, r7
 80002f0:	2101      	movs	r1, #1
 80002f2:	fbb2 fcfe 	udiv	ip, r2, lr
 80002f6:	fb0e 221c 	mls	r2, lr, ip, r2
 80002fa:	ea43 4302 	orr.w	r3, r3, r2, lsl #16
 80002fe:	fb04 f20c 	mul.w	r2, r4, ip
 8000302:	429a      	cmp	r2, r3
 8000304:	d907      	bls.n	8000316 <__udivmoddi4+0x11e>
 8000306:	18fb      	adds	r3, r7, r3
 8000308:	f10c 38ff 	add.w	r8, ip, #4294967295
 800030c:	d202      	bcs.n	8000314 <__udivmoddi4+0x11c>
 800030e:	429a      	cmp	r2, r3
 8000310:	f200 80e0 	bhi.w	80004d4 <__udivmoddi4+0x2dc>
 8000314:	46c4      	mov	ip, r8
 8000316:	1a9b      	subs	r3, r3, r2
 8000318:	fbb3 f2fe 	udiv	r2, r3, lr
 800031c:	fb0e 3312 	mls	r3, lr, r2, r3
 8000320:	ea40 4303 	orr.w	r3, r0, r3, lsl #16
 8000324:	fb02 f404 	mul.w	r4, r2, r4
 8000328:	429c      	cmp	r4, r3
 800032a:	d907      	bls.n	800033c <__udivmoddi4+0x144>
 800032c:	18fb      	adds	r3, r7, r3
 800032e:	f102 30ff 	add.w	r0, r2, #4294967295
 8000332:	d202      	bcs.n	800033a <__udivmoddi4+0x142>
 8000334:	429c      	cmp	r4, r3
 8000336:	f200 80ca 	bhi.w	80004ce <__udivmoddi4+0x2d6>
 800033a:	4602      	mov	r2, r0
 800033c:	1b1b      	subs	r3, r3, r4
 800033e:	ea42 400c 	orr.w	r0, r2, ip, lsl #16
 8000342:	e7a5      	b.n	8000290 <__udivmoddi4+0x98>
 8000344:	f1c1 0620 	rsb	r6, r1, #32
 8000348:	408b      	lsls	r3, r1
 800034a:	fa22 f706 	lsr.w	r7, r2, r6
 800034e:	431f      	orrs	r7, r3
 8000350:	fa0e f401 	lsl.w	r4, lr, r1
 8000354:	fa20 f306 	lsr.w	r3, r0, r6
 8000358:	fa2e fe06 	lsr.w	lr, lr, r6
 800035c:	ea4f 4917 	mov.w	r9, r7, lsr #16
 8000360:	4323      	orrs	r3, r4
 8000362:	fa00 f801 	lsl.w	r8, r0, r1
 8000366:	fa1f fc87 	uxth.w	ip, r7
 800036a:	fbbe f0f9 	udiv	r0, lr, r9
 800036e:	0c1c      	lsrs	r4, r3, #16
 8000370:	fb09 ee10 	mls	lr, r9, r0, lr
 8000374:	ea44 440e 	orr.w	r4, r4, lr, lsl #16
 8000378:	fb00 fe0c 	mul.w	lr, r0, ip
 800037c:	45a6      	cmp	lr, r4
 800037e:	fa02 f201 	lsl.w	r2, r2, r1
 8000382:	d909      	bls.n	8000398 <__udivmoddi4+0x1a0>
 8000384:	193c      	adds	r4, r7, r4
 8000386:	f100 3aff 	add.w	sl, r0, #4294967295
 800038a:	f080 809c 	bcs.w	80004c6 <__udivmoddi4+0x2ce>
 800038e:	45a6      	cmp	lr, r4
 8000390:	f240 8099 	bls.w	80004c6 <__udivmoddi4+0x2ce>
 8000394:	3802      	subs	r0, #2
 8000396:	443c      	add	r4, r7
 8000398:	eba4 040e 	sub.w	r4, r4, lr
 800039c:	fa1f fe83 	uxth.w	lr, r3
 80003a0:	fbb4 f3f9 	udiv	r3, r4, r9
 80003a4:	fb09 4413 	mls	r4, r9, r3, r4
 80003a8:	ea4e 4404 	orr.w	r4, lr, r4, lsl #16
 80003ac:	fb03 fc0c 	mul.w	ip, r3, ip
 80003b0:	45a4      	cmp	ip, r4
 80003b2:	d908      	bls.n	80003c6 <__udivmoddi4+0x1ce>
 80003b4:	193c      	adds	r4, r7, r4
 80003b6:	f103 3eff 	add.w	lr, r3, #4294967295
 80003ba:	f080 8082 	bcs.w	80004c2 <__udivmoddi4+0x2ca>
 80003be:	45a4      	cmp	ip, r4
 80003c0:	d97f      	bls.n	80004c2 <__udivmoddi4+0x2ca>
 80003c2:	3b02      	subs	r3, #2
 80003c4:	443c      	add	r4, r7
 80003c6:	ea43 4000 	orr.w	r0, r3, r0, lsl #16
 80003ca:	eba4 040c 	sub.w	r4, r4, ip
 80003ce:	fba0 ec02 	umull	lr, ip, r0, r2
 80003d2:	4564      	cmp	r4, ip
 80003d4:	4673      	mov	r3, lr
 80003d6:	46e1      	mov	r9, ip
 80003d8:	d362      	bcc.n	80004a0 <__udivmoddi4+0x2a8>
 80003da:	d05f      	beq.n	800049c <__udivmoddi4+0x2a4>
 80003dc:	b15d      	cbz	r5, 80003f6 <__udivmoddi4+0x1fe>
 80003de:	ebb8 0203 	subs.w	r2, r8, r3
 80003e2:	eb64 0409 	sbc.w	r4, r4, r9
 80003e6:	fa04 f606 	lsl.w	r6, r4, r6
 80003ea:	fa22 f301 	lsr.w	r3, r2, r1
 80003ee:	431e      	orrs	r6, r3
 80003f0:	40cc      	lsrs	r4, r1
 80003f2:	e9c5 6400 	strd	r6, r4, [r5]
 80003f6:	2100      	movs	r1, #0
 80003f8:	e74f      	b.n	800029a <__udivmoddi4+0xa2>
 80003fa:	fbb1 fcf2 	udiv	ip, r1, r2
 80003fe:	0c01      	lsrs	r1, r0, #16
 8000400:	ea41 410e 	orr.w	r1, r1, lr, lsl #16
 8000404:	b280      	uxth	r0, r0
 8000406:	ea40 4201 	orr.w	r2, r0, r1, lsl #16
 800040a:	463b      	mov	r3, r7
 800040c:	4638      	mov	r0, r7
 800040e:	463c      	mov	r4, r7
 8000410:	46b8      	mov	r8, r7
 8000412:	46be      	mov	lr, r7
 8000414:	2620      	movs	r6, #32
 8000416:	fbb1 f1f7 	udiv	r1, r1, r7
 800041a:	eba2 0208 	sub.w	r2, r2, r8
 800041e:	ea41 410c 	orr.w	r1, r1, ip, lsl #16
 8000422:	e766      	b.n	80002f2 <__udivmoddi4+0xfa>
 8000424:	4601      	mov	r1, r0
 8000426:	e718      	b.n	800025a <__udivmoddi4+0x62>
 8000428:	4610      	mov	r0, r2
 800042a:	e72c      	b.n	8000286 <__udivmoddi4+0x8e>
 800042c:	f1c6 0220 	rsb	r2, r6, #32
 8000430:	fa2e f302 	lsr.w	r3, lr, r2
 8000434:	40b7      	lsls	r7, r6
 8000436:	40b1      	lsls	r1, r6
 8000438:	fa20 f202 	lsr.w	r2, r0, r2
 800043c:	ea4f 4e17 	mov.w	lr, r7, lsr #16
 8000440:	430a      	orrs	r2, r1
 8000442:	fbb3 f8fe 	udiv	r8, r3, lr
 8000446:	b2bc      	uxth	r4, r7
 8000448:	fb0e 3318 	mls	r3, lr, r8, r3
 800044c:	0c11      	lsrs	r1, r2, #16
 800044e:	ea41 4103 	orr.w	r1, r1, r3, lsl #16
 8000452:	fb08 f904 	mul.w	r9, r8, r4
 8000456:	40b0      	lsls	r0, r6
 8000458:	4589      	cmp	r9, r1
 800045a:	ea4f 4310 	mov.w	r3, r0, lsr #16
 800045e:	b280      	uxth	r0, r0
 8000460:	d93e      	bls.n	80004e0 <__udivmoddi4+0x2e8>
 8000462:	1879      	adds	r1, r7, r1
 8000464:	f108 3cff 	add.w	ip, r8, #4294967295
 8000468:	d201      	bcs.n	800046e <__udivmoddi4+0x276>
 800046a:	4589      	cmp	r9, r1
 800046c:	d81f      	bhi.n	80004ae <__udivmoddi4+0x2b6>
 800046e:	eba1 0109 	sub.w	r1, r1, r9
 8000472:	fbb1 f9fe 	udiv	r9, r1, lr
 8000476:	fb09 f804 	mul.w	r8, r9, r4
 800047a:	fb0e 1119 	mls	r1, lr, r9, r1
 800047e:	b292      	uxth	r2, r2
 8000480:	ea42 4201 	orr.w	r2, r2, r1, lsl #16
 8000484:	4542      	cmp	r2, r8
 8000486:	d229      	bcs.n	80004dc <__udivmoddi4+0x2e4>
 8000488:	18ba      	adds	r2, r7, r2
 800048a:	f109 31ff 	add.w	r1, r9, #4294967295
 800048e:	d2c4      	bcs.n	800041a <__udivmoddi4+0x222>
 8000490:	4542      	cmp	r2, r8
 8000492:	d2c2      	bcs.n	800041a <__udivmoddi4+0x222>
 8000494:	f1a9 0102 	sub.w	r1, r9, #2
 8000498:	443a      	add	r2, r7
 800049a:	e7be      	b.n	800041a <__udivmoddi4+0x222>
 800049c:	45f0      	cmp	r8, lr
 800049e:	d29d      	bcs.n	80003dc <__udivmoddi4+0x1e4>
 80004a0:	ebbe 0302 	subs.w	r3, lr, r2
 80004a4:	eb6c 0c07 	sbc.w	ip, ip, r7
 80004a8:	3801      	subs	r0, #1
 80004aa:	46e1      	mov	r9, ip
 80004ac:	e796      	b.n	80003dc <__udivmoddi4+0x1e4>
 80004ae:	eba7 0909 	sub.w	r9, r7, r9
 80004b2:	4449      	add	r1, r9
 80004b4:	f1a8 0c02 	sub.w	ip, r8, #2
 80004b8:	fbb1 f9fe 	udiv	r9, r1, lr
 80004bc:	fb09 f804 	mul.w	r8, r9, r4
 80004c0:	e7db      	b.n	800047a <__udivmoddi4+0x282>
 80004c2:	4673      	mov	r3, lr
 80004c4:	e77f      	b.n	80003c6 <__udivmoddi4+0x1ce>
 80004c6:	4650      	mov	r0, sl
 80004c8:	e766      	b.n	8000398 <__udivmoddi4+0x1a0>
 80004ca:	4608      	mov	r0, r1
 80004cc:	e6fd      	b.n	80002ca <__udivmoddi4+0xd2>
 80004ce:	443b      	add	r3, r7
 80004d0:	3a02      	subs	r2, #2
 80004d2:	e733      	b.n	800033c <__udivmoddi4+0x144>
 80004d4:	f1ac 0c02 	sub.w	ip, ip, #2
 80004d8:	443b      	add	r3, r7
 80004da:	e71c      	b.n	8000316 <__udivmoddi4+0x11e>
 80004dc:	4649      	mov	r1, r9
 80004de:	e79c      	b.n	800041a <__udivmoddi4+0x222>
 80004e0:	eba1 0109 	sub.w	r1, r1, r9
 80004e4:	46c4      	mov	ip, r8
 80004e6:	fbb1 f9fe 	udiv	r9, r1, lr
 80004ea:	fb09 f804 	mul.w	r8, r9, r4
 80004ee:	e7c4      	b.n	800047a <__udivmoddi4+0x282>

080004f0 <__aeabi_idiv0>:
 80004f0:	4770      	bx	lr
 80004f2:	bf00      	nop

080004f4 <HAL_GPIO_EXTI_Callback>:
volatile uint32_t PL1_Last_Interrupt = 0;
volatile uint32_t PL2_Last_Interrupt = 0;
#define DEBOUNCE_TIME 100 // in ms

void HAL_GPIO_EXTI_Callback(uint16_t GPIO_Pin)
{
 80004f4:	b580      	push	{r7, lr}
 80004f6:	b084      	sub	sp, #16
 80004f8:	af00      	add	r7, sp, #0
 80004fa:	4603      	mov	r3, r0
 80004fc:	80fb      	strh	r3, [r7, #6]

	if(GPIO_Pin == PL1_Switch_Pin) {
 80004fe:	88fb      	ldrh	r3, [r7, #6]
 8000500:	f5b3 4f00 	cmp.w	r3, #32768	@ 0x8000
 8000504:	d10e      	bne.n	8000524 <HAL_GPIO_EXTI_Callback+0x30>

		uint32_t current_time = HAL_GetTick();
 8000506:	f000 fcc9 	bl	8000e9c <HAL_GetTick>
 800050a:	60f8      	str	r0, [r7, #12]
		if ((current_time - PL1_Last_Interrupt) > DEBOUNCE_TIME){
 800050c:	4b36      	ldr	r3, [pc, #216]	@ (80005e8 <HAL_GPIO_EXTI_Callback+0xf4>)
 800050e:	681b      	ldr	r3, [r3, #0]
 8000510:	68fa      	ldr	r2, [r7, #12]
 8000512:	1ad3      	subs	r3, r2, r3
 8000514:	2b64      	cmp	r3, #100	@ 0x64
 8000516:	d905      	bls.n	8000524 <HAL_GPIO_EXTI_Callback+0x30>
				PL1_switch_var = 1;
 8000518:	4b34      	ldr	r3, [pc, #208]	@ (80005ec <HAL_GPIO_EXTI_Callback+0xf8>)
 800051a:	2201      	movs	r2, #1
 800051c:	701a      	strb	r2, [r3, #0]
				PL1_Last_Interrupt = current_time;
 800051e:	4a32      	ldr	r2, [pc, #200]	@ (80005e8 <HAL_GPIO_EXTI_Callback+0xf4>)
 8000520:	68fb      	ldr	r3, [r7, #12]
 8000522:	6013      	str	r3, [r2, #0]
			}

	}
	if(GPIO_Pin == PL2_Switch_Pin) {
 8000524:	88fb      	ldrh	r3, [r7, #6]
 8000526:	2b80      	cmp	r3, #128	@ 0x80
 8000528:	d10e      	bne.n	8000548 <HAL_GPIO_EXTI_Callback+0x54>

		uint32_t current_time = HAL_GetTick();
 800052a:	f000 fcb7 	bl	8000e9c <HAL_GetTick>
 800052e:	60b8      	str	r0, [r7, #8]
		if ((current_time - PL2_Last_Interrupt) > DEBOUNCE_TIME){
 8000530:	4b2f      	ldr	r3, [pc, #188]	@ (80005f0 <HAL_GPIO_EXTI_Callback+0xfc>)
 8000532:	681b      	ldr	r3, [r3, #0]
 8000534:	68ba      	ldr	r2, [r7, #8]
 8000536:	1ad3      	subs	r3, r2, r3
 8000538:	2b64      	cmp	r3, #100	@ 0x64
 800053a:	d905      	bls.n	8000548 <HAL_GPIO_EXTI_Callback+0x54>
				PL2_switch_var = 1;
 800053c:	4b2d      	ldr	r3, [pc, #180]	@ (80005f4 <HAL_GPIO_EXTI_Callback+0x100>)
 800053e:	2201      	movs	r2, #1
 8000540:	701a      	strb	r2, [r3, #0]
				PL2_Last_Interrupt = current_time;
 8000542:	4a2b      	ldr	r2, [pc, #172]	@ (80005f0 <HAL_GPIO_EXTI_Callback+0xfc>)
 8000544:	68bb      	ldr	r3, [r7, #8]
 8000546:	6013      	str	r3, [r2, #0]
			}
	}
	if(GPIO_Pin == TL1_Car_Pin) {
 8000548:	88fb      	ldrh	r3, [r7, #6]
 800054a:	2b10      	cmp	r3, #16
 800054c:	d10d      	bne.n	800056a <HAL_GPIO_EXTI_Callback+0x76>
		if (HAL_GPIO_ReadPin(TL1_Car_GPIO_Port, TL1_Car_Pin) == 0) TL1_Car_var = 1;
 800054e:	2110      	movs	r1, #16
 8000550:	4829      	ldr	r0, [pc, #164]	@ (80005f8 <HAL_GPIO_EXTI_Callback+0x104>)
 8000552:	f000 ff8f 	bl	8001474 <HAL_GPIO_ReadPin>
 8000556:	4603      	mov	r3, r0
 8000558:	2b00      	cmp	r3, #0
 800055a:	d103      	bne.n	8000564 <HAL_GPIO_EXTI_Callback+0x70>
 800055c:	4b27      	ldr	r3, [pc, #156]	@ (80005fc <HAL_GPIO_EXTI_Callback+0x108>)
 800055e:	2201      	movs	r2, #1
 8000560:	701a      	strb	r2, [r3, #0]
 8000562:	e002      	b.n	800056a <HAL_GPIO_EXTI_Callback+0x76>
			else TL1_Car_var = 0;
 8000564:	4b25      	ldr	r3, [pc, #148]	@ (80005fc <HAL_GPIO_EXTI_Callback+0x108>)
 8000566:	2200      	movs	r2, #0
 8000568:	701a      	strb	r2, [r3, #0]
	}
	if(GPIO_Pin == TL2_Car_Pin) {
 800056a:	88fb      	ldrh	r3, [r7, #6]
 800056c:	f5b3 5f00 	cmp.w	r3, #8192	@ 0x2000
 8000570:	d10e      	bne.n	8000590 <HAL_GPIO_EXTI_Callback+0x9c>
		if (HAL_GPIO_ReadPin(TL2_Car_GPIO_Port, TL2_Car_Pin) == 0) TL2_Car_var = 1;
 8000572:	f44f 5100 	mov.w	r1, #8192	@ 0x2000
 8000576:	4822      	ldr	r0, [pc, #136]	@ (8000600 <HAL_GPIO_EXTI_Callback+0x10c>)
 8000578:	f000 ff7c 	bl	8001474 <HAL_GPIO_ReadPin>
 800057c:	4603      	mov	r3, r0
 800057e:	2b00      	cmp	r3, #0
 8000580:	d103      	bne.n	800058a <HAL_GPIO_EXTI_Callback+0x96>
 8000582:	4b20      	ldr	r3, [pc, #128]	@ (8000604 <HAL_GPIO_EXTI_Callback+0x110>)
 8000584:	2201      	movs	r2, #1
 8000586:	701a      	strb	r2, [r3, #0]
 8000588:	e002      	b.n	8000590 <HAL_GPIO_EXTI_Callback+0x9c>
				else TL2_Car_var = 0;
 800058a:	4b1e      	ldr	r3, [pc, #120]	@ (8000604 <HAL_GPIO_EXTI_Callback+0x110>)
 800058c:	2200      	movs	r2, #0
 800058e:	701a      	strb	r2, [r3, #0]
	}
	if(GPIO_Pin == TL3_Car_Pin) {
 8000590:	88fb      	ldrh	r3, [r7, #6]
 8000592:	f5b3 4f80 	cmp.w	r3, #16384	@ 0x4000
 8000596:	d10e      	bne.n	80005b6 <HAL_GPIO_EXTI_Callback+0xc2>
		if (HAL_GPIO_ReadPin(TL3_Car_GPIO_Port, TL3_Car_Pin) == 0) TL3_Car_var = 1;
 8000598:	f44f 4180 	mov.w	r1, #16384	@ 0x4000
 800059c:	4818      	ldr	r0, [pc, #96]	@ (8000600 <HAL_GPIO_EXTI_Callback+0x10c>)
 800059e:	f000 ff69 	bl	8001474 <HAL_GPIO_ReadPin>
 80005a2:	4603      	mov	r3, r0
 80005a4:	2b00      	cmp	r3, #0
 80005a6:	d103      	bne.n	80005b0 <HAL_GPIO_EXTI_Callback+0xbc>
 80005a8:	4b17      	ldr	r3, [pc, #92]	@ (8000608 <HAL_GPIO_EXTI_Callback+0x114>)
 80005aa:	2201      	movs	r2, #1
 80005ac:	701a      	strb	r2, [r3, #0]
 80005ae:	e002      	b.n	80005b6 <HAL_GPIO_EXTI_Callback+0xc2>
				else TL3_Car_var = 0;
 80005b0:	4b15      	ldr	r3, [pc, #84]	@ (8000608 <HAL_GPIO_EXTI_Callback+0x114>)
 80005b2:	2200      	movs	r2, #0
 80005b4:	701a      	strb	r2, [r3, #0]
	}
	if(GPIO_Pin == TL4_Car_Pin) {
 80005b6:	88fb      	ldrh	r3, [r7, #6]
 80005b8:	f5b3 6f80 	cmp.w	r3, #1024	@ 0x400
 80005bc:	d10f      	bne.n	80005de <HAL_GPIO_EXTI_Callback+0xea>
		if (HAL_GPIO_ReadPin(TL4_Car_GPIO_Port, TL4_Car_Pin) == 0) TL4_Car_var = 1;
 80005be:	f44f 6180 	mov.w	r1, #1024	@ 0x400
 80005c2:	f04f 4090 	mov.w	r0, #1207959552	@ 0x48000000
 80005c6:	f000 ff55 	bl	8001474 <HAL_GPIO_ReadPin>
 80005ca:	4603      	mov	r3, r0
 80005cc:	2b00      	cmp	r3, #0
 80005ce:	d103      	bne.n	80005d8 <HAL_GPIO_EXTI_Callback+0xe4>
 80005d0:	4b0e      	ldr	r3, [pc, #56]	@ (800060c <HAL_GPIO_EXTI_Callback+0x118>)
 80005d2:	2201      	movs	r2, #1
 80005d4:	701a      	strb	r2, [r3, #0]
				else TL4_Car_var = 0;
	}

}
 80005d6:	e002      	b.n	80005de <HAL_GPIO_EXTI_Callback+0xea>
				else TL4_Car_var = 0;
 80005d8:	4b0c      	ldr	r3, [pc, #48]	@ (800060c <HAL_GPIO_EXTI_Callback+0x118>)
 80005da:	2200      	movs	r2, #0
 80005dc:	701a      	strb	r2, [r3, #0]
}
 80005de:	bf00      	nop
 80005e0:	3710      	adds	r7, #16
 80005e2:	46bd      	mov	sp, r7
 80005e4:	bd80      	pop	{r7, pc}
 80005e6:	bf00      	nop
 80005e8:	20000058 	.word	0x20000058
 80005ec:	20000050 	.word	0x20000050
 80005f0:	2000005c 	.word	0x2000005c
 80005f4:	20000051 	.word	0x20000051
 80005f8:	48000800 	.word	0x48000800
 80005fc:	20000052 	.word	0x20000052
 8000600:	48000400 	.word	0x48000400
 8000604:	20000053 	.word	0x20000053
 8000608:	20000054 	.word	0x20000054
 800060c:	20000055 	.word	0x20000055

08000610 <Car_Starting_positions>:
// a very cruisal  funtion used to read the intal carpossion when first running the code since the variables only change when a intreups happens
void Car_Starting_positions(){
 8000610:	b580      	push	{r7, lr}
 8000612:	af00      	add	r7, sp, #0
    HAL_GPIO_EXTI_Callback(TL1_Car_Pin);
 8000614:	2010      	movs	r0, #16
 8000616:	f7ff ff6d 	bl	80004f4 <HAL_GPIO_EXTI_Callback>
    HAL_GPIO_EXTI_Callback(TL2_Car_Pin);
 800061a:	f44f 5000 	mov.w	r0, #8192	@ 0x2000
 800061e:	f7ff ff69 	bl	80004f4 <HAL_GPIO_EXTI_Callback>
    HAL_GPIO_EXTI_Callback(TL3_Car_Pin);
 8000622:	f44f 4080 	mov.w	r0, #16384	@ 0x4000
 8000626:	f7ff ff65 	bl	80004f4 <HAL_GPIO_EXTI_Callback>
    HAL_GPIO_EXTI_Callback(TL4_Car_Pin);
 800062a:	f44f 6080 	mov.w	r0, #1024	@ 0x400
 800062e:	f7ff ff61 	bl	80004f4 <HAL_GPIO_EXTI_Callback>
}
 8000632:	bf00      	nop
 8000634:	bd80      	pop	{r7, pc}
	...

08000638 <SPIinit>:
uint8_t H_O_pending_0[3] = {0x0a, 0x11, 0x0a};
uint8_t H_O_pending_1[3] = {0x0a, 0x11, 0x2a};



void SPIinit(){
 8000638:	b580      	push	{r7, lr}
 800063a:	af00      	add	r7, sp, #0
	HAL_GPIO_WritePin(_595_Enable_GPIO_Port, _595_Enable_Pin, RESET);
 800063c:	2200      	movs	r2, #0
 800063e:	2180      	movs	r1, #128	@ 0x80
 8000640:	4808      	ldr	r0, [pc, #32]	@ (8000664 <SPIinit+0x2c>)
 8000642:	f000 ff2f 	bl	80014a4 <HAL_GPIO_WritePin>
	HAL_GPIO_WritePin(_595_Reset_GPIO_Port, _595_Reset_Pin, SET);
 8000646:	2201      	movs	r2, #1
 8000648:	f44f 7100 	mov.w	r1, #512	@ 0x200
 800064c:	f04f 4090 	mov.w	r0, #1207959552	@ 0x48000000
 8000650:	f000 ff28 	bl	80014a4 <HAL_GPIO_WritePin>
	HAL_GPIO_WritePin(_595_STCP_GPIO_Port, _595_STCP_Pin, RESET);
 8000654:	2200      	movs	r2, #0
 8000656:	f44f 5180 	mov.w	r1, #4096	@ 0x1000
 800065a:	4803      	ldr	r0, [pc, #12]	@ (8000668 <SPIinit+0x30>)
 800065c:	f000 ff22 	bl	80014a4 <HAL_GPIO_WritePin>

}
 8000660:	bf00      	nop
 8000662:	bd80      	pop	{r7, pc}
 8000664:	48000800 	.word	0x48000800
 8000668:	48000400 	.word	0x48000400

0800066c <SPIshow_state>:

void SPIshow_state(uint8_t *state){
 800066c:	b580      	push	{r7, lr}
 800066e:	b082      	sub	sp, #8
 8000670:	af00      	add	r7, sp, #0
 8000672:	6078      	str	r0, [r7, #4]
	HAL_SPI_Transmit(&hspi3,state,3, 50);
 8000674:	2332      	movs	r3, #50	@ 0x32
 8000676:	2203      	movs	r2, #3
 8000678:	6879      	ldr	r1, [r7, #4]
 800067a:	4809      	ldr	r0, [pc, #36]	@ (80006a0 <SPIshow_state+0x34>)
 800067c:	f002 fb05 	bl	8002c8a <HAL_SPI_Transmit>
	HAL_GPIO_WritePin(_595_STCP_GPIO_Port, _595_STCP_Pin, SET);
 8000680:	2201      	movs	r2, #1
 8000682:	f44f 5180 	mov.w	r1, #4096	@ 0x1000
 8000686:	4807      	ldr	r0, [pc, #28]	@ (80006a4 <SPIshow_state+0x38>)
 8000688:	f000 ff0c 	bl	80014a4 <HAL_GPIO_WritePin>
	HAL_GPIO_WritePin(_595_STCP_GPIO_Port, _595_STCP_Pin, RESET);
 800068c:	2200      	movs	r2, #0
 800068e:	f44f 5180 	mov.w	r1, #4096	@ 0x1000
 8000692:	4804      	ldr	r0, [pc, #16]	@ (80006a4 <SPIshow_state+0x38>)
 8000694:	f000 ff06 	bl	80014a4 <HAL_GPIO_WritePin>
}
 8000698:	bf00      	nop
 800069a:	3708      	adds	r7, #8
 800069c:	46bd      	mov	sp, r7
 800069e:	bd80      	pop	{r7, pc}
 80006a0:	20000060 	.word	0x20000060
 80006a4:	48000400 	.word	0x48000400

080006a8 <main>:
/**
  * @brief  The application entry point.
  * @retval int
  */
int main(void)
{
 80006a8:	b580      	push	{r7, lr}
 80006aa:	af00      	add	r7, sp, #0
  /* USER CODE END 1 */

  /* MCU Configuration--------------------------------------------------------*/

  /* Reset of all peripherals, Initializes the Flash interface and the Systick. */
  HAL_Init();
 80006ac:	f000 fb86 	bl	8000dbc <HAL_Init>
  /* USER CODE BEGIN Init */

  /* USER CODE END Init */

  /* Configure the system clock */
  SystemClock_Config();
 80006b0:	f000 f80e 	bl	80006d0 <SystemClock_Config>
  /* USER CODE BEGIN SysInit */

  /* USER CODE END SysInit */

  /* Initialize all configured peripherals */
  MX_GPIO_Init();
 80006b4:	f000 f8cc 	bl	8000850 <MX_GPIO_Init>
  MX_USART2_UART_Init();
 80006b8:	f000 f89a 	bl	80007f0 <MX_USART2_UART_Init>
  MX_SPI3_Init();
 80006bc:	f000 f85a 	bl	8000774 <MX_SPI3_Init>

  /* Infinite loop */
  /* USER CODE BEGIN WHILE */
  while (1)
  {
	 SPIinit();
 80006c0:	f7ff ffba 	bl	8000638 <SPIinit>
	 Car_Starting_positions();
 80006c4:	f7ff ffa4 	bl	8000610 <Car_Starting_positions>

	 test_led_state3();
 80006c8:	f000 faf0 	bl	8000cac <test_led_state3>
	 SPIinit();
 80006cc:	bf00      	nop
 80006ce:	e7f7      	b.n	80006c0 <main+0x18>

080006d0 <SystemClock_Config>:
/**
  * @brief System Clock Configuration
  * @retval None
  */
void SystemClock_Config(void)
{
 80006d0:	b580      	push	{r7, lr}
 80006d2:	b096      	sub	sp, #88	@ 0x58
 80006d4:	af00      	add	r7, sp, #0
  RCC_OscInitTypeDef RCC_OscInitStruct = {0};
 80006d6:	f107 0314 	add.w	r3, r7, #20
 80006da:	2244      	movs	r2, #68	@ 0x44
 80006dc:	2100      	movs	r1, #0
 80006de:	4618      	mov	r0, r3
 80006e0:	f003 facf 	bl	8003c82 <memset>
  RCC_ClkInitTypeDef RCC_ClkInitStruct = {0};
 80006e4:	463b      	mov	r3, r7
 80006e6:	2200      	movs	r2, #0
 80006e8:	601a      	str	r2, [r3, #0]
 80006ea:	605a      	str	r2, [r3, #4]
 80006ec:	609a      	str	r2, [r3, #8]
 80006ee:	60da      	str	r2, [r3, #12]
 80006f0:	611a      	str	r2, [r3, #16]

  /** Configure the main internal regulator output voltage
  */
  if (HAL_PWREx_ControlVoltageScaling(PWR_REGULATOR_VOLTAGE_SCALE1) != HAL_OK)
 80006f2:	f44f 7000 	mov.w	r0, #512	@ 0x200
 80006f6:	f000 ff13 	bl	8001520 <HAL_PWREx_ControlVoltageScaling>
 80006fa:	4603      	mov	r3, r0
 80006fc:	2b00      	cmp	r3, #0
 80006fe:	d001      	beq.n	8000704 <SystemClock_Config+0x34>
  {
    Error_Handler();
 8000700:	f000 f988 	bl	8000a14 <Error_Handler>
  }

  /** Initializes the RCC Oscillators according to the specified parameters
  * in the RCC_OscInitTypeDef structure.
  */
  RCC_OscInitStruct.OscillatorType = RCC_OSCILLATORTYPE_HSI;
 8000704:	2302      	movs	r3, #2
 8000706:	617b      	str	r3, [r7, #20]
  RCC_OscInitStruct.HSIState = RCC_HSI_ON;
 8000708:	f44f 7380 	mov.w	r3, #256	@ 0x100
 800070c:	623b      	str	r3, [r7, #32]
  RCC_OscInitStruct.HSICalibrationValue = RCC_HSICALIBRATION_DEFAULT;
 800070e:	2310      	movs	r3, #16
 8000710:	627b      	str	r3, [r7, #36]	@ 0x24
  RCC_OscInitStruct.PLL.PLLState = RCC_PLL_ON;
 8000712:	2302      	movs	r3, #2
 8000714:	63fb      	str	r3, [r7, #60]	@ 0x3c
  RCC_OscInitStruct.PLL.PLLSource = RCC_PLLSOURCE_HSI;
 8000716:	2302      	movs	r3, #2
 8000718:	643b      	str	r3, [r7, #64]	@ 0x40
  RCC_OscInitStruct.PLL.PLLM = 1;
 800071a:	2301      	movs	r3, #1
 800071c:	647b      	str	r3, [r7, #68]	@ 0x44
  RCC_OscInitStruct.PLL.PLLN = 10;
 800071e:	230a      	movs	r3, #10
 8000720:	64bb      	str	r3, [r7, #72]	@ 0x48
  RCC_OscInitStruct.PLL.PLLP = RCC_PLLP_DIV7;
 8000722:	2307      	movs	r3, #7
 8000724:	64fb      	str	r3, [r7, #76]	@ 0x4c
  RCC_OscInitStruct.PLL.PLLQ = RCC_PLLQ_DIV2;
 8000726:	2302      	movs	r3, #2
 8000728:	653b      	str	r3, [r7, #80]	@ 0x50
  RCC_OscInitStruct.PLL.PLLR = RCC_PLLR_DIV2;
 800072a:	2302      	movs	r3, #2
 800072c:	657b      	str	r3, [r7, #84]	@ 0x54
  if (HAL_RCC_OscConfig(&RCC_OscInitStruct) != HAL_OK)
 800072e:	f107 0314 	add.w	r3, r7, #20
 8000732:	4618      	mov	r0, r3
 8000734:	f000 ff4a 	bl	80015cc <HAL_RCC_OscConfig>
 8000738:	4603      	mov	r3, r0
 800073a:	2b00      	cmp	r3, #0
 800073c:	d001      	beq.n	8000742 <SystemClock_Config+0x72>
  {
    Error_Handler();
 800073e:	f000 f969 	bl	8000a14 <Error_Handler>
  }

  /** Initializes the CPU, AHB and APB buses clocks
  */
  RCC_ClkInitStruct.ClockType = RCC_CLOCKTYPE_HCLK|RCC_CLOCKTYPE_SYSCLK
 8000742:	230f      	movs	r3, #15
 8000744:	603b      	str	r3, [r7, #0]
                              |RCC_CLOCKTYPE_PCLK1|RCC_CLOCKTYPE_PCLK2;
  RCC_ClkInitStruct.SYSCLKSource = RCC_SYSCLKSOURCE_PLLCLK;
 8000746:	2303      	movs	r3, #3
 8000748:	607b      	str	r3, [r7, #4]
  RCC_ClkInitStruct.AHBCLKDivider = RCC_SYSCLK_DIV1;
 800074a:	2300      	movs	r3, #0
 800074c:	60bb      	str	r3, [r7, #8]
  RCC_ClkInitStruct.APB1CLKDivider = RCC_HCLK_DIV1;
 800074e:	2300      	movs	r3, #0
 8000750:	60fb      	str	r3, [r7, #12]
  RCC_ClkInitStruct.APB2CLKDivider = RCC_HCLK_DIV1;
 8000752:	2300      	movs	r3, #0
 8000754:	613b      	str	r3, [r7, #16]

  if (HAL_RCC_ClockConfig(&RCC_ClkInitStruct, FLASH_LATENCY_4) != HAL_OK)
 8000756:	463b      	mov	r3, r7
 8000758:	2104      	movs	r1, #4
 800075a:	4618      	mov	r0, r3
 800075c:	f001 fb12 	bl	8001d84 <HAL_RCC_ClockConfig>
 8000760:	4603      	mov	r3, r0
 8000762:	2b00      	cmp	r3, #0
 8000764:	d001      	beq.n	800076a <SystemClock_Config+0x9a>
  {
    Error_Handler();
 8000766:	f000 f955 	bl	8000a14 <Error_Handler>
  }
}
 800076a:	bf00      	nop
 800076c:	3758      	adds	r7, #88	@ 0x58
 800076e:	46bd      	mov	sp, r7
 8000770:	bd80      	pop	{r7, pc}
	...

08000774 <MX_SPI3_Init>:
  * @brief SPI3 Initialization Function
  * @param None
  * @retval None
  */
static void MX_SPI3_Init(void)
{
 8000774:	b580      	push	{r7, lr}
 8000776:	af00      	add	r7, sp, #0

  /* USER CODE BEGIN SPI3_Init 1 */

  /* USER CODE END SPI3_Init 1 */
  /* SPI3 parameter configuration*/
  hspi3.Instance = SPI3;
 8000778:	4b1b      	ldr	r3, [pc, #108]	@ (80007e8 <MX_SPI3_Init+0x74>)
 800077a:	4a1c      	ldr	r2, [pc, #112]	@ (80007ec <MX_SPI3_Init+0x78>)
 800077c:	601a      	str	r2, [r3, #0]
  hspi3.Init.Mode = SPI_MODE_MASTER;
 800077e:	4b1a      	ldr	r3, [pc, #104]	@ (80007e8 <MX_SPI3_Init+0x74>)
 8000780:	f44f 7282 	mov.w	r2, #260	@ 0x104
 8000784:	605a      	str	r2, [r3, #4]
  hspi3.Init.Direction = SPI_DIRECTION_2LINES;
 8000786:	4b18      	ldr	r3, [pc, #96]	@ (80007e8 <MX_SPI3_Init+0x74>)
 8000788:	2200      	movs	r2, #0
 800078a:	609a      	str	r2, [r3, #8]
  hspi3.Init.DataSize = SPI_DATASIZE_8BIT;
 800078c:	4b16      	ldr	r3, [pc, #88]	@ (80007e8 <MX_SPI3_Init+0x74>)
 800078e:	f44f 62e0 	mov.w	r2, #1792	@ 0x700
 8000792:	60da      	str	r2, [r3, #12]
  hspi3.Init.CLKPolarity = SPI_POLARITY_LOW;
 8000794:	4b14      	ldr	r3, [pc, #80]	@ (80007e8 <MX_SPI3_Init+0x74>)
 8000796:	2200      	movs	r2, #0
 8000798:	611a      	str	r2, [r3, #16]
  hspi3.Init.CLKPhase = SPI_PHASE_1EDGE;
 800079a:	4b13      	ldr	r3, [pc, #76]	@ (80007e8 <MX_SPI3_Init+0x74>)
 800079c:	2200      	movs	r2, #0
 800079e:	615a      	str	r2, [r3, #20]
  hspi3.Init.NSS = SPI_NSS_SOFT;
 80007a0:	4b11      	ldr	r3, [pc, #68]	@ (80007e8 <MX_SPI3_Init+0x74>)
 80007a2:	f44f 7200 	mov.w	r2, #512	@ 0x200
 80007a6:	619a      	str	r2, [r3, #24]
  hspi3.Init.BaudRatePrescaler = SPI_BAUDRATEPRESCALER_256;
 80007a8:	4b0f      	ldr	r3, [pc, #60]	@ (80007e8 <MX_SPI3_Init+0x74>)
 80007aa:	2238      	movs	r2, #56	@ 0x38
 80007ac:	61da      	str	r2, [r3, #28]
  hspi3.Init.FirstBit = SPI_FIRSTBIT_MSB;
 80007ae:	4b0e      	ldr	r3, [pc, #56]	@ (80007e8 <MX_SPI3_Init+0x74>)
 80007b0:	2200      	movs	r2, #0
 80007b2:	621a      	str	r2, [r3, #32]
  hspi3.Init.TIMode = SPI_TIMODE_DISABLE;
 80007b4:	4b0c      	ldr	r3, [pc, #48]	@ (80007e8 <MX_SPI3_Init+0x74>)
 80007b6:	2200      	movs	r2, #0
 80007b8:	625a      	str	r2, [r3, #36]	@ 0x24
  hspi3.Init.CRCCalculation = SPI_CRCCALCULATION_DISABLE;
 80007ba:	4b0b      	ldr	r3, [pc, #44]	@ (80007e8 <MX_SPI3_Init+0x74>)
 80007bc:	2200      	movs	r2, #0
 80007be:	629a      	str	r2, [r3, #40]	@ 0x28
  hspi3.Init.CRCPolynomial = 7;
 80007c0:	4b09      	ldr	r3, [pc, #36]	@ (80007e8 <MX_SPI3_Init+0x74>)
 80007c2:	2207      	movs	r2, #7
 80007c4:	62da      	str	r2, [r3, #44]	@ 0x2c
  hspi3.Init.CRCLength = SPI_CRC_LENGTH_DATASIZE;
 80007c6:	4b08      	ldr	r3, [pc, #32]	@ (80007e8 <MX_SPI3_Init+0x74>)
 80007c8:	2200      	movs	r2, #0
 80007ca:	631a      	str	r2, [r3, #48]	@ 0x30
  hspi3.Init.NSSPMode = SPI_NSS_PULSE_ENABLE;
 80007cc:	4b06      	ldr	r3, [pc, #24]	@ (80007e8 <MX_SPI3_Init+0x74>)
 80007ce:	2208      	movs	r2, #8
 80007d0:	635a      	str	r2, [r3, #52]	@ 0x34
  if (HAL_SPI_Init(&hspi3) != HAL_OK)
 80007d2:	4805      	ldr	r0, [pc, #20]	@ (80007e8 <MX_SPI3_Init+0x74>)
 80007d4:	f002 f9b6 	bl	8002b44 <HAL_SPI_Init>
 80007d8:	4603      	mov	r3, r0
 80007da:	2b00      	cmp	r3, #0
 80007dc:	d001      	beq.n	80007e2 <MX_SPI3_Init+0x6e>
  {
    Error_Handler();
 80007de:	f000 f919 	bl	8000a14 <Error_Handler>
  }
  /* USER CODE BEGIN SPI3_Init 2 */

  /* USER CODE END SPI3_Init 2 */

}
 80007e2:	bf00      	nop
 80007e4:	bd80      	pop	{r7, pc}
 80007e6:	bf00      	nop
 80007e8:	20000060 	.word	0x20000060
 80007ec:	40003c00 	.word	0x40003c00

080007f0 <MX_USART2_UART_Init>:
  * @brief USART2 Initialization Function
  * @param None
  * @retval None
  */
static void MX_USART2_UART_Init(void)
{
 80007f0:	b580      	push	{r7, lr}
 80007f2:	af00      	add	r7, sp, #0
  /* USER CODE END USART2_Init 0 */

  /* USER CODE BEGIN USART2_Init 1 */

  /* USER CODE END USART2_Init 1 */
  huart2.Instance = USART2;
 80007f4:	4b14      	ldr	r3, [pc, #80]	@ (8000848 <MX_USART2_UART_Init+0x58>)
 80007f6:	4a15      	ldr	r2, [pc, #84]	@ (800084c <MX_USART2_UART_Init+0x5c>)
 80007f8:	601a      	str	r2, [r3, #0]
  huart2.Init.BaudRate = 115200;
 80007fa:	4b13      	ldr	r3, [pc, #76]	@ (8000848 <MX_USART2_UART_Init+0x58>)
 80007fc:	f44f 32e1 	mov.w	r2, #115200	@ 0x1c200
 8000800:	605a      	str	r2, [r3, #4]
  huart2.Init.WordLength = UART_WORDLENGTH_8B;
 8000802:	4b11      	ldr	r3, [pc, #68]	@ (8000848 <MX_USART2_UART_Init+0x58>)
 8000804:	2200      	movs	r2, #0
 8000806:	609a      	str	r2, [r3, #8]
  huart2.Init.StopBits = UART_STOPBITS_1;
 8000808:	4b0f      	ldr	r3, [pc, #60]	@ (8000848 <MX_USART2_UART_Init+0x58>)
 800080a:	2200      	movs	r2, #0
 800080c:	60da      	str	r2, [r3, #12]
  huart2.Init.Parity = UART_PARITY_NONE;
 800080e:	4b0e      	ldr	r3, [pc, #56]	@ (8000848 <MX_USART2_UART_Init+0x58>)
 8000810:	2200      	movs	r2, #0
 8000812:	611a      	str	r2, [r3, #16]
  huart2.Init.Mode = UART_MODE_TX_RX;
 8000814:	4b0c      	ldr	r3, [pc, #48]	@ (8000848 <MX_USART2_UART_Init+0x58>)
 8000816:	220c      	movs	r2, #12
 8000818:	615a      	str	r2, [r3, #20]
  huart2.Init.HwFlowCtl = UART_HWCONTROL_NONE;
 800081a:	4b0b      	ldr	r3, [pc, #44]	@ (8000848 <MX_USART2_UART_Init+0x58>)
 800081c:	2200      	movs	r2, #0
 800081e:	619a      	str	r2, [r3, #24]
  huart2.Init.OverSampling = UART_OVERSAMPLING_16;
 8000820:	4b09      	ldr	r3, [pc, #36]	@ (8000848 <MX_USART2_UART_Init+0x58>)
 8000822:	2200      	movs	r2, #0
 8000824:	61da      	str	r2, [r3, #28]
  huart2.Init.OneBitSampling = UART_ONE_BIT_SAMPLE_DISABLE;
 8000826:	4b08      	ldr	r3, [pc, #32]	@ (8000848 <MX_USART2_UART_Init+0x58>)
 8000828:	2200      	movs	r2, #0
 800082a:	621a      	str	r2, [r3, #32]
  huart2.AdvancedInit.AdvFeatureInit = UART_ADVFEATURE_NO_INIT;
 800082c:	4b06      	ldr	r3, [pc, #24]	@ (8000848 <MX_USART2_UART_Init+0x58>)
 800082e:	2200      	movs	r2, #0
 8000830:	625a      	str	r2, [r3, #36]	@ 0x24
  if (HAL_UART_Init(&huart2) != HAL_OK)
 8000832:	4805      	ldr	r0, [pc, #20]	@ (8000848 <MX_USART2_UART_Init+0x58>)
 8000834:	f002 fd04 	bl	8003240 <HAL_UART_Init>
 8000838:	4603      	mov	r3, r0
 800083a:	2b00      	cmp	r3, #0
 800083c:	d001      	beq.n	8000842 <MX_USART2_UART_Init+0x52>
  {
    Error_Handler();
 800083e:	f000 f8e9 	bl	8000a14 <Error_Handler>
  }
  /* USER CODE BEGIN USART2_Init 2 */

  /* USER CODE END USART2_Init 2 */

}
 8000842:	bf00      	nop
 8000844:	bd80      	pop	{r7, pc}
 8000846:	bf00      	nop
 8000848:	200000c4 	.word	0x200000c4
 800084c:	40004400 	.word	0x40004400

08000850 <MX_GPIO_Init>:
  * @brief GPIO Initialization Function
  * @param None
  * @retval None
  */
static void MX_GPIO_Init(void)
{
 8000850:	b580      	push	{r7, lr}
 8000852:	b08a      	sub	sp, #40	@ 0x28
 8000854:	af00      	add	r7, sp, #0
  GPIO_InitTypeDef GPIO_InitStruct = {0};
 8000856:	f107 0314 	add.w	r3, r7, #20
 800085a:	2200      	movs	r2, #0
 800085c:	601a      	str	r2, [r3, #0]
 800085e:	605a      	str	r2, [r3, #4]
 8000860:	609a      	str	r2, [r3, #8]
 8000862:	60da      	str	r2, [r3, #12]
 8000864:	611a      	str	r2, [r3, #16]
  /* USER CODE BEGIN MX_GPIO_Init_1 */

  /* USER CODE END MX_GPIO_Init_1 */

  /* GPIO Ports Clock Enable */
  __HAL_RCC_GPIOC_CLK_ENABLE();
 8000866:	4b68      	ldr	r3, [pc, #416]	@ (8000a08 <MX_GPIO_Init+0x1b8>)
 8000868:	6cdb      	ldr	r3, [r3, #76]	@ 0x4c
 800086a:	4a67      	ldr	r2, [pc, #412]	@ (8000a08 <MX_GPIO_Init+0x1b8>)
 800086c:	f043 0304 	orr.w	r3, r3, #4
 8000870:	64d3      	str	r3, [r2, #76]	@ 0x4c
 8000872:	4b65      	ldr	r3, [pc, #404]	@ (8000a08 <MX_GPIO_Init+0x1b8>)
 8000874:	6cdb      	ldr	r3, [r3, #76]	@ 0x4c
 8000876:	f003 0304 	and.w	r3, r3, #4
 800087a:	613b      	str	r3, [r7, #16]
 800087c:	693b      	ldr	r3, [r7, #16]
  __HAL_RCC_GPIOH_CLK_ENABLE();
 800087e:	4b62      	ldr	r3, [pc, #392]	@ (8000a08 <MX_GPIO_Init+0x1b8>)
 8000880:	6cdb      	ldr	r3, [r3, #76]	@ 0x4c
 8000882:	4a61      	ldr	r2, [pc, #388]	@ (8000a08 <MX_GPIO_Init+0x1b8>)
 8000884:	f043 0380 	orr.w	r3, r3, #128	@ 0x80
 8000888:	64d3      	str	r3, [r2, #76]	@ 0x4c
 800088a:	4b5f      	ldr	r3, [pc, #380]	@ (8000a08 <MX_GPIO_Init+0x1b8>)
 800088c:	6cdb      	ldr	r3, [r3, #76]	@ 0x4c
 800088e:	f003 0380 	and.w	r3, r3, #128	@ 0x80
 8000892:	60fb      	str	r3, [r7, #12]
 8000894:	68fb      	ldr	r3, [r7, #12]
  __HAL_RCC_GPIOA_CLK_ENABLE();
 8000896:	4b5c      	ldr	r3, [pc, #368]	@ (8000a08 <MX_GPIO_Init+0x1b8>)
 8000898:	6cdb      	ldr	r3, [r3, #76]	@ 0x4c
 800089a:	4a5b      	ldr	r2, [pc, #364]	@ (8000a08 <MX_GPIO_Init+0x1b8>)
 800089c:	f043 0301 	orr.w	r3, r3, #1
 80008a0:	64d3      	str	r3, [r2, #76]	@ 0x4c
 80008a2:	4b59      	ldr	r3, [pc, #356]	@ (8000a08 <MX_GPIO_Init+0x1b8>)
 80008a4:	6cdb      	ldr	r3, [r3, #76]	@ 0x4c
 80008a6:	f003 0301 	and.w	r3, r3, #1
 80008aa:	60bb      	str	r3, [r7, #8]
 80008ac:	68bb      	ldr	r3, [r7, #8]
  __HAL_RCC_GPIOB_CLK_ENABLE();
 80008ae:	4b56      	ldr	r3, [pc, #344]	@ (8000a08 <MX_GPIO_Init+0x1b8>)
 80008b0:	6cdb      	ldr	r3, [r3, #76]	@ 0x4c
 80008b2:	4a55      	ldr	r2, [pc, #340]	@ (8000a08 <MX_GPIO_Init+0x1b8>)
 80008b4:	f043 0302 	orr.w	r3, r3, #2
 80008b8:	64d3      	str	r3, [r2, #76]	@ 0x4c
 80008ba:	4b53      	ldr	r3, [pc, #332]	@ (8000a08 <MX_GPIO_Init+0x1b8>)
 80008bc:	6cdb      	ldr	r3, [r3, #76]	@ 0x4c
 80008be:	f003 0302 	and.w	r3, r3, #2
 80008c2:	607b      	str	r3, [r7, #4]
 80008c4:	687b      	ldr	r3, [r7, #4]

  /*Configure GPIO pin Output Level */
  HAL_GPIO_WritePin(GPIOA, LD2_Pin|_595_Reset_Pin, GPIO_PIN_RESET);
 80008c6:	2200      	movs	r2, #0
 80008c8:	f44f 7108 	mov.w	r1, #544	@ 0x220
 80008cc:	f04f 4090 	mov.w	r0, #1207959552	@ 0x48000000
 80008d0:	f000 fde8 	bl	80014a4 <HAL_GPIO_WritePin>

  /*Configure GPIO pin Output Level */
  HAL_GPIO_WritePin(_595_STCP_GPIO_Port, _595_STCP_Pin, GPIO_PIN_RESET);
 80008d4:	2200      	movs	r2, #0
 80008d6:	f44f 5180 	mov.w	r1, #4096	@ 0x1000
 80008da:	484c      	ldr	r0, [pc, #304]	@ (8000a0c <MX_GPIO_Init+0x1bc>)
 80008dc:	f000 fde2 	bl	80014a4 <HAL_GPIO_WritePin>

  /*Configure GPIO pin Output Level */
  HAL_GPIO_WritePin(_595_Enable_GPIO_Port, _595_Enable_Pin, GPIO_PIN_RESET);
 80008e0:	2200      	movs	r2, #0
 80008e2:	2180      	movs	r1, #128	@ 0x80
 80008e4:	484a      	ldr	r0, [pc, #296]	@ (8000a10 <MX_GPIO_Init+0x1c0>)
 80008e6:	f000 fddd 	bl	80014a4 <HAL_GPIO_WritePin>

  /*Configure GPIO pins : LD2_Pin _595_Reset_Pin */
  GPIO_InitStruct.Pin = LD2_Pin|_595_Reset_Pin;
 80008ea:	f44f 7308 	mov.w	r3, #544	@ 0x220
 80008ee:	617b      	str	r3, [r7, #20]
  GPIO_InitStruct.Mode = GPIO_MODE_OUTPUT_PP;
 80008f0:	2301      	movs	r3, #1
 80008f2:	61bb      	str	r3, [r7, #24]
  GPIO_InitStruct.Pull = GPIO_NOPULL;
 80008f4:	2300      	movs	r3, #0
 80008f6:	61fb      	str	r3, [r7, #28]
  GPIO_InitStruct.Speed = GPIO_SPEED_FREQ_LOW;
 80008f8:	2300      	movs	r3, #0
 80008fa:	623b      	str	r3, [r7, #32]
  HAL_GPIO_Init(GPIOA, &GPIO_InitStruct);
 80008fc:	f107 0314 	add.w	r3, r7, #20
 8000900:	4619      	mov	r1, r3
 8000902:	f04f 4090 	mov.w	r0, #1207959552	@ 0x48000000
 8000906:	f000 fc0b 	bl	8001120 <HAL_GPIO_Init>

  /*Configure GPIO pin : TL1_Car_Pin */
  GPIO_InitStruct.Pin = TL1_Car_Pin;
 800090a:	2310      	movs	r3, #16
 800090c:	617b      	str	r3, [r7, #20]
  GPIO_InitStruct.Mode = GPIO_MODE_IT_RISING_FALLING;
 800090e:	f44f 1344 	mov.w	r3, #3211264	@ 0x310000
 8000912:	61bb      	str	r3, [r7, #24]
  GPIO_InitStruct.Pull = GPIO_NOPULL;
 8000914:	2300      	movs	r3, #0
 8000916:	61fb      	str	r3, [r7, #28]
  HAL_GPIO_Init(TL1_Car_GPIO_Port, &GPIO_InitStruct);
 8000918:	f107 0314 	add.w	r3, r7, #20
 800091c:	4619      	mov	r1, r3
 800091e:	483c      	ldr	r0, [pc, #240]	@ (8000a10 <MX_GPIO_Init+0x1c0>)
 8000920:	f000 fbfe 	bl	8001120 <HAL_GPIO_Init>

  /*Configure GPIO pin : _595_STCP_Pin */
  GPIO_InitStruct.Pin = _595_STCP_Pin;
 8000924:	f44f 5380 	mov.w	r3, #4096	@ 0x1000
 8000928:	617b      	str	r3, [r7, #20]
  GPIO_InitStruct.Mode = GPIO_MODE_OUTPUT_PP;
 800092a:	2301      	movs	r3, #1
 800092c:	61bb      	str	r3, [r7, #24]
  GPIO_InitStruct.Pull = GPIO_NOPULL;
 800092e:	2300      	movs	r3, #0
 8000930:	61fb      	str	r3, [r7, #28]
  GPIO_InitStruct.Speed = GPIO_SPEED_FREQ_LOW;
 8000932:	2300      	movs	r3, #0
 8000934:	623b      	str	r3, [r7, #32]
  HAL_GPIO_Init(_595_STCP_GPIO_Port, &GPIO_InitStruct);
 8000936:	f107 0314 	add.w	r3, r7, #20
 800093a:	4619      	mov	r1, r3
 800093c:	4833      	ldr	r0, [pc, #204]	@ (8000a0c <MX_GPIO_Init+0x1bc>)
 800093e:	f000 fbef 	bl	8001120 <HAL_GPIO_Init>

  /*Configure GPIO pins : TL2_Car_Pin TL3_Car_Pin */
  GPIO_InitStruct.Pin = TL2_Car_Pin|TL3_Car_Pin;
 8000942:	f44f 43c0 	mov.w	r3, #24576	@ 0x6000
 8000946:	617b      	str	r3, [r7, #20]
  GPIO_InitStruct.Mode = GPIO_MODE_IT_RISING_FALLING;
 8000948:	f44f 1344 	mov.w	r3, #3211264	@ 0x310000
 800094c:	61bb      	str	r3, [r7, #24]
  GPIO_InitStruct.Pull = GPIO_NOPULL;
 800094e:	2300      	movs	r3, #0
 8000950:	61fb      	str	r3, [r7, #28]
  HAL_GPIO_Init(GPIOB, &GPIO_InitStruct);
 8000952:	f107 0314 	add.w	r3, r7, #20
 8000956:	4619      	mov	r1, r3
 8000958:	482c      	ldr	r0, [pc, #176]	@ (8000a0c <MX_GPIO_Init+0x1bc>)
 800095a:	f000 fbe1 	bl	8001120 <HAL_GPIO_Init>

  /*Configure GPIO pin : _595_Enable_Pin */
  GPIO_InitStruct.Pin = _595_Enable_Pin;
 800095e:	2380      	movs	r3, #128	@ 0x80
 8000960:	617b      	str	r3, [r7, #20]
  GPIO_InitStruct.Mode = GPIO_MODE_OUTPUT_PP;
 8000962:	2301      	movs	r3, #1
 8000964:	61bb      	str	r3, [r7, #24]
  GPIO_InitStruct.Pull = GPIO_NOPULL;
 8000966:	2300      	movs	r3, #0
 8000968:	61fb      	str	r3, [r7, #28]
  GPIO_InitStruct.Speed = GPIO_SPEED_FREQ_LOW;
 800096a:	2300      	movs	r3, #0
 800096c:	623b      	str	r3, [r7, #32]
  HAL_GPIO_Init(_595_Enable_GPIO_Port, &GPIO_InitStruct);
 800096e:	f107 0314 	add.w	r3, r7, #20
 8000972:	4619      	mov	r1, r3
 8000974:	4826      	ldr	r0, [pc, #152]	@ (8000a10 <MX_GPIO_Init+0x1c0>)
 8000976:	f000 fbd3 	bl	8001120 <HAL_GPIO_Init>

  /*Configure GPIO pin : TL4_Car_Pin */
  GPIO_InitStruct.Pin = TL4_Car_Pin;
 800097a:	f44f 6380 	mov.w	r3, #1024	@ 0x400
 800097e:	617b      	str	r3, [r7, #20]
  GPIO_InitStruct.Mode = GPIO_MODE_IT_RISING_FALLING;
 8000980:	f44f 1344 	mov.w	r3, #3211264	@ 0x310000
 8000984:	61bb      	str	r3, [r7, #24]
  GPIO_InitStruct.Pull = GPIO_NOPULL;
 8000986:	2300      	movs	r3, #0
 8000988:	61fb      	str	r3, [r7, #28]
  HAL_GPIO_Init(TL4_Car_GPIO_Port, &GPIO_InitStruct);
 800098a:	f107 0314 	add.w	r3, r7, #20
 800098e:	4619      	mov	r1, r3
 8000990:	f04f 4090 	mov.w	r0, #1207959552	@ 0x48000000
 8000994:	f000 fbc4 	bl	8001120 <HAL_GPIO_Init>

  /*Configure GPIO pin : PL1_Switch_Pin */
  GPIO_InitStruct.Pin = PL1_Switch_Pin;
 8000998:	f44f 4300 	mov.w	r3, #32768	@ 0x8000
 800099c:	617b      	str	r3, [r7, #20]
  GPIO_InitStruct.Mode = GPIO_MODE_IT_RISING;
 800099e:	f44f 1388 	mov.w	r3, #1114112	@ 0x110000
 80009a2:	61bb      	str	r3, [r7, #24]
  GPIO_InitStruct.Pull = GPIO_PULLUP;
 80009a4:	2301      	movs	r3, #1
 80009a6:	61fb      	str	r3, [r7, #28]
  HAL_GPIO_Init(PL1_Switch_GPIO_Port, &GPIO_InitStruct);
 80009a8:	f107 0314 	add.w	r3, r7, #20
 80009ac:	4619      	mov	r1, r3
 80009ae:	f04f 4090 	mov.w	r0, #1207959552	@ 0x48000000
 80009b2:	f000 fbb5 	bl	8001120 <HAL_GPIO_Init>

  /*Configure GPIO pin : PL2_Switch_Pin */
  GPIO_InitStruct.Pin = PL2_Switch_Pin;
 80009b6:	2380      	movs	r3, #128	@ 0x80
 80009b8:	617b      	str	r3, [r7, #20]
  GPIO_InitStruct.Mode = GPIO_MODE_IT_RISING;
 80009ba:	f44f 1388 	mov.w	r3, #1114112	@ 0x110000
 80009be:	61bb      	str	r3, [r7, #24]
  GPIO_InitStruct.Pull = GPIO_PULLUP;
 80009c0:	2301      	movs	r3, #1
 80009c2:	61fb      	str	r3, [r7, #28]
  HAL_GPIO_Init(PL2_Switch_GPIO_Port, &GPIO_InitStruct);
 80009c4:	f107 0314 	add.w	r3, r7, #20
 80009c8:	4619      	mov	r1, r3
 80009ca:	4810      	ldr	r0, [pc, #64]	@ (8000a0c <MX_GPIO_Init+0x1bc>)
 80009cc:	f000 fba8 	bl	8001120 <HAL_GPIO_Init>

  /* EXTI interrupt init*/
  HAL_NVIC_SetPriority(EXTI4_IRQn, 0, 0);
 80009d0:	2200      	movs	r2, #0
 80009d2:	2100      	movs	r1, #0
 80009d4:	200a      	movs	r0, #10
 80009d6:	f000 fb6c 	bl	80010b2 <HAL_NVIC_SetPriority>
  HAL_NVIC_EnableIRQ(EXTI4_IRQn);
 80009da:	200a      	movs	r0, #10
 80009dc:	f000 fb85 	bl	80010ea <HAL_NVIC_EnableIRQ>

  HAL_NVIC_SetPriority(EXTI9_5_IRQn, 0, 0);
 80009e0:	2200      	movs	r2, #0
 80009e2:	2100      	movs	r1, #0
 80009e4:	2017      	movs	r0, #23
 80009e6:	f000 fb64 	bl	80010b2 <HAL_NVIC_SetPriority>
  HAL_NVIC_EnableIRQ(EXTI9_5_IRQn);
 80009ea:	2017      	movs	r0, #23
 80009ec:	f000 fb7d 	bl	80010ea <HAL_NVIC_EnableIRQ>

  HAL_NVIC_SetPriority(EXTI15_10_IRQn, 0, 0);
 80009f0:	2200      	movs	r2, #0
 80009f2:	2100      	movs	r1, #0
 80009f4:	2028      	movs	r0, #40	@ 0x28
 80009f6:	f000 fb5c 	bl	80010b2 <HAL_NVIC_SetPriority>
  HAL_NVIC_EnableIRQ(EXTI15_10_IRQn);
 80009fa:	2028      	movs	r0, #40	@ 0x28
 80009fc:	f000 fb75 	bl	80010ea <HAL_NVIC_EnableIRQ>

  /* USER CODE BEGIN MX_GPIO_Init_2 */

  /* USER CODE END MX_GPIO_Init_2 */
}
 8000a00:	bf00      	nop
 8000a02:	3728      	adds	r7, #40	@ 0x28
 8000a04:	46bd      	mov	sp, r7
 8000a06:	bd80      	pop	{r7, pc}
 8000a08:	40021000 	.word	0x40021000
 8000a0c:	48000400 	.word	0x48000400
 8000a10:	48000800 	.word	0x48000800

08000a14 <Error_Handler>:
/**
  * @brief  This function is executed in case of error occurrence.
  * @retval None
  */
void Error_Handler(void)
{
 8000a14:	b480      	push	{r7}
 8000a16:	af00      	add	r7, sp, #0
  \details Disables IRQ interrupts by setting the I-bit in the CPSR.
           Can only be executed in Privileged modes.
 */
__STATIC_FORCEINLINE void __disable_irq(void)
{
  __ASM volatile ("cpsid i" : : : "memory");
 8000a18:	b672      	cpsid	i
}
 8000a1a:	bf00      	nop
  /* USER CODE BEGIN Error_Handler_Debug */
  /* User can add his own implementation to report the HAL error return state */
  __disable_irq();
  while (1)
 8000a1c:	bf00      	nop
 8000a1e:	e7fd      	b.n	8000a1c <Error_Handler+0x8>

08000a20 <HAL_MspInit>:
/* USER CODE END 0 */
/**
  * Initializes the Global MSP.
  */
void HAL_MspInit(void)
{
 8000a20:	b480      	push	{r7}
 8000a22:	b083      	sub	sp, #12
 8000a24:	af00      	add	r7, sp, #0

  /* USER CODE BEGIN MspInit 0 */

  /* USER CODE END MspInit 0 */

  __HAL_RCC_SYSCFG_CLK_ENABLE();
 8000a26:	4b0f      	ldr	r3, [pc, #60]	@ (8000a64 <HAL_MspInit+0x44>)
 8000a28:	6e1b      	ldr	r3, [r3, #96]	@ 0x60
 8000a2a:	4a0e      	ldr	r2, [pc, #56]	@ (8000a64 <HAL_MspInit+0x44>)
 8000a2c:	f043 0301 	orr.w	r3, r3, #1
 8000a30:	6613      	str	r3, [r2, #96]	@ 0x60
 8000a32:	4b0c      	ldr	r3, [pc, #48]	@ (8000a64 <HAL_MspInit+0x44>)
 8000a34:	6e1b      	ldr	r3, [r3, #96]	@ 0x60
 8000a36:	f003 0301 	and.w	r3, r3, #1
 8000a3a:	607b      	str	r3, [r7, #4]
 8000a3c:	687b      	ldr	r3, [r7, #4]
  __HAL_RCC_PWR_CLK_ENABLE();
 8000a3e:	4b09      	ldr	r3, [pc, #36]	@ (8000a64 <HAL_MspInit+0x44>)
 8000a40:	6d9b      	ldr	r3, [r3, #88]	@ 0x58
 8000a42:	4a08      	ldr	r2, [pc, #32]	@ (8000a64 <HAL_MspInit+0x44>)
 8000a44:	f043 5380 	orr.w	r3, r3, #268435456	@ 0x10000000
 8000a48:	6593      	str	r3, [r2, #88]	@ 0x58
 8000a4a:	4b06      	ldr	r3, [pc, #24]	@ (8000a64 <HAL_MspInit+0x44>)
 8000a4c:	6d9b      	ldr	r3, [r3, #88]	@ 0x58
 8000a4e:	f003 5380 	and.w	r3, r3, #268435456	@ 0x10000000
 8000a52:	603b      	str	r3, [r7, #0]
 8000a54:	683b      	ldr	r3, [r7, #0]
  /* System interrupt init*/

  /* USER CODE BEGIN MspInit 1 */

  /* USER CODE END MspInit 1 */
}
 8000a56:	bf00      	nop
 8000a58:	370c      	adds	r7, #12
 8000a5a:	46bd      	mov	sp, r7
 8000a5c:	f85d 7b04 	ldr.w	r7, [sp], #4
 8000a60:	4770      	bx	lr
 8000a62:	bf00      	nop
 8000a64:	40021000 	.word	0x40021000

08000a68 <HAL_SPI_MspInit>:
  * This function configures the hardware resources used in this example
  * @param hspi: SPI handle pointer
  * @retval None
  */
void HAL_SPI_MspInit(SPI_HandleTypeDef* hspi)
{
 8000a68:	b580      	push	{r7, lr}
 8000a6a:	b08a      	sub	sp, #40	@ 0x28
 8000a6c:	af00      	add	r7, sp, #0
 8000a6e:	6078      	str	r0, [r7, #4]
  GPIO_InitTypeDef GPIO_InitStruct = {0};
 8000a70:	f107 0314 	add.w	r3, r7, #20
 8000a74:	2200      	movs	r2, #0
 8000a76:	601a      	str	r2, [r3, #0]
 8000a78:	605a      	str	r2, [r3, #4]
 8000a7a:	609a      	str	r2, [r3, #8]
 8000a7c:	60da      	str	r2, [r3, #12]
 8000a7e:	611a      	str	r2, [r3, #16]
  if(hspi->Instance==SPI3)
 8000a80:	687b      	ldr	r3, [r7, #4]
 8000a82:	681b      	ldr	r3, [r3, #0]
 8000a84:	4a25      	ldr	r2, [pc, #148]	@ (8000b1c <HAL_SPI_MspInit+0xb4>)
 8000a86:	4293      	cmp	r3, r2
 8000a88:	d144      	bne.n	8000b14 <HAL_SPI_MspInit+0xac>
  {
    /* USER CODE BEGIN SPI3_MspInit 0 */

    /* USER CODE END SPI3_MspInit 0 */
    /* Peripheral clock enable */
    __HAL_RCC_SPI3_CLK_ENABLE();
 8000a8a:	4b25      	ldr	r3, [pc, #148]	@ (8000b20 <HAL_SPI_MspInit+0xb8>)
 8000a8c:	6d9b      	ldr	r3, [r3, #88]	@ 0x58
 8000a8e:	4a24      	ldr	r2, [pc, #144]	@ (8000b20 <HAL_SPI_MspInit+0xb8>)
 8000a90:	f443 4300 	orr.w	r3, r3, #32768	@ 0x8000
 8000a94:	6593      	str	r3, [r2, #88]	@ 0x58
 8000a96:	4b22      	ldr	r3, [pc, #136]	@ (8000b20 <HAL_SPI_MspInit+0xb8>)
 8000a98:	6d9b      	ldr	r3, [r3, #88]	@ 0x58
 8000a9a:	f403 4300 	and.w	r3, r3, #32768	@ 0x8000
 8000a9e:	613b      	str	r3, [r7, #16]
 8000aa0:	693b      	ldr	r3, [r7, #16]

    __HAL_RCC_GPIOC_CLK_ENABLE();
 8000aa2:	4b1f      	ldr	r3, [pc, #124]	@ (8000b20 <HAL_SPI_MspInit+0xb8>)
 8000aa4:	6cdb      	ldr	r3, [r3, #76]	@ 0x4c
 8000aa6:	4a1e      	ldr	r2, [pc, #120]	@ (8000b20 <HAL_SPI_MspInit+0xb8>)
 8000aa8:	f043 0304 	orr.w	r3, r3, #4
 8000aac:	64d3      	str	r3, [r2, #76]	@ 0x4c
 8000aae:	4b1c      	ldr	r3, [pc, #112]	@ (8000b20 <HAL_SPI_MspInit+0xb8>)
 8000ab0:	6cdb      	ldr	r3, [r3, #76]	@ 0x4c
 8000ab2:	f003 0304 	and.w	r3, r3, #4
 8000ab6:	60fb      	str	r3, [r7, #12]
 8000ab8:	68fb      	ldr	r3, [r7, #12]
    __HAL_RCC_GPIOB_CLK_ENABLE();
 8000aba:	4b19      	ldr	r3, [pc, #100]	@ (8000b20 <HAL_SPI_MspInit+0xb8>)
 8000abc:	6cdb      	ldr	r3, [r3, #76]	@ 0x4c
 8000abe:	4a18      	ldr	r2, [pc, #96]	@ (8000b20 <HAL_SPI_MspInit+0xb8>)
 8000ac0:	f043 0302 	orr.w	r3, r3, #2
 8000ac4:	64d3      	str	r3, [r2, #76]	@ 0x4c
 8000ac6:	4b16      	ldr	r3, [pc, #88]	@ (8000b20 <HAL_SPI_MspInit+0xb8>)
 8000ac8:	6cdb      	ldr	r3, [r3, #76]	@ 0x4c
 8000aca:	f003 0302 	and.w	r3, r3, #2
 8000ace:	60bb      	str	r3, [r7, #8]
 8000ad0:	68bb      	ldr	r3, [r7, #8]
    /**SPI3 GPIO Configuration
    PC10     ------> SPI3_SCK
    PB5     ------> SPI3_MOSI
    */
    GPIO_InitStruct.Pin = _595_SHCP_Pin;
 8000ad2:	f44f 6380 	mov.w	r3, #1024	@ 0x400
 8000ad6:	617b      	str	r3, [r7, #20]
    GPIO_InitStruct.Mode = GPIO_MODE_AF_PP;
 8000ad8:	2302      	movs	r3, #2
 8000ada:	61bb      	str	r3, [r7, #24]
    GPIO_InitStruct.Pull = GPIO_NOPULL;
 8000adc:	2300      	movs	r3, #0
 8000ade:	61fb      	str	r3, [r7, #28]
    GPIO_InitStruct.Speed = GPIO_SPEED_FREQ_VERY_HIGH;
 8000ae0:	2303      	movs	r3, #3
 8000ae2:	623b      	str	r3, [r7, #32]
    GPIO_InitStruct.Alternate = GPIO_AF6_SPI3;
 8000ae4:	2306      	movs	r3, #6
 8000ae6:	627b      	str	r3, [r7, #36]	@ 0x24
    HAL_GPIO_Init(_595_SHCP_GPIO_Port, &GPIO_InitStruct);
 8000ae8:	f107 0314 	add.w	r3, r7, #20
 8000aec:	4619      	mov	r1, r3
 8000aee:	480d      	ldr	r0, [pc, #52]	@ (8000b24 <HAL_SPI_MspInit+0xbc>)
 8000af0:	f000 fb16 	bl	8001120 <HAL_GPIO_Init>

    GPIO_InitStruct.Pin = _595_DS_Pin;
 8000af4:	2320      	movs	r3, #32
 8000af6:	617b      	str	r3, [r7, #20]
    GPIO_InitStruct.Mode = GPIO_MODE_AF_PP;
 8000af8:	2302      	movs	r3, #2
 8000afa:	61bb      	str	r3, [r7, #24]
    GPIO_InitStruct.Pull = GPIO_NOPULL;
 8000afc:	2300      	movs	r3, #0
 8000afe:	61fb      	str	r3, [r7, #28]
    GPIO_InitStruct.Speed = GPIO_SPEED_FREQ_VERY_HIGH;
 8000b00:	2303      	movs	r3, #3
 8000b02:	623b      	str	r3, [r7, #32]
    GPIO_InitStruct.Alternate = GPIO_AF6_SPI3;
 8000b04:	2306      	movs	r3, #6
 8000b06:	627b      	str	r3, [r7, #36]	@ 0x24
    HAL_GPIO_Init(_595_DS_GPIO_Port, &GPIO_InitStruct);
 8000b08:	f107 0314 	add.w	r3, r7, #20
 8000b0c:	4619      	mov	r1, r3
 8000b0e:	4806      	ldr	r0, [pc, #24]	@ (8000b28 <HAL_SPI_MspInit+0xc0>)
 8000b10:	f000 fb06 	bl	8001120 <HAL_GPIO_Init>

    /* USER CODE END SPI3_MspInit 1 */

  }

}
 8000b14:	bf00      	nop
 8000b16:	3728      	adds	r7, #40	@ 0x28
 8000b18:	46bd      	mov	sp, r7
 8000b1a:	bd80      	pop	{r7, pc}
 8000b1c:	40003c00 	.word	0x40003c00
 8000b20:	40021000 	.word	0x40021000
 8000b24:	48000800 	.word	0x48000800
 8000b28:	48000400 	.word	0x48000400

08000b2c <HAL_UART_MspInit>:
  * This function configures the hardware resources used in this example
  * @param huart: UART handle pointer
  * @retval None
  */
void HAL_UART_MspInit(UART_HandleTypeDef* huart)
{
 8000b2c:	b580      	push	{r7, lr}
 8000b2e:	b0ac      	sub	sp, #176	@ 0xb0
 8000b30:	af00      	add	r7, sp, #0
 8000b32:	6078      	str	r0, [r7, #4]
  GPIO_InitTypeDef GPIO_InitStruct = {0};
 8000b34:	f107 039c 	add.w	r3, r7, #156	@ 0x9c
 8000b38:	2200      	movs	r2, #0
 8000b3a:	601a      	str	r2, [r3, #0]
 8000b3c:	605a      	str	r2, [r3, #4]
 8000b3e:	609a      	str	r2, [r3, #8]
 8000b40:	60da      	str	r2, [r3, #12]
 8000b42:	611a      	str	r2, [r3, #16]
  RCC_PeriphCLKInitTypeDef PeriphClkInit = {0};
 8000b44:	f107 0314 	add.w	r3, r7, #20
 8000b48:	2288      	movs	r2, #136	@ 0x88
 8000b4a:	2100      	movs	r1, #0
 8000b4c:	4618      	mov	r0, r3
 8000b4e:	f003 f898 	bl	8003c82 <memset>
  if(huart->Instance==USART2)
 8000b52:	687b      	ldr	r3, [r7, #4]
 8000b54:	681b      	ldr	r3, [r3, #0]
 8000b56:	4a21      	ldr	r2, [pc, #132]	@ (8000bdc <HAL_UART_MspInit+0xb0>)
 8000b58:	4293      	cmp	r3, r2
 8000b5a:	d13b      	bne.n	8000bd4 <HAL_UART_MspInit+0xa8>

    /* USER CODE END USART2_MspInit 0 */

  /** Initializes the peripherals clock
  */
    PeriphClkInit.PeriphClockSelection = RCC_PERIPHCLK_USART2;
 8000b5c:	2302      	movs	r3, #2
 8000b5e:	617b      	str	r3, [r7, #20]
    PeriphClkInit.Usart2ClockSelection = RCC_USART2CLKSOURCE_PCLK1;
 8000b60:	2300      	movs	r3, #0
 8000b62:	653b      	str	r3, [r7, #80]	@ 0x50
    if (HAL_RCCEx_PeriphCLKConfig(&PeriphClkInit) != HAL_OK)
 8000b64:	f107 0314 	add.w	r3, r7, #20
 8000b68:	4618      	mov	r0, r3
 8000b6a:	f001 fb2f 	bl	80021cc <HAL_RCCEx_PeriphCLKConfig>
 8000b6e:	4603      	mov	r3, r0
 8000b70:	2b00      	cmp	r3, #0
 8000b72:	d001      	beq.n	8000b78 <HAL_UART_MspInit+0x4c>
    {
      Error_Handler();
 8000b74:	f7ff ff4e 	bl	8000a14 <Error_Handler>
    }

    /* Peripheral clock enable */
    __HAL_RCC_USART2_CLK_ENABLE();
 8000b78:	4b19      	ldr	r3, [pc, #100]	@ (8000be0 <HAL_UART_MspInit+0xb4>)
 8000b7a:	6d9b      	ldr	r3, [r3, #88]	@ 0x58
 8000b7c:	4a18      	ldr	r2, [pc, #96]	@ (8000be0 <HAL_UART_MspInit+0xb4>)
 8000b7e:	f443 3300 	orr.w	r3, r3, #131072	@ 0x20000
 8000b82:	6593      	str	r3, [r2, #88]	@ 0x58
 8000b84:	4b16      	ldr	r3, [pc, #88]	@ (8000be0 <HAL_UART_MspInit+0xb4>)
 8000b86:	6d9b      	ldr	r3, [r3, #88]	@ 0x58
 8000b88:	f403 3300 	and.w	r3, r3, #131072	@ 0x20000
 8000b8c:	613b      	str	r3, [r7, #16]
 8000b8e:	693b      	ldr	r3, [r7, #16]

    __HAL_RCC_GPIOA_CLK_ENABLE();
 8000b90:	4b13      	ldr	r3, [pc, #76]	@ (8000be0 <HAL_UART_MspInit+0xb4>)
 8000b92:	6cdb      	ldr	r3, [r3, #76]	@ 0x4c
 8000b94:	4a12      	ldr	r2, [pc, #72]	@ (8000be0 <HAL_UART_MspInit+0xb4>)
 8000b96:	f043 0301 	orr.w	r3, r3, #1
 8000b9a:	64d3      	str	r3, [r2, #76]	@ 0x4c
 8000b9c:	4b10      	ldr	r3, [pc, #64]	@ (8000be0 <HAL_UART_MspInit+0xb4>)
 8000b9e:	6cdb      	ldr	r3, [r3, #76]	@ 0x4c
 8000ba0:	f003 0301 	and.w	r3, r3, #1
 8000ba4:	60fb      	str	r3, [r7, #12]
 8000ba6:	68fb      	ldr	r3, [r7, #12]
    /**USART2 GPIO Configuration
    PA2     ------> USART2_TX
    PA3     ------> USART2_RX
    */
    GPIO_InitStruct.Pin = USART_TX_Pin|USART_RX_Pin;
 8000ba8:	230c      	movs	r3, #12
 8000baa:	f8c7 309c 	str.w	r3, [r7, #156]	@ 0x9c
    GPIO_InitStruct.Mode = GPIO_MODE_AF_PP;
 8000bae:	2302      	movs	r3, #2
 8000bb0:	f8c7 30a0 	str.w	r3, [r7, #160]	@ 0xa0
    GPIO_InitStruct.Pull = GPIO_NOPULL;
 8000bb4:	2300      	movs	r3, #0
 8000bb6:	f8c7 30a4 	str.w	r3, [r7, #164]	@ 0xa4
    GPIO_InitStruct.Speed = GPIO_SPEED_FREQ_VERY_HIGH;
 8000bba:	2303      	movs	r3, #3
 8000bbc:	f8c7 30a8 	str.w	r3, [r7, #168]	@ 0xa8
    GPIO_InitStruct.Alternate = GPIO_AF7_USART2;
 8000bc0:	2307      	movs	r3, #7
 8000bc2:	f8c7 30ac 	str.w	r3, [r7, #172]	@ 0xac
    HAL_GPIO_Init(GPIOA, &GPIO_InitStruct);
 8000bc6:	f107 039c 	add.w	r3, r7, #156	@ 0x9c
 8000bca:	4619      	mov	r1, r3
 8000bcc:	f04f 4090 	mov.w	r0, #1207959552	@ 0x48000000
 8000bd0:	f000 faa6 	bl	8001120 <HAL_GPIO_Init>

    /* USER CODE END USART2_MspInit 1 */

  }

}
 8000bd4:	bf00      	nop
 8000bd6:	37b0      	adds	r7, #176	@ 0xb0
 8000bd8:	46bd      	mov	sp, r7
 8000bda:	bd80      	pop	{r7, pc}
 8000bdc:	40004400 	.word	0x40004400
 8000be0:	40021000 	.word	0x40021000

08000be4 <NMI_Handler>:
/******************************************************************************/
/**
  * @brief This function handles Non maskable interrupt.
  */
void NMI_Handler(void)
{
 8000be4:	b480      	push	{r7}
 8000be6:	af00      	add	r7, sp, #0
  /* USER CODE BEGIN NonMaskableInt_IRQn 0 */

  /* USER CODE END NonMaskableInt_IRQn 0 */
  /* USER CODE BEGIN NonMaskableInt_IRQn 1 */
   while (1)
 8000be8:	bf00      	nop
 8000bea:	e7fd      	b.n	8000be8 <NMI_Handler+0x4>

08000bec <HardFault_Handler>:

/**
  * @brief This function handles Hard fault interrupt.
  */
void HardFault_Handler(void)
{
 8000bec:	b480      	push	{r7}
 8000bee:	af00      	add	r7, sp, #0
  /* USER CODE BEGIN HardFault_IRQn 0 */

  /* USER CODE END HardFault_IRQn 0 */
  while (1)
 8000bf0:	bf00      	nop
 8000bf2:	e7fd      	b.n	8000bf0 <HardFault_Handler+0x4>

08000bf4 <MemManage_Handler>:

/**
  * @brief This function handles Memory management fault.
  */
void MemManage_Handler(void)
{
 8000bf4:	b480      	push	{r7}
 8000bf6:	af00      	add	r7, sp, #0
  /* USER CODE BEGIN MemoryManagement_IRQn 0 */

  /* USER CODE END MemoryManagement_IRQn 0 */
  while (1)
 8000bf8:	bf00      	nop
 8000bfa:	e7fd      	b.n	8000bf8 <MemManage_Handler+0x4>

08000bfc <BusFault_Handler>:

/**
  * @brief This function handles Prefetch fault, memory access fault.
  */
void BusFault_Handler(void)
{
 8000bfc:	b480      	push	{r7}
 8000bfe:	af00      	add	r7, sp, #0
  /* USER CODE BEGIN BusFault_IRQn 0 */

  /* USER CODE END BusFault_IRQn 0 */
  while (1)
 8000c00:	bf00      	nop
 8000c02:	e7fd      	b.n	8000c00 <BusFault_Handler+0x4>

08000c04 <UsageFault_Handler>:

/**
  * @brief This function handles Undefined instruction or illegal state.
  */
void UsageFault_Handler(void)
{
 8000c04:	b480      	push	{r7}
 8000c06:	af00      	add	r7, sp, #0
  /* USER CODE BEGIN UsageFault_IRQn 0 */

  /* USER CODE END UsageFault_IRQn 0 */
  while (1)
 8000c08:	bf00      	nop
 8000c0a:	e7fd      	b.n	8000c08 <UsageFault_Handler+0x4>

08000c0c <SVC_Handler>:

/**
  * @brief This function handles System service call via SWI instruction.
  */
void SVC_Handler(void)
{
 8000c0c:	b480      	push	{r7}
 8000c0e:	af00      	add	r7, sp, #0

  /* USER CODE END SVCall_IRQn 0 */
  /* USER CODE BEGIN SVCall_IRQn 1 */

  /* USER CODE END SVCall_IRQn 1 */
}
 8000c10:	bf00      	nop
 8000c12:	46bd      	mov	sp, r7
 8000c14:	f85d 7b04 	ldr.w	r7, [sp], #4
 8000c18:	4770      	bx	lr

08000c1a <DebugMon_Handler>:

/**
  * @brief This function handles Debug monitor.
  */
void DebugMon_Handler(void)
{
 8000c1a:	b480      	push	{r7}
 8000c1c:	af00      	add	r7, sp, #0

  /* USER CODE END DebugMonitor_IRQn 0 */
  /* USER CODE BEGIN DebugMonitor_IRQn 1 */

  /* USER CODE END DebugMonitor_IRQn 1 */
}
 8000c1e:	bf00      	nop
 8000c20:	46bd      	mov	sp, r7
 8000c22:	f85d 7b04 	ldr.w	r7, [sp], #4
 8000c26:	4770      	bx	lr

08000c28 <PendSV_Handler>:

/**
  * @brief This function handles Pendable request for system service.
  */
void PendSV_Handler(void)
{
 8000c28:	b480      	push	{r7}
 8000c2a:	af00      	add	r7, sp, #0

  /* USER CODE END PendSV_IRQn 0 */
  /* USER CODE BEGIN PendSV_IRQn 1 */

  /* USER CODE END PendSV_IRQn 1 */
}
 8000c2c:	bf00      	nop
 8000c2e:	46bd      	mov	sp, r7
 8000c30:	f85d 7b04 	ldr.w	r7, [sp], #4
 8000c34:	4770      	bx	lr

08000c36 <SysTick_Handler>:

/**
  * @brief This function handles System tick timer.
  */
void SysTick_Handler(void)
{
 8000c36:	b580      	push	{r7, lr}
 8000c38:	af00      	add	r7, sp, #0
  /* USER CODE BEGIN SysTick_IRQn 0 */

  /* USER CODE END SysTick_IRQn 0 */
  HAL_IncTick();
 8000c3a:	f000 f91b 	bl	8000e74 <HAL_IncTick>
  /* USER CODE BEGIN SysTick_IRQn 1 */

  /* USER CODE END SysTick_IRQn 1 */
}
 8000c3e:	bf00      	nop
 8000c40:	bd80      	pop	{r7, pc}

08000c42 <EXTI4_IRQHandler>:

/**
  * @brief This function handles EXTI line4 interrupt.
  */
void EXTI4_IRQHandler(void)
{
 8000c42:	b580      	push	{r7, lr}
 8000c44:	af00      	add	r7, sp, #0
  /* USER CODE BEGIN EXTI4_IRQn 0 */

  /* USER CODE END EXTI4_IRQn 0 */
  HAL_GPIO_EXTI_IRQHandler(TL1_Car_Pin);
 8000c46:	2010      	movs	r0, #16
 8000c48:	f000 fc44 	bl	80014d4 <HAL_GPIO_EXTI_IRQHandler>
  /* USER CODE BEGIN EXTI4_IRQn 1 */

  /* USER CODE END EXTI4_IRQn 1 */
}
 8000c4c:	bf00      	nop
 8000c4e:	bd80      	pop	{r7, pc}

08000c50 <EXTI9_5_IRQHandler>:

/**
  * @brief This function handles EXTI line[9:5] interrupts.
  */
void EXTI9_5_IRQHandler(void)
{
 8000c50:	b580      	push	{r7, lr}
 8000c52:	af00      	add	r7, sp, #0
  /* USER CODE BEGIN EXTI9_5_IRQn 0 */

  /* USER CODE END EXTI9_5_IRQn 0 */
  HAL_GPIO_EXTI_IRQHandler(PL2_Switch_Pin);
 8000c54:	2080      	movs	r0, #128	@ 0x80
 8000c56:	f000 fc3d 	bl	80014d4 <HAL_GPIO_EXTI_IRQHandler>
  /* USER CODE BEGIN EXTI9_5_IRQn 1 */

  /* USER CODE END EXTI9_5_IRQn 1 */
}
 8000c5a:	bf00      	nop
 8000c5c:	bd80      	pop	{r7, pc}

08000c5e <EXTI15_10_IRQHandler>:

/**
  * @brief This function handles EXTI line[15:10] interrupts.
  */
void EXTI15_10_IRQHandler(void)
{
 8000c5e:	b580      	push	{r7, lr}
 8000c60:	af00      	add	r7, sp, #0
  /* USER CODE BEGIN EXTI15_10_IRQn 0 */

  /* USER CODE END EXTI15_10_IRQn 0 */
  HAL_GPIO_EXTI_IRQHandler(TL4_Car_Pin);
 8000c62:	f44f 6080 	mov.w	r0, #1024	@ 0x400
 8000c66:	f000 fc35 	bl	80014d4 <HAL_GPIO_EXTI_IRQHandler>
  HAL_GPIO_EXTI_IRQHandler(TL2_Car_Pin);
 8000c6a:	f44f 5000 	mov.w	r0, #8192	@ 0x2000
 8000c6e:	f000 fc31 	bl	80014d4 <HAL_GPIO_EXTI_IRQHandler>
  HAL_GPIO_EXTI_IRQHandler(TL3_Car_Pin);
 8000c72:	f44f 4080 	mov.w	r0, #16384	@ 0x4000
 8000c76:	f000 fc2d 	bl	80014d4 <HAL_GPIO_EXTI_IRQHandler>
  HAL_GPIO_EXTI_IRQHandler(PL1_Switch_Pin);
 8000c7a:	f44f 4000 	mov.w	r0, #32768	@ 0x8000
 8000c7e:	f000 fc29 	bl	80014d4 <HAL_GPIO_EXTI_IRQHandler>
  /* USER CODE BEGIN EXTI15_10_IRQn 1 */

  /* USER CODE END EXTI15_10_IRQn 1 */
}
 8000c82:	bf00      	nop
 8000c84:	bd80      	pop	{r7, pc}
	...

08000c88 <SystemInit>:
  * @brief  Setup the microcontroller system.
  * @retval None
  */

void SystemInit(void)
{
 8000c88:	b480      	push	{r7}
 8000c8a:	af00      	add	r7, sp, #0
  SCB->VTOR = VECT_TAB_BASE_ADDRESS | VECT_TAB_OFFSET;
#endif

  /* FPU settings ------------------------------------------------------------*/
#if (__FPU_PRESENT == 1) && (__FPU_USED == 1)
  SCB->CPACR |= ((3UL << 20U)|(3UL << 22U));  /* set CP10 and CP11 Full Access */
 8000c8c:	4b06      	ldr	r3, [pc, #24]	@ (8000ca8 <SystemInit+0x20>)
 8000c8e:	f8d3 3088 	ldr.w	r3, [r3, #136]	@ 0x88
 8000c92:	4a05      	ldr	r2, [pc, #20]	@ (8000ca8 <SystemInit+0x20>)
 8000c94:	f443 0370 	orr.w	r3, r3, #15728640	@ 0xf00000
 8000c98:	f8c2 3088 	str.w	r3, [r2, #136]	@ 0x88
#endif
}
 8000c9c:	bf00      	nop
 8000c9e:	46bd      	mov	sp, r7
 8000ca0:	f85d 7b04 	ldr.w	r7, [sp], #4
 8000ca4:	4770      	bx	lr
 8000ca6:	bf00      	nop
 8000ca8:	e000ed00 	.word	0xe000ed00

08000cac <test_led_state3>:
		HAL_Delay(1000);

	}
}

void test_led_state3(){
 8000cac:	b580      	push	{r7, lr}
 8000cae:	af00      	add	r7, sp, #0

	while(1){
		SPIshow_state(V_G);
 8000cb0:	4823      	ldr	r0, [pc, #140]	@ (8000d40 <test_led_state3+0x94>)
 8000cb2:	f7ff fcdb 	bl	800066c <SPIshow_state>
		HAL_Delay(1000);
 8000cb6:	f44f 707a 	mov.w	r0, #1000	@ 0x3e8
 8000cba:	f000 f8fb 	bl	8000eb4 <HAL_Delay>
		SPIshow_state(V_G_pending_0);
 8000cbe:	4821      	ldr	r0, [pc, #132]	@ (8000d44 <test_led_state3+0x98>)
 8000cc0:	f7ff fcd4 	bl	800066c <SPIshow_state>
		HAL_Delay(1000);
 8000cc4:	f44f 707a 	mov.w	r0, #1000	@ 0x3e8
 8000cc8:	f000 f8f4 	bl	8000eb4 <HAL_Delay>
		SPIshow_state(V_G_pending_1);
 8000ccc:	481e      	ldr	r0, [pc, #120]	@ (8000d48 <test_led_state3+0x9c>)
 8000cce:	f7ff fccd 	bl	800066c <SPIshow_state>
		HAL_Delay(1000);
 8000cd2:	f44f 707a 	mov.w	r0, #1000	@ 0x3e8
 8000cd6:	f000 f8ed 	bl	8000eb4 <HAL_Delay>
		SPIshow_state(V_O_pending_0);
 8000cda:	481c      	ldr	r0, [pc, #112]	@ (8000d4c <test_led_state3+0xa0>)
 8000cdc:	f7ff fcc6 	bl	800066c <SPIshow_state>
		HAL_Delay(1000);
 8000ce0:	f44f 707a 	mov.w	r0, #1000	@ 0x3e8
 8000ce4:	f000 f8e6 	bl	8000eb4 <HAL_Delay>
		SPIshow_state(V_O_pending_1);
 8000ce8:	4819      	ldr	r0, [pc, #100]	@ (8000d50 <test_led_state3+0xa4>)
 8000cea:	f7ff fcbf 	bl	800066c <SPIshow_state>
		HAL_Delay(1000);
 8000cee:	f44f 707a 	mov.w	r0, #1000	@ 0x3e8
 8000cf2:	f000 f8df 	bl	8000eb4 <HAL_Delay>
		SPIshow_state(H_G);
 8000cf6:	4817      	ldr	r0, [pc, #92]	@ (8000d54 <test_led_state3+0xa8>)
 8000cf8:	f7ff fcb8 	bl	800066c <SPIshow_state>
		HAL_Delay(1000);
 8000cfc:	f44f 707a 	mov.w	r0, #1000	@ 0x3e8
 8000d00:	f000 f8d8 	bl	8000eb4 <HAL_Delay>
		SPIshow_state(H_G_pending_0);
 8000d04:	4814      	ldr	r0, [pc, #80]	@ (8000d58 <test_led_state3+0xac>)
 8000d06:	f7ff fcb1 	bl	800066c <SPIshow_state>
		HAL_Delay(1000);
 8000d0a:	f44f 707a 	mov.w	r0, #1000	@ 0x3e8
 8000d0e:	f000 f8d1 	bl	8000eb4 <HAL_Delay>
		SPIshow_state(H_G_pending_1);
 8000d12:	4812      	ldr	r0, [pc, #72]	@ (8000d5c <test_led_state3+0xb0>)
 8000d14:	f7ff fcaa 	bl	800066c <SPIshow_state>
		HAL_Delay(1000);
 8000d18:	f44f 707a 	mov.w	r0, #1000	@ 0x3e8
 8000d1c:	f000 f8ca 	bl	8000eb4 <HAL_Delay>
		SPIshow_state(H_O_pending_0);
 8000d20:	480f      	ldr	r0, [pc, #60]	@ (8000d60 <test_led_state3+0xb4>)
 8000d22:	f7ff fca3 	bl	800066c <SPIshow_state>
		HAL_Delay(1000);
 8000d26:	f44f 707a 	mov.w	r0, #1000	@ 0x3e8
 8000d2a:	f000 f8c3 	bl	8000eb4 <HAL_Delay>
		SPIshow_state(H_O_pending_1);
 8000d2e:	480d      	ldr	r0, [pc, #52]	@ (8000d64 <test_led_state3+0xb8>)
 8000d30:	f7ff fc9c 	bl	800066c <SPIshow_state>
		HAL_Delay(1000);
 8000d34:	f44f 707a 	mov.w	r0, #1000	@ 0x3e8
 8000d38:	f000 f8bc 	bl	8000eb4 <HAL_Delay>
		SPIshow_state(V_G);
 8000d3c:	bf00      	nop
 8000d3e:	e7b7      	b.n	8000cb0 <test_led_state3+0x4>
 8000d40:	20000000 	.word	0x20000000
 8000d44:	20000004 	.word	0x20000004
 8000d48:	20000008 	.word	0x20000008
 8000d4c:	2000000c 	.word	0x2000000c
 8000d50:	20000010 	.word	0x20000010
 8000d54:	20000014 	.word	0x20000014
 8000d58:	20000018 	.word	0x20000018
 8000d5c:	2000001c 	.word	0x2000001c
 8000d60:	20000020 	.word	0x20000020
 8000d64:	20000024 	.word	0x20000024

08000d68 <Reset_Handler>:

    .section	.text.Reset_Handler
	.weak	Reset_Handler
	.type	Reset_Handler, %function
Reset_Handler:
  ldr   sp, =_estack    /* Set stack pointer */
 8000d68:	f8df d034 	ldr.w	sp, [pc, #52]	@ 8000da0 <LoopForever+0x2>

/* Call the clock system initialization function.*/
    bl  SystemInit
 8000d6c:	f7ff ff8c 	bl	8000c88 <SystemInit>

/* Copy the data segment initializers from flash to SRAM */
  ldr r0, =_sdata
 8000d70:	480c      	ldr	r0, [pc, #48]	@ (8000da4 <LoopForever+0x6>)
  ldr r1, =_edata
 8000d72:	490d      	ldr	r1, [pc, #52]	@ (8000da8 <LoopForever+0xa>)
  ldr r2, =_sidata
 8000d74:	4a0d      	ldr	r2, [pc, #52]	@ (8000dac <LoopForever+0xe>)
  movs r3, #0
 8000d76:	2300      	movs	r3, #0
  b LoopCopyDataInit
 8000d78:	e002      	b.n	8000d80 <LoopCopyDataInit>

08000d7a <CopyDataInit>:

CopyDataInit:
  ldr r4, [r2, r3]
 8000d7a:	58d4      	ldr	r4, [r2, r3]
  str r4, [r0, r3]
 8000d7c:	50c4      	str	r4, [r0, r3]
  adds r3, r3, #4
 8000d7e:	3304      	adds	r3, #4

08000d80 <LoopCopyDataInit>:

LoopCopyDataInit:
  adds r4, r0, r3
 8000d80:	18c4      	adds	r4, r0, r3
  cmp r4, r1
 8000d82:	428c      	cmp	r4, r1
  bcc CopyDataInit
 8000d84:	d3f9      	bcc.n	8000d7a <CopyDataInit>
  
/* Zero fill the bss segment. */
  ldr r2, =_sbss
 8000d86:	4a0a      	ldr	r2, [pc, #40]	@ (8000db0 <LoopForever+0x12>)
  ldr r4, =_ebss
 8000d88:	4c0a      	ldr	r4, [pc, #40]	@ (8000db4 <LoopForever+0x16>)
  movs r3, #0
 8000d8a:	2300      	movs	r3, #0
  b LoopFillZerobss
 8000d8c:	e001      	b.n	8000d92 <LoopFillZerobss>

08000d8e <FillZerobss>:

FillZerobss:
  str  r3, [r2]
 8000d8e:	6013      	str	r3, [r2, #0]
  adds r2, r2, #4
 8000d90:	3204      	adds	r2, #4

08000d92 <LoopFillZerobss>:

LoopFillZerobss:
  cmp r2, r4
 8000d92:	42a2      	cmp	r2, r4
  bcc FillZerobss
 8000d94:	d3fb      	bcc.n	8000d8e <FillZerobss>

/* Call static constructors */
    bl __libc_init_array
 8000d96:	f002 ff7d 	bl	8003c94 <__libc_init_array>
/* Call the application's entry point.*/
	bl	main
 8000d9a:	f7ff fc85 	bl	80006a8 <main>

08000d9e <LoopForever>:

LoopForever:
    b LoopForever
 8000d9e:	e7fe      	b.n	8000d9e <LoopForever>
  ldr   sp, =_estack    /* Set stack pointer */
 8000da0:	20018000 	.word	0x20018000
  ldr r0, =_sdata
 8000da4:	20000000 	.word	0x20000000
  ldr r1, =_edata
 8000da8:	20000034 	.word	0x20000034
  ldr r2, =_sidata
 8000dac:	08003d4c 	.word	0x08003d4c
  ldr r2, =_sbss
 8000db0:	20000034 	.word	0x20000034
  ldr r4, =_ebss
 8000db4:	20000150 	.word	0x20000150

08000db8 <ADC1_2_IRQHandler>:
 * @retval : None
*/
    .section	.text.Default_Handler,"ax",%progbits
Default_Handler:
Infinite_Loop:
	b	Infinite_Loop
 8000db8:	e7fe      	b.n	8000db8 <ADC1_2_IRQHandler>
	...

08000dbc <HAL_Init>:
  *         each 1ms in the SysTick_Handler() interrupt handler.
  *
  * @retval HAL status
  */
HAL_StatusTypeDef HAL_Init(void)
{
 8000dbc:	b580      	push	{r7, lr}
 8000dbe:	b082      	sub	sp, #8
 8000dc0:	af00      	add	r7, sp, #0
  HAL_StatusTypeDef  status = HAL_OK;
 8000dc2:	2300      	movs	r3, #0
 8000dc4:	71fb      	strb	r3, [r7, #7]
#if (DATA_CACHE_ENABLE == 0)
   __HAL_FLASH_DATA_CACHE_DISABLE();
#endif /* DATA_CACHE_ENABLE */

#if (PREFETCH_ENABLE != 0)
  __HAL_FLASH_PREFETCH_BUFFER_ENABLE();
 8000dc6:	4b0c      	ldr	r3, [pc, #48]	@ (8000df8 <HAL_Init+0x3c>)
 8000dc8:	681b      	ldr	r3, [r3, #0]
 8000dca:	4a0b      	ldr	r2, [pc, #44]	@ (8000df8 <HAL_Init+0x3c>)
 8000dcc:	f443 7380 	orr.w	r3, r3, #256	@ 0x100
 8000dd0:	6013      	str	r3, [r2, #0]
#endif /* PREFETCH_ENABLE */

  /* Set Interrupt Group Priority */
  HAL_NVIC_SetPriorityGrouping(NVIC_PRIORITYGROUP_4);
 8000dd2:	2003      	movs	r0, #3
 8000dd4:	f000 f962 	bl	800109c <HAL_NVIC_SetPriorityGrouping>

  /* Use SysTick as time base source and configure 1ms tick (default clock after Reset is MSI) */
  if (HAL_InitTick(TICK_INT_PRIORITY) != HAL_OK)
 8000dd8:	2000      	movs	r0, #0
 8000dda:	f000 f80f 	bl	8000dfc <HAL_InitTick>
 8000dde:	4603      	mov	r3, r0
 8000de0:	2b00      	cmp	r3, #0
 8000de2:	d002      	beq.n	8000dea <HAL_Init+0x2e>
  {
    status = HAL_ERROR;
 8000de4:	2301      	movs	r3, #1
 8000de6:	71fb      	strb	r3, [r7, #7]
 8000de8:	e001      	b.n	8000dee <HAL_Init+0x32>
  }
  else
  {
    /* Init the low level hardware */
    HAL_MspInit();
 8000dea:	f7ff fe19 	bl	8000a20 <HAL_MspInit>
  }

  /* Return function status */
  return status;
 8000dee:	79fb      	ldrb	r3, [r7, #7]
}
 8000df0:	4618      	mov	r0, r3
 8000df2:	3708      	adds	r7, #8
 8000df4:	46bd      	mov	sp, r7
 8000df6:	bd80      	pop	{r7, pc}
 8000df8:	40022000 	.word	0x40022000

08000dfc <HAL_InitTick>:
  *       implementation  in user file.
  * @param TickPriority  Tick interrupt priority.
  * @retval HAL status
  */
__weak HAL_StatusTypeDef HAL_InitTick(uint32_t TickPriority)
{
 8000dfc:	b580      	push	{r7, lr}
 8000dfe:	b084      	sub	sp, #16
 8000e00:	af00      	add	r7, sp, #0
 8000e02:	6078      	str	r0, [r7, #4]
  HAL_StatusTypeDef  status = HAL_OK;
 8000e04:	2300      	movs	r3, #0
 8000e06:	73fb      	strb	r3, [r7, #15]

  /* Check uwTickFreq for MisraC 2012 (even if uwTickFreq is a enum type that doesn't take the value zero)*/
  if ((uint32_t)uwTickFreq != 0U)
 8000e08:	4b17      	ldr	r3, [pc, #92]	@ (8000e68 <HAL_InitTick+0x6c>)
 8000e0a:	781b      	ldrb	r3, [r3, #0]
 8000e0c:	2b00      	cmp	r3, #0
 8000e0e:	d023      	beq.n	8000e58 <HAL_InitTick+0x5c>
  {
    /*Configure the SysTick to have interrupt in 1ms time basis*/
    if (HAL_SYSTICK_Config(SystemCoreClock / (1000U / (uint32_t)uwTickFreq)) == 0U)
 8000e10:	4b16      	ldr	r3, [pc, #88]	@ (8000e6c <HAL_InitTick+0x70>)
 8000e12:	681a      	ldr	r2, [r3, #0]
 8000e14:	4b14      	ldr	r3, [pc, #80]	@ (8000e68 <HAL_InitTick+0x6c>)
 8000e16:	781b      	ldrb	r3, [r3, #0]
 8000e18:	4619      	mov	r1, r3
 8000e1a:	f44f 737a 	mov.w	r3, #1000	@ 0x3e8
 8000e1e:	fbb3 f3f1 	udiv	r3, r3, r1
 8000e22:	fbb2 f3f3 	udiv	r3, r2, r3
 8000e26:	4618      	mov	r0, r3
 8000e28:	f000 f96d 	bl	8001106 <HAL_SYSTICK_Config>
 8000e2c:	4603      	mov	r3, r0
 8000e2e:	2b00      	cmp	r3, #0
 8000e30:	d10f      	bne.n	8000e52 <HAL_InitTick+0x56>
    {
      /* Configure the SysTick IRQ priority */
      if (TickPriority < (1UL << __NVIC_PRIO_BITS))
 8000e32:	687b      	ldr	r3, [r7, #4]
 8000e34:	2b0f      	cmp	r3, #15
 8000e36:	d809      	bhi.n	8000e4c <HAL_InitTick+0x50>
      {
        HAL_NVIC_SetPriority(SysTick_IRQn, TickPriority, 0U);
 8000e38:	2200      	movs	r2, #0
 8000e3a:	6879      	ldr	r1, [r7, #4]
 8000e3c:	f04f 30ff 	mov.w	r0, #4294967295
 8000e40:	f000 f937 	bl	80010b2 <HAL_NVIC_SetPriority>
        uwTickPrio = TickPriority;
 8000e44:	4a0a      	ldr	r2, [pc, #40]	@ (8000e70 <HAL_InitTick+0x74>)
 8000e46:	687b      	ldr	r3, [r7, #4]
 8000e48:	6013      	str	r3, [r2, #0]
 8000e4a:	e007      	b.n	8000e5c <HAL_InitTick+0x60>
      }
      else
      {
        status = HAL_ERROR;
 8000e4c:	2301      	movs	r3, #1
 8000e4e:	73fb      	strb	r3, [r7, #15]
 8000e50:	e004      	b.n	8000e5c <HAL_InitTick+0x60>
      }
    }
    else
    {
      status = HAL_ERROR;
 8000e52:	2301      	movs	r3, #1
 8000e54:	73fb      	strb	r3, [r7, #15]
 8000e56:	e001      	b.n	8000e5c <HAL_InitTick+0x60>
    }
  }
  else
  {
    status = HAL_ERROR;
 8000e58:	2301      	movs	r3, #1
 8000e5a:	73fb      	strb	r3, [r7, #15]
  }

  /* Return function status */
  return status;
 8000e5c:	7bfb      	ldrb	r3, [r7, #15]
}
 8000e5e:	4618      	mov	r0, r3
 8000e60:	3710      	adds	r7, #16
 8000e62:	46bd      	mov	sp, r7
 8000e64:	bd80      	pop	{r7, pc}
 8000e66:	bf00      	nop
 8000e68:	20000030 	.word	0x20000030
 8000e6c:	20000028 	.word	0x20000028
 8000e70:	2000002c 	.word	0x2000002c

08000e74 <HAL_IncTick>:
 * @note This function is declared as __weak to be overwritten in case of other
  *      implementations in user file.
  * @retval None
  */
__weak void HAL_IncTick(void)
{
 8000e74:	b480      	push	{r7}
 8000e76:	af00      	add	r7, sp, #0
  uwTick += (uint32_t)uwTickFreq;
 8000e78:	4b06      	ldr	r3, [pc, #24]	@ (8000e94 <HAL_IncTick+0x20>)
 8000e7a:	781b      	ldrb	r3, [r3, #0]
 8000e7c:	461a      	mov	r2, r3
 8000e7e:	4b06      	ldr	r3, [pc, #24]	@ (8000e98 <HAL_IncTick+0x24>)
 8000e80:	681b      	ldr	r3, [r3, #0]
 8000e82:	4413      	add	r3, r2
 8000e84:	4a04      	ldr	r2, [pc, #16]	@ (8000e98 <HAL_IncTick+0x24>)
 8000e86:	6013      	str	r3, [r2, #0]
}
 8000e88:	bf00      	nop
 8000e8a:	46bd      	mov	sp, r7
 8000e8c:	f85d 7b04 	ldr.w	r7, [sp], #4
 8000e90:	4770      	bx	lr
 8000e92:	bf00      	nop
 8000e94:	20000030 	.word	0x20000030
 8000e98:	2000014c 	.word	0x2000014c

08000e9c <HAL_GetTick>:
  * @note This function is declared as __weak to be overwritten in case of other
  *       implementations in user file.
  * @retval tick value
  */
__weak uint32_t HAL_GetTick(void)
{
 8000e9c:	b480      	push	{r7}
 8000e9e:	af00      	add	r7, sp, #0
  return uwTick;
 8000ea0:	4b03      	ldr	r3, [pc, #12]	@ (8000eb0 <HAL_GetTick+0x14>)
 8000ea2:	681b      	ldr	r3, [r3, #0]
}
 8000ea4:	4618      	mov	r0, r3
 8000ea6:	46bd      	mov	sp, r7
 8000ea8:	f85d 7b04 	ldr.w	r7, [sp], #4
 8000eac:	4770      	bx	lr
 8000eae:	bf00      	nop
 8000eb0:	2000014c 	.word	0x2000014c

08000eb4 <HAL_Delay>:
  *       implementations in user file.
  * @param Delay  specifies the delay time length, in milliseconds.
  * @retval None
  */
__weak void HAL_Delay(uint32_t Delay)
{
 8000eb4:	b580      	push	{r7, lr}
 8000eb6:	b084      	sub	sp, #16
 8000eb8:	af00      	add	r7, sp, #0
 8000eba:	6078      	str	r0, [r7, #4]
  uint32_t tickstart = HAL_GetTick();
 8000ebc:	f7ff ffee 	bl	8000e9c <HAL_GetTick>
 8000ec0:	60b8      	str	r0, [r7, #8]
  uint32_t wait = Delay;
 8000ec2:	687b      	ldr	r3, [r7, #4]
 8000ec4:	60fb      	str	r3, [r7, #12]

  /* Add a period to guaranty minimum wait */
  if (wait < HAL_MAX_DELAY)
 8000ec6:	68fb      	ldr	r3, [r7, #12]
 8000ec8:	f1b3 3fff 	cmp.w	r3, #4294967295
 8000ecc:	d005      	beq.n	8000eda <HAL_Delay+0x26>
  {
    wait += (uint32_t)uwTickFreq;
 8000ece:	4b0a      	ldr	r3, [pc, #40]	@ (8000ef8 <HAL_Delay+0x44>)
 8000ed0:	781b      	ldrb	r3, [r3, #0]
 8000ed2:	461a      	mov	r2, r3
 8000ed4:	68fb      	ldr	r3, [r7, #12]
 8000ed6:	4413      	add	r3, r2
 8000ed8:	60fb      	str	r3, [r7, #12]
  }

  while ((HAL_GetTick() - tickstart) < wait)
 8000eda:	bf00      	nop
 8000edc:	f7ff ffde 	bl	8000e9c <HAL_GetTick>
 8000ee0:	4602      	mov	r2, r0
 8000ee2:	68bb      	ldr	r3, [r7, #8]
 8000ee4:	1ad3      	subs	r3, r2, r3
 8000ee6:	68fa      	ldr	r2, [r7, #12]
 8000ee8:	429a      	cmp	r2, r3
 8000eea:	d8f7      	bhi.n	8000edc <HAL_Delay+0x28>
  {
  }
}
 8000eec:	bf00      	nop
 8000eee:	bf00      	nop
 8000ef0:	3710      	adds	r7, #16
 8000ef2:	46bd      	mov	sp, r7
 8000ef4:	bd80      	pop	{r7, pc}
 8000ef6:	bf00      	nop
 8000ef8:	20000030 	.word	0x20000030

08000efc <__NVIC_SetPriorityGrouping>:
           In case of a conflict between priority grouping and available
           priority bits (__NVIC_PRIO_BITS), the smallest possible priority group is set.
  \param [in]      PriorityGroup  Priority grouping field.
 */
__STATIC_INLINE void __NVIC_SetPriorityGrouping(uint32_t PriorityGroup)
{
 8000efc:	b480      	push	{r7}
 8000efe:	b085      	sub	sp, #20
 8000f00:	af00      	add	r7, sp, #0
 8000f02:	6078      	str	r0, [r7, #4]
  uint32_t reg_value;
  uint32_t PriorityGroupTmp = (PriorityGroup & (uint32_t)0x07UL);             /* only values 0..7 are used          */
 8000f04:	687b      	ldr	r3, [r7, #4]
 8000f06:	f003 0307 	and.w	r3, r3, #7
 8000f0a:	60fb      	str	r3, [r7, #12]

  reg_value  =  SCB->AIRCR;                                                   /* read old register configuration    */
 8000f0c:	4b0c      	ldr	r3, [pc, #48]	@ (8000f40 <__NVIC_SetPriorityGrouping+0x44>)
 8000f0e:	68db      	ldr	r3, [r3, #12]
 8000f10:	60bb      	str	r3, [r7, #8]
  reg_value &= ~((uint32_t)(SCB_AIRCR_VECTKEY_Msk | SCB_AIRCR_PRIGROUP_Msk)); /* clear bits to change               */
 8000f12:	68ba      	ldr	r2, [r7, #8]
 8000f14:	f64f 03ff 	movw	r3, #63743	@ 0xf8ff
 8000f18:	4013      	ands	r3, r2
 8000f1a:	60bb      	str	r3, [r7, #8]
  reg_value  =  (reg_value                                   |
                ((uint32_t)0x5FAUL << SCB_AIRCR_VECTKEY_Pos) |
                (PriorityGroupTmp << SCB_AIRCR_PRIGROUP_Pos)  );              /* Insert write key and priority group */
 8000f1c:	68fb      	ldr	r3, [r7, #12]
 8000f1e:	021a      	lsls	r2, r3, #8
                ((uint32_t)0x5FAUL << SCB_AIRCR_VECTKEY_Pos) |
 8000f20:	68bb      	ldr	r3, [r7, #8]
 8000f22:	4313      	orrs	r3, r2
  reg_value  =  (reg_value                                   |
 8000f24:	f043 63bf 	orr.w	r3, r3, #100139008	@ 0x5f80000
 8000f28:	f443 3300 	orr.w	r3, r3, #131072	@ 0x20000
 8000f2c:	60bb      	str	r3, [r7, #8]
  SCB->AIRCR =  reg_value;
 8000f2e:	4a04      	ldr	r2, [pc, #16]	@ (8000f40 <__NVIC_SetPriorityGrouping+0x44>)
 8000f30:	68bb      	ldr	r3, [r7, #8]
 8000f32:	60d3      	str	r3, [r2, #12]
}
 8000f34:	bf00      	nop
 8000f36:	3714      	adds	r7, #20
 8000f38:	46bd      	mov	sp, r7
 8000f3a:	f85d 7b04 	ldr.w	r7, [sp], #4
 8000f3e:	4770      	bx	lr
 8000f40:	e000ed00 	.word	0xe000ed00

08000f44 <__NVIC_GetPriorityGrouping>:
  \brief   Get Priority Grouping
  \details Reads the priority grouping field from the NVIC Interrupt Controller.
  \return                Priority grouping field (SCB->AIRCR [10:8] PRIGROUP field).
 */
__STATIC_INLINE uint32_t __NVIC_GetPriorityGrouping(void)
{
 8000f44:	b480      	push	{r7}
 8000f46:	af00      	add	r7, sp, #0
  return ((uint32_t)((SCB->AIRCR & SCB_AIRCR_PRIGROUP_Msk) >> SCB_AIRCR_PRIGROUP_Pos));
 8000f48:	4b04      	ldr	r3, [pc, #16]	@ (8000f5c <__NVIC_GetPriorityGrouping+0x18>)
 8000f4a:	68db      	ldr	r3, [r3, #12]
 8000f4c:	0a1b      	lsrs	r3, r3, #8
 8000f4e:	f003 0307 	and.w	r3, r3, #7
}
 8000f52:	4618      	mov	r0, r3
 8000f54:	46bd      	mov	sp, r7
 8000f56:	f85d 7b04 	ldr.w	r7, [sp], #4
 8000f5a:	4770      	bx	lr
 8000f5c:	e000ed00 	.word	0xe000ed00

08000f60 <__NVIC_EnableIRQ>:
  \details Enables a device specific interrupt in the NVIC interrupt controller.
  \param [in]      IRQn  Device specific interrupt number.
  \note    IRQn must not be negative.
 */
__STATIC_INLINE void __NVIC_EnableIRQ(IRQn_Type IRQn)
{
 8000f60:	b480      	push	{r7}
 8000f62:	b083      	sub	sp, #12
 8000f64:	af00      	add	r7, sp, #0
 8000f66:	4603      	mov	r3, r0
 8000f68:	71fb      	strb	r3, [r7, #7]
  if ((int32_t)(IRQn) >= 0)
 8000f6a:	f997 3007 	ldrsb.w	r3, [r7, #7]
 8000f6e:	2b00      	cmp	r3, #0
 8000f70:	db0b      	blt.n	8000f8a <__NVIC_EnableIRQ+0x2a>
  {
    __COMPILER_BARRIER();
    NVIC->ISER[(((uint32_t)IRQn) >> 5UL)] = (uint32_t)(1UL << (((uint32_t)IRQn) & 0x1FUL));
 8000f72:	79fb      	ldrb	r3, [r7, #7]
 8000f74:	f003 021f 	and.w	r2, r3, #31
 8000f78:	4907      	ldr	r1, [pc, #28]	@ (8000f98 <__NVIC_EnableIRQ+0x38>)
 8000f7a:	f997 3007 	ldrsb.w	r3, [r7, #7]
 8000f7e:	095b      	lsrs	r3, r3, #5
 8000f80:	2001      	movs	r0, #1
 8000f82:	fa00 f202 	lsl.w	r2, r0, r2
 8000f86:	f841 2023 	str.w	r2, [r1, r3, lsl #2]
    __COMPILER_BARRIER();
  }
}
 8000f8a:	bf00      	nop
 8000f8c:	370c      	adds	r7, #12
 8000f8e:	46bd      	mov	sp, r7
 8000f90:	f85d 7b04 	ldr.w	r7, [sp], #4
 8000f94:	4770      	bx	lr
 8000f96:	bf00      	nop
 8000f98:	e000e100 	.word	0xe000e100

08000f9c <__NVIC_SetPriority>:
  \param [in]      IRQn  Interrupt number.
  \param [in]  priority  Priority to set.
  \note    The priority cannot be set for every processor exception.
 */
__STATIC_INLINE void __NVIC_SetPriority(IRQn_Type IRQn, uint32_t priority)
{
 8000f9c:	b480      	push	{r7}
 8000f9e:	b083      	sub	sp, #12
 8000fa0:	af00      	add	r7, sp, #0
 8000fa2:	4603      	mov	r3, r0
 8000fa4:	6039      	str	r1, [r7, #0]
 8000fa6:	71fb      	strb	r3, [r7, #7]
  if ((int32_t)(IRQn) >= 0)
 8000fa8:	f997 3007 	ldrsb.w	r3, [r7, #7]
 8000fac:	2b00      	cmp	r3, #0
 8000fae:	db0a      	blt.n	8000fc6 <__NVIC_SetPriority+0x2a>
  {
    NVIC->IP[((uint32_t)IRQn)]               = (uint8_t)((priority << (8U - __NVIC_PRIO_BITS)) & (uint32_t)0xFFUL);
 8000fb0:	683b      	ldr	r3, [r7, #0]
 8000fb2:	b2da      	uxtb	r2, r3
 8000fb4:	490c      	ldr	r1, [pc, #48]	@ (8000fe8 <__NVIC_SetPriority+0x4c>)
 8000fb6:	f997 3007 	ldrsb.w	r3, [r7, #7]
 8000fba:	0112      	lsls	r2, r2, #4
 8000fbc:	b2d2      	uxtb	r2, r2
 8000fbe:	440b      	add	r3, r1
 8000fc0:	f883 2300 	strb.w	r2, [r3, #768]	@ 0x300
  }
  else
  {
    SCB->SHP[(((uint32_t)IRQn) & 0xFUL)-4UL] = (uint8_t)((priority << (8U - __NVIC_PRIO_BITS)) & (uint32_t)0xFFUL);
  }
}
 8000fc4:	e00a      	b.n	8000fdc <__NVIC_SetPriority+0x40>
    SCB->SHP[(((uint32_t)IRQn) & 0xFUL)-4UL] = (uint8_t)((priority << (8U - __NVIC_PRIO_BITS)) & (uint32_t)0xFFUL);
 8000fc6:	683b      	ldr	r3, [r7, #0]
 8000fc8:	b2da      	uxtb	r2, r3
 8000fca:	4908      	ldr	r1, [pc, #32]	@ (8000fec <__NVIC_SetPriority+0x50>)
 8000fcc:	79fb      	ldrb	r3, [r7, #7]
 8000fce:	f003 030f 	and.w	r3, r3, #15
 8000fd2:	3b04      	subs	r3, #4
 8000fd4:	0112      	lsls	r2, r2, #4
 8000fd6:	b2d2      	uxtb	r2, r2
 8000fd8:	440b      	add	r3, r1
 8000fda:	761a      	strb	r2, [r3, #24]
}
 8000fdc:	bf00      	nop
 8000fde:	370c      	adds	r7, #12
 8000fe0:	46bd      	mov	sp, r7
 8000fe2:	f85d 7b04 	ldr.w	r7, [sp], #4
 8000fe6:	4770      	bx	lr
 8000fe8:	e000e100 	.word	0xe000e100
 8000fec:	e000ed00 	.word	0xe000ed00

08000ff0 <NVIC_EncodePriority>:
  \param [in]   PreemptPriority  Preemptive priority value (starting from 0).
  \param [in]       SubPriority  Subpriority value (starting from 0).
  \return                        Encoded priority. Value can be used in the function \ref NVIC_SetPriority().
 */
__STATIC_INLINE uint32_t NVIC_EncodePriority (uint32_t PriorityGroup, uint32_t PreemptPriority, uint32_t SubPriority)
{
 8000ff0:	b480      	push	{r7}
 8000ff2:	b089      	sub	sp, #36	@ 0x24
 8000ff4:	af00      	add	r7, sp, #0
 8000ff6:	60f8      	str	r0, [r7, #12]
 8000ff8:	60b9      	str	r1, [r7, #8]
 8000ffa:	607a      	str	r2, [r7, #4]
  uint32_t PriorityGroupTmp = (PriorityGroup & (uint32_t)0x07UL);   /* only values 0..7 are used          */
 8000ffc:	68fb      	ldr	r3, [r7, #12]
 8000ffe:	f003 0307 	and.w	r3, r3, #7
 8001002:	61fb      	str	r3, [r7, #28]
  uint32_t PreemptPriorityBits;
  uint32_t SubPriorityBits;

  PreemptPriorityBits = ((7UL - PriorityGroupTmp) > (uint32_t)(__NVIC_PRIO_BITS)) ? (uint32_t)(__NVIC_PRIO_BITS) : (uint32_t)(7UL - PriorityGroupTmp);
 8001004:	69fb      	ldr	r3, [r7, #28]
 8001006:	f1c3 0307 	rsb	r3, r3, #7
 800100a:	2b04      	cmp	r3, #4
 800100c:	bf28      	it	cs
 800100e:	2304      	movcs	r3, #4
 8001010:	61bb      	str	r3, [r7, #24]
  SubPriorityBits     = ((PriorityGroupTmp + (uint32_t)(__NVIC_PRIO_BITS)) < (uint32_t)7UL) ? (uint32_t)0UL : (uint32_t)((PriorityGroupTmp - 7UL) + (uint32_t)(__NVIC_PRIO_BITS));
 8001012:	69fb      	ldr	r3, [r7, #28]
 8001014:	3304      	adds	r3, #4
 8001016:	2b06      	cmp	r3, #6
 8001018:	d902      	bls.n	8001020 <NVIC_EncodePriority+0x30>
 800101a:	69fb      	ldr	r3, [r7, #28]
 800101c:	3b03      	subs	r3, #3
 800101e:	e000      	b.n	8001022 <NVIC_EncodePriority+0x32>
 8001020:	2300      	movs	r3, #0
 8001022:	617b      	str	r3, [r7, #20]

  return (
           ((PreemptPriority & (uint32_t)((1UL << (PreemptPriorityBits)) - 1UL)) << SubPriorityBits) |
 8001024:	f04f 32ff 	mov.w	r2, #4294967295
 8001028:	69bb      	ldr	r3, [r7, #24]
 800102a:	fa02 f303 	lsl.w	r3, r2, r3
 800102e:	43da      	mvns	r2, r3
 8001030:	68bb      	ldr	r3, [r7, #8]
 8001032:	401a      	ands	r2, r3
 8001034:	697b      	ldr	r3, [r7, #20]
 8001036:	409a      	lsls	r2, r3
           ((SubPriority     & (uint32_t)((1UL << (SubPriorityBits    )) - 1UL)))
 8001038:	f04f 31ff 	mov.w	r1, #4294967295
 800103c:	697b      	ldr	r3, [r7, #20]
 800103e:	fa01 f303 	lsl.w	r3, r1, r3
 8001042:	43d9      	mvns	r1, r3
 8001044:	687b      	ldr	r3, [r7, #4]
 8001046:	400b      	ands	r3, r1
           ((PreemptPriority & (uint32_t)((1UL << (PreemptPriorityBits)) - 1UL)) << SubPriorityBits) |
 8001048:	4313      	orrs	r3, r2
         );
}
 800104a:	4618      	mov	r0, r3
 800104c:	3724      	adds	r7, #36	@ 0x24
 800104e:	46bd      	mov	sp, r7
 8001050:	f85d 7b04 	ldr.w	r7, [sp], #4
 8001054:	4770      	bx	lr
	...

08001058 <SysTick_Config>:
  \note    When the variable <b>__Vendor_SysTickConfig</b> is set to 1, then the
           function <b>SysTick_Config</b> is not included. In this case, the file <b><i>device</i>.h</b>
           must contain a vendor-specific implementation of this function.
 */
__STATIC_INLINE uint32_t SysTick_Config(uint32_t ticks)
{
 8001058:	b580      	push	{r7, lr}
 800105a:	b082      	sub	sp, #8
 800105c:	af00      	add	r7, sp, #0
 800105e:	6078      	str	r0, [r7, #4]
  if ((ticks - 1UL) > SysTick_LOAD_RELOAD_Msk)
 8001060:	687b      	ldr	r3, [r7, #4]
 8001062:	3b01      	subs	r3, #1
 8001064:	f1b3 7f80 	cmp.w	r3, #16777216	@ 0x1000000
 8001068:	d301      	bcc.n	800106e <SysTick_Config+0x16>
  {
    return (1UL);                                                   /* Reload value impossible */
 800106a:	2301      	movs	r3, #1
 800106c:	e00f      	b.n	800108e <SysTick_Config+0x36>
  }

  SysTick->LOAD  = (uint32_t)(ticks - 1UL);                         /* set reload register */
 800106e:	4a0a      	ldr	r2, [pc, #40]	@ (8001098 <SysTick_Config+0x40>)
 8001070:	687b      	ldr	r3, [r7, #4]
 8001072:	3b01      	subs	r3, #1
 8001074:	6053      	str	r3, [r2, #4]
  NVIC_SetPriority (SysTick_IRQn, (1UL << __NVIC_PRIO_BITS) - 1UL); /* set Priority for Systick Interrupt */
 8001076:	210f      	movs	r1, #15
 8001078:	f04f 30ff 	mov.w	r0, #4294967295
 800107c:	f7ff ff8e 	bl	8000f9c <__NVIC_SetPriority>
  SysTick->VAL   = 0UL;                                             /* Load the SysTick Counter Value */
 8001080:	4b05      	ldr	r3, [pc, #20]	@ (8001098 <SysTick_Config+0x40>)
 8001082:	2200      	movs	r2, #0
 8001084:	609a      	str	r2, [r3, #8]
  SysTick->CTRL  = SysTick_CTRL_CLKSOURCE_Msk |
 8001086:	4b04      	ldr	r3, [pc, #16]	@ (8001098 <SysTick_Config+0x40>)
 8001088:	2207      	movs	r2, #7
 800108a:	601a      	str	r2, [r3, #0]
                   SysTick_CTRL_TICKINT_Msk   |
                   SysTick_CTRL_ENABLE_Msk;                         /* Enable SysTick IRQ and SysTick Timer */
  return (0UL);                                                     /* Function successful */
 800108c:	2300      	movs	r3, #0
}
 800108e:	4618      	mov	r0, r3
 8001090:	3708      	adds	r7, #8
 8001092:	46bd      	mov	sp, r7
 8001094:	bd80      	pop	{r7, pc}
 8001096:	bf00      	nop
 8001098:	e000e010 	.word	0xe000e010

0800109c <HAL_NVIC_SetPriorityGrouping>:
  * @note   When the NVIC_PriorityGroup_0 is selected, IRQ pre-emption is no more possible.
  *         The pending IRQ priority will be managed only by the subpriority.
  * @retval None
  */
void HAL_NVIC_SetPriorityGrouping(uint32_t PriorityGroup)
{
 800109c:	b580      	push	{r7, lr}
 800109e:	b082      	sub	sp, #8
 80010a0:	af00      	add	r7, sp, #0
 80010a2:	6078      	str	r0, [r7, #4]
  /* Check the parameters */
  assert_param(IS_NVIC_PRIORITY_GROUP(PriorityGroup));

  /* Set the PRIGROUP[10:8] bits according to the PriorityGroup parameter value */
  NVIC_SetPriorityGrouping(PriorityGroup);
 80010a4:	6878      	ldr	r0, [r7, #4]
 80010a6:	f7ff ff29 	bl	8000efc <__NVIC_SetPriorityGrouping>
}
 80010aa:	bf00      	nop
 80010ac:	3708      	adds	r7, #8
 80010ae:	46bd      	mov	sp, r7
 80010b0:	bd80      	pop	{r7, pc}

080010b2 <HAL_NVIC_SetPriority>:
  *         This parameter can be a value between 0 and 15
  *         A lower priority value indicates a higher priority.
  * @retval None
  */
void HAL_NVIC_SetPriority(IRQn_Type IRQn, uint32_t PreemptPriority, uint32_t SubPriority)
{
 80010b2:	b580      	push	{r7, lr}
 80010b4:	b086      	sub	sp, #24
 80010b6:	af00      	add	r7, sp, #0
 80010b8:	4603      	mov	r3, r0
 80010ba:	60b9      	str	r1, [r7, #8]
 80010bc:	607a      	str	r2, [r7, #4]
 80010be:	73fb      	strb	r3, [r7, #15]
  uint32_t prioritygroup = 0x00;
 80010c0:	2300      	movs	r3, #0
 80010c2:	617b      	str	r3, [r7, #20]

  /* Check the parameters */
  assert_param(IS_NVIC_SUB_PRIORITY(SubPriority));
  assert_param(IS_NVIC_PREEMPTION_PRIORITY(PreemptPriority));

  prioritygroup = NVIC_GetPriorityGrouping();
 80010c4:	f7ff ff3e 	bl	8000f44 <__NVIC_GetPriorityGrouping>
 80010c8:	6178      	str	r0, [r7, #20]

  NVIC_SetPriority(IRQn, NVIC_EncodePriority(prioritygroup, PreemptPriority, SubPriority));
 80010ca:	687a      	ldr	r2, [r7, #4]
 80010cc:	68b9      	ldr	r1, [r7, #8]
 80010ce:	6978      	ldr	r0, [r7, #20]
 80010d0:	f7ff ff8e 	bl	8000ff0 <NVIC_EncodePriority>
 80010d4:	4602      	mov	r2, r0
 80010d6:	f997 300f 	ldrsb.w	r3, [r7, #15]
 80010da:	4611      	mov	r1, r2
 80010dc:	4618      	mov	r0, r3
 80010de:	f7ff ff5d 	bl	8000f9c <__NVIC_SetPriority>
}
 80010e2:	bf00      	nop
 80010e4:	3718      	adds	r7, #24
 80010e6:	46bd      	mov	sp, r7
 80010e8:	bd80      	pop	{r7, pc}

080010ea <HAL_NVIC_EnableIRQ>:
  *         This parameter can be an enumerator of IRQn_Type enumeration
  *         (For the complete STM32 Devices IRQ Channels list, please refer to the appropriate CMSIS device file (stm32l4xxxx.h))
  * @retval None
  */
void HAL_NVIC_EnableIRQ(IRQn_Type IRQn)
{
 80010ea:	b580      	push	{r7, lr}
 80010ec:	b082      	sub	sp, #8
 80010ee:	af00      	add	r7, sp, #0
 80010f0:	4603      	mov	r3, r0
 80010f2:	71fb      	strb	r3, [r7, #7]
  /* Check the parameters */
  assert_param(IS_NVIC_DEVICE_IRQ(IRQn));
  
  /* Enable interrupt */
  NVIC_EnableIRQ(IRQn);
 80010f4:	f997 3007 	ldrsb.w	r3, [r7, #7]
 80010f8:	4618      	mov	r0, r3
 80010fa:	f7ff ff31 	bl	8000f60 <__NVIC_EnableIRQ>
}
 80010fe:	bf00      	nop
 8001100:	3708      	adds	r7, #8
 8001102:	46bd      	mov	sp, r7
 8001104:	bd80      	pop	{r7, pc}

08001106 <HAL_SYSTICK_Config>:
  * @param  TicksNumb: Specifies the ticks Number of ticks between two interrupts.
  * @retval status:  - 0  Function succeeded.
  *                  - 1  Function failed.
  */
uint32_t HAL_SYSTICK_Config(uint32_t TicksNumb)
{
 8001106:	b580      	push	{r7, lr}
 8001108:	b082      	sub	sp, #8
 800110a:	af00      	add	r7, sp, #0
 800110c:	6078      	str	r0, [r7, #4]
   return SysTick_Config(TicksNumb);
 800110e:	6878      	ldr	r0, [r7, #4]
 8001110:	f7ff ffa2 	bl	8001058 <SysTick_Config>
 8001114:	4603      	mov	r3, r0
}
 8001116:	4618      	mov	r0, r3
 8001118:	3708      	adds	r7, #8
 800111a:	46bd      	mov	sp, r7
 800111c:	bd80      	pop	{r7, pc}
	...

08001120 <HAL_GPIO_Init>:
  * @param  GPIO_Init pointer to a GPIO_InitTypeDef structure that contains
  *         the configuration information for the specified GPIO peripheral.
  * @retval None
  */
void HAL_GPIO_Init(GPIO_TypeDef  *GPIOx, GPIO_InitTypeDef *GPIO_Init)
{
 8001120:	b480      	push	{r7}
 8001122:	b087      	sub	sp, #28
 8001124:	af00      	add	r7, sp, #0
 8001126:	6078      	str	r0, [r7, #4]
 8001128:	6039      	str	r1, [r7, #0]
  uint32_t position = 0x00u;
 800112a:	2300      	movs	r3, #0
 800112c:	617b      	str	r3, [r7, #20]
  assert_param(IS_GPIO_ALL_INSTANCE(GPIOx));
  assert_param(IS_GPIO_PIN(GPIO_Init->Pin));
  assert_param(IS_GPIO_MODE(GPIO_Init->Mode));

  /* Configure the port pins */
  while (((GPIO_Init->Pin) >> position) != 0x00u)
 800112e:	e17f      	b.n	8001430 <HAL_GPIO_Init+0x310>
  {
    /* Get current io position */
    iocurrent = (GPIO_Init->Pin) & (1uL << position);
 8001130:	683b      	ldr	r3, [r7, #0]
 8001132:	681a      	ldr	r2, [r3, #0]
 8001134:	2101      	movs	r1, #1
 8001136:	697b      	ldr	r3, [r7, #20]
 8001138:	fa01 f303 	lsl.w	r3, r1, r3
 800113c:	4013      	ands	r3, r2
 800113e:	60fb      	str	r3, [r7, #12]

    if (iocurrent != 0x00u)
 8001140:	68fb      	ldr	r3, [r7, #12]
 8001142:	2b00      	cmp	r3, #0
 8001144:	f000 8171 	beq.w	800142a <HAL_GPIO_Init+0x30a>
    {
      /*--------------------- GPIO Mode Configuration ------------------------*/
      /* In case of Output or Alternate function mode selection */
      if (((GPIO_Init->Mode & GPIO_MODE) == MODE_OUTPUT) || ((GPIO_Init->Mode & GPIO_MODE) == MODE_AF))
 8001148:	683b      	ldr	r3, [r7, #0]
 800114a:	685b      	ldr	r3, [r3, #4]
 800114c:	f003 0303 	and.w	r3, r3, #3
 8001150:	2b01      	cmp	r3, #1
 8001152:	d005      	beq.n	8001160 <HAL_GPIO_Init+0x40>
 8001154:	683b      	ldr	r3, [r7, #0]
 8001156:	685b      	ldr	r3, [r3, #4]
 8001158:	f003 0303 	and.w	r3, r3, #3
 800115c:	2b02      	cmp	r3, #2
 800115e:	d130      	bne.n	80011c2 <HAL_GPIO_Init+0xa2>
      {
        /* Check the Speed parameter */
        assert_param(IS_GPIO_SPEED(GPIO_Init->Speed));

        /* Configure the IO Speed */
        temp = GPIOx->OSPEEDR;
 8001160:	687b      	ldr	r3, [r7, #4]
 8001162:	689b      	ldr	r3, [r3, #8]
 8001164:	613b      	str	r3, [r7, #16]
        temp &= ~(GPIO_OSPEEDR_OSPEED0 << (position * 2u));
 8001166:	697b      	ldr	r3, [r7, #20]
 8001168:	005b      	lsls	r3, r3, #1
 800116a:	2203      	movs	r2, #3
 800116c:	fa02 f303 	lsl.w	r3, r2, r3
 8001170:	43db      	mvns	r3, r3
 8001172:	693a      	ldr	r2, [r7, #16]
 8001174:	4013      	ands	r3, r2
 8001176:	613b      	str	r3, [r7, #16]
        temp |= (GPIO_Init->Speed << (position * 2u));
 8001178:	683b      	ldr	r3, [r7, #0]
 800117a:	68da      	ldr	r2, [r3, #12]
 800117c:	697b      	ldr	r3, [r7, #20]
 800117e:	005b      	lsls	r3, r3, #1
 8001180:	fa02 f303 	lsl.w	r3, r2, r3
 8001184:	693a      	ldr	r2, [r7, #16]
 8001186:	4313      	orrs	r3, r2
 8001188:	613b      	str	r3, [r7, #16]
        GPIOx->OSPEEDR = temp;
 800118a:	687b      	ldr	r3, [r7, #4]
 800118c:	693a      	ldr	r2, [r7, #16]
 800118e:	609a      	str	r2, [r3, #8]

        /* Configure the IO Output Type */
        temp = GPIOx->OTYPER;
 8001190:	687b      	ldr	r3, [r7, #4]
 8001192:	685b      	ldr	r3, [r3, #4]
 8001194:	613b      	str	r3, [r7, #16]
        temp &= ~(GPIO_OTYPER_OT0 << position) ;
 8001196:	2201      	movs	r2, #1
 8001198:	697b      	ldr	r3, [r7, #20]
 800119a:	fa02 f303 	lsl.w	r3, r2, r3
 800119e:	43db      	mvns	r3, r3
 80011a0:	693a      	ldr	r2, [r7, #16]
 80011a2:	4013      	ands	r3, r2
 80011a4:	613b      	str	r3, [r7, #16]
        temp |= (((GPIO_Init->Mode & OUTPUT_TYPE) >> OUTPUT_TYPE_Pos) << position);
 80011a6:	683b      	ldr	r3, [r7, #0]
 80011a8:	685b      	ldr	r3, [r3, #4]
 80011aa:	091b      	lsrs	r3, r3, #4
 80011ac:	f003 0201 	and.w	r2, r3, #1
 80011b0:	697b      	ldr	r3, [r7, #20]
 80011b2:	fa02 f303 	lsl.w	r3, r2, r3
 80011b6:	693a      	ldr	r2, [r7, #16]
 80011b8:	4313      	orrs	r3, r2
 80011ba:	613b      	str	r3, [r7, #16]
        GPIOx->OTYPER = temp;
 80011bc:	687b      	ldr	r3, [r7, #4]
 80011be:	693a      	ldr	r2, [r7, #16]
 80011c0:	605a      	str	r2, [r3, #4]
      }

#if defined(STM32L471xx) || defined(STM32L475xx) || defined(STM32L476xx) || defined(STM32L485xx) || defined(STM32L486xx)

      /* In case of Analog mode, check if ADC control mode is selected */
      if((GPIO_Init->Mode & GPIO_MODE_ANALOG) == GPIO_MODE_ANALOG)
 80011c2:	683b      	ldr	r3, [r7, #0]
 80011c4:	685b      	ldr	r3, [r3, #4]
 80011c6:	f003 0303 	and.w	r3, r3, #3
 80011ca:	2b03      	cmp	r3, #3
 80011cc:	d118      	bne.n	8001200 <HAL_GPIO_Init+0xe0>
      {
        /* Configure the IO Output Type */
        temp = GPIOx->ASCR;
 80011ce:	687b      	ldr	r3, [r7, #4]
 80011d0:	6adb      	ldr	r3, [r3, #44]	@ 0x2c
 80011d2:	613b      	str	r3, [r7, #16]
        temp &= ~(GPIO_ASCR_ASC0 << position) ;
 80011d4:	2201      	movs	r2, #1
 80011d6:	697b      	ldr	r3, [r7, #20]
 80011d8:	fa02 f303 	lsl.w	r3, r2, r3
 80011dc:	43db      	mvns	r3, r3
 80011de:	693a      	ldr	r2, [r7, #16]
 80011e0:	4013      	ands	r3, r2
 80011e2:	613b      	str	r3, [r7, #16]
        temp |= (((GPIO_Init->Mode & GPIO_MODE_ANALOG_ADC_CONTROL) >> 3) << position);
 80011e4:	683b      	ldr	r3, [r7, #0]
 80011e6:	685b      	ldr	r3, [r3, #4]
 80011e8:	08db      	lsrs	r3, r3, #3
 80011ea:	f003 0201 	and.w	r2, r3, #1
 80011ee:	697b      	ldr	r3, [r7, #20]
 80011f0:	fa02 f303 	lsl.w	r3, r2, r3
 80011f4:	693a      	ldr	r2, [r7, #16]
 80011f6:	4313      	orrs	r3, r2
 80011f8:	613b      	str	r3, [r7, #16]
        GPIOx->ASCR = temp;
 80011fa:	687b      	ldr	r3, [r7, #4]
 80011fc:	693a      	ldr	r2, [r7, #16]
 80011fe:	62da      	str	r2, [r3, #44]	@ 0x2c
      }

#endif /* STM32L471xx || STM32L475xx || STM32L476xx || STM32L485xx || STM32L486xx */

      /* Activate the Pull-up or Pull down resistor for the current IO */
      if ((GPIO_Init->Mode & GPIO_MODE) != MODE_ANALOG)
 8001200:	683b      	ldr	r3, [r7, #0]
 8001202:	685b      	ldr	r3, [r3, #4]
 8001204:	f003 0303 	and.w	r3, r3, #3
 8001208:	2b03      	cmp	r3, #3
 800120a:	d017      	beq.n	800123c <HAL_GPIO_Init+0x11c>
      {
        /* Check the Pull parameter */
        assert_param(IS_GPIO_PULL(GPIO_Init->Pull));

        temp = GPIOx->PUPDR;
 800120c:	687b      	ldr	r3, [r7, #4]
 800120e:	68db      	ldr	r3, [r3, #12]
 8001210:	613b      	str	r3, [r7, #16]
        temp &= ~(GPIO_PUPDR_PUPD0 << (position * 2U));
 8001212:	697b      	ldr	r3, [r7, #20]
 8001214:	005b      	lsls	r3, r3, #1
 8001216:	2203      	movs	r2, #3
 8001218:	fa02 f303 	lsl.w	r3, r2, r3
 800121c:	43db      	mvns	r3, r3
 800121e:	693a      	ldr	r2, [r7, #16]
 8001220:	4013      	ands	r3, r2
 8001222:	613b      	str	r3, [r7, #16]
        temp |= ((GPIO_Init->Pull) << (position * 2U));
 8001224:	683b      	ldr	r3, [r7, #0]
 8001226:	689a      	ldr	r2, [r3, #8]
 8001228:	697b      	ldr	r3, [r7, #20]
 800122a:	005b      	lsls	r3, r3, #1
 800122c:	fa02 f303 	lsl.w	r3, r2, r3
 8001230:	693a      	ldr	r2, [r7, #16]
 8001232:	4313      	orrs	r3, r2
 8001234:	613b      	str	r3, [r7, #16]
        GPIOx->PUPDR = temp;
 8001236:	687b      	ldr	r3, [r7, #4]
 8001238:	693a      	ldr	r2, [r7, #16]
 800123a:	60da      	str	r2, [r3, #12]
      }

      /* In case of Alternate function mode selection */
      if ((GPIO_Init->Mode & GPIO_MODE) == MODE_AF)
 800123c:	683b      	ldr	r3, [r7, #0]
 800123e:	685b      	ldr	r3, [r3, #4]
 8001240:	f003 0303 	and.w	r3, r3, #3
 8001244:	2b02      	cmp	r3, #2
 8001246:	d123      	bne.n	8001290 <HAL_GPIO_Init+0x170>
        /* Check the Alternate function parameters */
        assert_param(IS_GPIO_AF_INSTANCE(GPIOx));
        assert_param(IS_GPIO_AF(GPIO_Init->Alternate));

        /* Configure Alternate function mapped with the current IO */
        temp = GPIOx->AFR[position >> 3u];
 8001248:	697b      	ldr	r3, [r7, #20]
 800124a:	08da      	lsrs	r2, r3, #3
 800124c:	687b      	ldr	r3, [r7, #4]
 800124e:	3208      	adds	r2, #8
 8001250:	f853 3022 	ldr.w	r3, [r3, r2, lsl #2]
 8001254:	613b      	str	r3, [r7, #16]
        temp &= ~(0xFul << ((position & 0x07u) * 4u));
 8001256:	697b      	ldr	r3, [r7, #20]
 8001258:	f003 0307 	and.w	r3, r3, #7
 800125c:	009b      	lsls	r3, r3, #2
 800125e:	220f      	movs	r2, #15
 8001260:	fa02 f303 	lsl.w	r3, r2, r3
 8001264:	43db      	mvns	r3, r3
 8001266:	693a      	ldr	r2, [r7, #16]
 8001268:	4013      	ands	r3, r2
 800126a:	613b      	str	r3, [r7, #16]
        temp |= ((GPIO_Init->Alternate) << ((position & 0x07u) * 4u));
 800126c:	683b      	ldr	r3, [r7, #0]
 800126e:	691a      	ldr	r2, [r3, #16]
 8001270:	697b      	ldr	r3, [r7, #20]
 8001272:	f003 0307 	and.w	r3, r3, #7
 8001276:	009b      	lsls	r3, r3, #2
 8001278:	fa02 f303 	lsl.w	r3, r2, r3
 800127c:	693a      	ldr	r2, [r7, #16]
 800127e:	4313      	orrs	r3, r2
 8001280:	613b      	str	r3, [r7, #16]
        GPIOx->AFR[position >> 3u] = temp;
 8001282:	697b      	ldr	r3, [r7, #20]
 8001284:	08da      	lsrs	r2, r3, #3
 8001286:	687b      	ldr	r3, [r7, #4]
 8001288:	3208      	adds	r2, #8
 800128a:	6939      	ldr	r1, [r7, #16]
 800128c:	f843 1022 	str.w	r1, [r3, r2, lsl #2]
      }

      /* Configure IO Direction mode (Input, Output, Alternate or Analog) */
      temp = GPIOx->MODER;
 8001290:	687b      	ldr	r3, [r7, #4]
 8001292:	681b      	ldr	r3, [r3, #0]
 8001294:	613b      	str	r3, [r7, #16]
      temp &= ~(GPIO_MODER_MODE0 << (position * 2u));
 8001296:	697b      	ldr	r3, [r7, #20]
 8001298:	005b      	lsls	r3, r3, #1
 800129a:	2203      	movs	r2, #3
 800129c:	fa02 f303 	lsl.w	r3, r2, r3
 80012a0:	43db      	mvns	r3, r3
 80012a2:	693a      	ldr	r2, [r7, #16]
 80012a4:	4013      	ands	r3, r2
 80012a6:	613b      	str	r3, [r7, #16]
      temp |= ((GPIO_Init->Mode & GPIO_MODE) << (position * 2u));
 80012a8:	683b      	ldr	r3, [r7, #0]
 80012aa:	685b      	ldr	r3, [r3, #4]
 80012ac:	f003 0203 	and.w	r2, r3, #3
 80012b0:	697b      	ldr	r3, [r7, #20]
 80012b2:	005b      	lsls	r3, r3, #1
 80012b4:	fa02 f303 	lsl.w	r3, r2, r3
 80012b8:	693a      	ldr	r2, [r7, #16]
 80012ba:	4313      	orrs	r3, r2
 80012bc:	613b      	str	r3, [r7, #16]
      GPIOx->MODER = temp;
 80012be:	687b      	ldr	r3, [r7, #4]
 80012c0:	693a      	ldr	r2, [r7, #16]
 80012c2:	601a      	str	r2, [r3, #0]

      /*--------------------- EXTI Mode Configuration ------------------------*/
      /* Configure the External Interrupt or event for the current IO */
      if ((GPIO_Init->Mode & EXTI_MODE) != 0x00u)
 80012c4:	683b      	ldr	r3, [r7, #0]
 80012c6:	685b      	ldr	r3, [r3, #4]
 80012c8:	f403 3340 	and.w	r3, r3, #196608	@ 0x30000
 80012cc:	2b00      	cmp	r3, #0
 80012ce:	f000 80ac 	beq.w	800142a <HAL_GPIO_Init+0x30a>
      {
        /* Enable SYSCFG Clock */
        __HAL_RCC_SYSCFG_CLK_ENABLE();
 80012d2:	4b5f      	ldr	r3, [pc, #380]	@ (8001450 <HAL_GPIO_Init+0x330>)
 80012d4:	6e1b      	ldr	r3, [r3, #96]	@ 0x60
 80012d6:	4a5e      	ldr	r2, [pc, #376]	@ (8001450 <HAL_GPIO_Init+0x330>)
 80012d8:	f043 0301 	orr.w	r3, r3, #1
 80012dc:	6613      	str	r3, [r2, #96]	@ 0x60
 80012de:	4b5c      	ldr	r3, [pc, #368]	@ (8001450 <HAL_GPIO_Init+0x330>)
 80012e0:	6e1b      	ldr	r3, [r3, #96]	@ 0x60
 80012e2:	f003 0301 	and.w	r3, r3, #1
 80012e6:	60bb      	str	r3, [r7, #8]
 80012e8:	68bb      	ldr	r3, [r7, #8]

        temp = SYSCFG->EXTICR[position >> 2u];
 80012ea:	4a5a      	ldr	r2, [pc, #360]	@ (8001454 <HAL_GPIO_Init+0x334>)
 80012ec:	697b      	ldr	r3, [r7, #20]
 80012ee:	089b      	lsrs	r3, r3, #2
 80012f0:	3302      	adds	r3, #2
 80012f2:	f852 3023 	ldr.w	r3, [r2, r3, lsl #2]
 80012f6:	613b      	str	r3, [r7, #16]
        temp &= ~(0x0FuL << (4u * (position & 0x03u)));
 80012f8:	697b      	ldr	r3, [r7, #20]
 80012fa:	f003 0303 	and.w	r3, r3, #3
 80012fe:	009b      	lsls	r3, r3, #2
 8001300:	220f      	movs	r2, #15
 8001302:	fa02 f303 	lsl.w	r3, r2, r3
 8001306:	43db      	mvns	r3, r3
 8001308:	693a      	ldr	r2, [r7, #16]
 800130a:	4013      	ands	r3, r2
 800130c:	613b      	str	r3, [r7, #16]
        temp |= (GPIO_GET_INDEX(GPIOx) << (4u * (position & 0x03u)));
 800130e:	687b      	ldr	r3, [r7, #4]
 8001310:	f1b3 4f90 	cmp.w	r3, #1207959552	@ 0x48000000
 8001314:	d025      	beq.n	8001362 <HAL_GPIO_Init+0x242>
 8001316:	687b      	ldr	r3, [r7, #4]
 8001318:	4a4f      	ldr	r2, [pc, #316]	@ (8001458 <HAL_GPIO_Init+0x338>)
 800131a:	4293      	cmp	r3, r2
 800131c:	d01f      	beq.n	800135e <HAL_GPIO_Init+0x23e>
 800131e:	687b      	ldr	r3, [r7, #4]
 8001320:	4a4e      	ldr	r2, [pc, #312]	@ (800145c <HAL_GPIO_Init+0x33c>)
 8001322:	4293      	cmp	r3, r2
 8001324:	d019      	beq.n	800135a <HAL_GPIO_Init+0x23a>
 8001326:	687b      	ldr	r3, [r7, #4]
 8001328:	4a4d      	ldr	r2, [pc, #308]	@ (8001460 <HAL_GPIO_Init+0x340>)
 800132a:	4293      	cmp	r3, r2
 800132c:	d013      	beq.n	8001356 <HAL_GPIO_Init+0x236>
 800132e:	687b      	ldr	r3, [r7, #4]
 8001330:	4a4c      	ldr	r2, [pc, #304]	@ (8001464 <HAL_GPIO_Init+0x344>)
 8001332:	4293      	cmp	r3, r2
 8001334:	d00d      	beq.n	8001352 <HAL_GPIO_Init+0x232>
 8001336:	687b      	ldr	r3, [r7, #4]
 8001338:	4a4b      	ldr	r2, [pc, #300]	@ (8001468 <HAL_GPIO_Init+0x348>)
 800133a:	4293      	cmp	r3, r2
 800133c:	d007      	beq.n	800134e <HAL_GPIO_Init+0x22e>
 800133e:	687b      	ldr	r3, [r7, #4]
 8001340:	4a4a      	ldr	r2, [pc, #296]	@ (800146c <HAL_GPIO_Init+0x34c>)
 8001342:	4293      	cmp	r3, r2
 8001344:	d101      	bne.n	800134a <HAL_GPIO_Init+0x22a>
 8001346:	2306      	movs	r3, #6
 8001348:	e00c      	b.n	8001364 <HAL_GPIO_Init+0x244>
 800134a:	2307      	movs	r3, #7
 800134c:	e00a      	b.n	8001364 <HAL_GPIO_Init+0x244>
 800134e:	2305      	movs	r3, #5
 8001350:	e008      	b.n	8001364 <HAL_GPIO_Init+0x244>
 8001352:	2304      	movs	r3, #4
 8001354:	e006      	b.n	8001364 <HAL_GPIO_Init+0x244>
 8001356:	2303      	movs	r3, #3
 8001358:	e004      	b.n	8001364 <HAL_GPIO_Init+0x244>
 800135a:	2302      	movs	r3, #2
 800135c:	e002      	b.n	8001364 <HAL_GPIO_Init+0x244>
 800135e:	2301      	movs	r3, #1
 8001360:	e000      	b.n	8001364 <HAL_GPIO_Init+0x244>
 8001362:	2300      	movs	r3, #0
 8001364:	697a      	ldr	r2, [r7, #20]
 8001366:	f002 0203 	and.w	r2, r2, #3
 800136a:	0092      	lsls	r2, r2, #2
 800136c:	4093      	lsls	r3, r2
 800136e:	693a      	ldr	r2, [r7, #16]
 8001370:	4313      	orrs	r3, r2
 8001372:	613b      	str	r3, [r7, #16]
        SYSCFG->EXTICR[position >> 2u] = temp;
 8001374:	4937      	ldr	r1, [pc, #220]	@ (8001454 <HAL_GPIO_Init+0x334>)
 8001376:	697b      	ldr	r3, [r7, #20]
 8001378:	089b      	lsrs	r3, r3, #2
 800137a:	3302      	adds	r3, #2
 800137c:	693a      	ldr	r2, [r7, #16]
 800137e:	f841 2023 	str.w	r2, [r1, r3, lsl #2]

        /* Clear Rising Falling edge configuration */
        temp = EXTI->RTSR1;
 8001382:	4b3b      	ldr	r3, [pc, #236]	@ (8001470 <HAL_GPIO_Init+0x350>)
 8001384:	689b      	ldr	r3, [r3, #8]
 8001386:	613b      	str	r3, [r7, #16]
        temp &= ~(iocurrent);
 8001388:	68fb      	ldr	r3, [r7, #12]
 800138a:	43db      	mvns	r3, r3
 800138c:	693a      	ldr	r2, [r7, #16]
 800138e:	4013      	ands	r3, r2
 8001390:	613b      	str	r3, [r7, #16]
        if ((GPIO_Init->Mode & TRIGGER_RISING) != 0x00u)
 8001392:	683b      	ldr	r3, [r7, #0]
 8001394:	685b      	ldr	r3, [r3, #4]
 8001396:	f403 1380 	and.w	r3, r3, #1048576	@ 0x100000
 800139a:	2b00      	cmp	r3, #0
 800139c:	d003      	beq.n	80013a6 <HAL_GPIO_Init+0x286>
        {
          temp |= iocurrent;
 800139e:	693a      	ldr	r2, [r7, #16]
 80013a0:	68fb      	ldr	r3, [r7, #12]
 80013a2:	4313      	orrs	r3, r2
 80013a4:	613b      	str	r3, [r7, #16]
        }
        EXTI->RTSR1 = temp;
 80013a6:	4a32      	ldr	r2, [pc, #200]	@ (8001470 <HAL_GPIO_Init+0x350>)
 80013a8:	693b      	ldr	r3, [r7, #16]
 80013aa:	6093      	str	r3, [r2, #8]

        temp = EXTI->FTSR1;
 80013ac:	4b30      	ldr	r3, [pc, #192]	@ (8001470 <HAL_GPIO_Init+0x350>)
 80013ae:	68db      	ldr	r3, [r3, #12]
 80013b0:	613b      	str	r3, [r7, #16]
        temp &= ~(iocurrent);
 80013b2:	68fb      	ldr	r3, [r7, #12]
 80013b4:	43db      	mvns	r3, r3
 80013b6:	693a      	ldr	r2, [r7, #16]
 80013b8:	4013      	ands	r3, r2
 80013ba:	613b      	str	r3, [r7, #16]
        if ((GPIO_Init->Mode & TRIGGER_FALLING) != 0x00u)
 80013bc:	683b      	ldr	r3, [r7, #0]
 80013be:	685b      	ldr	r3, [r3, #4]
 80013c0:	f403 1300 	and.w	r3, r3, #2097152	@ 0x200000
 80013c4:	2b00      	cmp	r3, #0
 80013c6:	d003      	beq.n	80013d0 <HAL_GPIO_Init+0x2b0>
        {
          temp |= iocurrent;
 80013c8:	693a      	ldr	r2, [r7, #16]
 80013ca:	68fb      	ldr	r3, [r7, #12]
 80013cc:	4313      	orrs	r3, r2
 80013ce:	613b      	str	r3, [r7, #16]
        }
        EXTI->FTSR1 = temp;
 80013d0:	4a27      	ldr	r2, [pc, #156]	@ (8001470 <HAL_GPIO_Init+0x350>)
 80013d2:	693b      	ldr	r3, [r7, #16]
 80013d4:	60d3      	str	r3, [r2, #12]

        /* Clear EXTI line configuration */
        temp = EXTI->EMR1;
 80013d6:	4b26      	ldr	r3, [pc, #152]	@ (8001470 <HAL_GPIO_Init+0x350>)
 80013d8:	685b      	ldr	r3, [r3, #4]
 80013da:	613b      	str	r3, [r7, #16]
        temp &= ~(iocurrent);
 80013dc:	68fb      	ldr	r3, [r7, #12]
 80013de:	43db      	mvns	r3, r3
 80013e0:	693a      	ldr	r2, [r7, #16]
 80013e2:	4013      	ands	r3, r2
 80013e4:	613b      	str	r3, [r7, #16]
        if ((GPIO_Init->Mode & EXTI_EVT) != 0x00u)
 80013e6:	683b      	ldr	r3, [r7, #0]
 80013e8:	685b      	ldr	r3, [r3, #4]
 80013ea:	f403 3300 	and.w	r3, r3, #131072	@ 0x20000
 80013ee:	2b00      	cmp	r3, #0
 80013f0:	d003      	beq.n	80013fa <HAL_GPIO_Init+0x2da>
        {
          temp |= iocurrent;
 80013f2:	693a      	ldr	r2, [r7, #16]
 80013f4:	68fb      	ldr	r3, [r7, #12]
 80013f6:	4313      	orrs	r3, r2
 80013f8:	613b      	str	r3, [r7, #16]
        }
        EXTI->EMR1 = temp;
 80013fa:	4a1d      	ldr	r2, [pc, #116]	@ (8001470 <HAL_GPIO_Init+0x350>)
 80013fc:	693b      	ldr	r3, [r7, #16]
 80013fe:	6053      	str	r3, [r2, #4]

        temp = EXTI->IMR1;
 8001400:	4b1b      	ldr	r3, [pc, #108]	@ (8001470 <HAL_GPIO_Init+0x350>)
 8001402:	681b      	ldr	r3, [r3, #0]
 8001404:	613b      	str	r3, [r7, #16]
        temp &= ~(iocurrent);
 8001406:	68fb      	ldr	r3, [r7, #12]
 8001408:	43db      	mvns	r3, r3
 800140a:	693a      	ldr	r2, [r7, #16]
 800140c:	4013      	ands	r3, r2
 800140e:	613b      	str	r3, [r7, #16]
        if ((GPIO_Init->Mode & EXTI_IT) != 0x00u)
 8001410:	683b      	ldr	r3, [r7, #0]
 8001412:	685b      	ldr	r3, [r3, #4]
 8001414:	f403 3380 	and.w	r3, r3, #65536	@ 0x10000
 8001418:	2b00      	cmp	r3, #0
 800141a:	d003      	beq.n	8001424 <HAL_GPIO_Init+0x304>
        {
          temp |= iocurrent;
 800141c:	693a      	ldr	r2, [r7, #16]
 800141e:	68fb      	ldr	r3, [r7, #12]
 8001420:	4313      	orrs	r3, r2
 8001422:	613b      	str	r3, [r7, #16]
        }
        EXTI->IMR1 = temp;
 8001424:	4a12      	ldr	r2, [pc, #72]	@ (8001470 <HAL_GPIO_Init+0x350>)
 8001426:	693b      	ldr	r3, [r7, #16]
 8001428:	6013      	str	r3, [r2, #0]
      }
    }

    position++;
 800142a:	697b      	ldr	r3, [r7, #20]
 800142c:	3301      	adds	r3, #1
 800142e:	617b      	str	r3, [r7, #20]
  while (((GPIO_Init->Pin) >> position) != 0x00u)
 8001430:	683b      	ldr	r3, [r7, #0]
 8001432:	681a      	ldr	r2, [r3, #0]
 8001434:	697b      	ldr	r3, [r7, #20]
 8001436:	fa22 f303 	lsr.w	r3, r2, r3
 800143a:	2b00      	cmp	r3, #0
 800143c:	f47f ae78 	bne.w	8001130 <HAL_GPIO_Init+0x10>
  }
}
 8001440:	bf00      	nop
 8001442:	bf00      	nop
 8001444:	371c      	adds	r7, #28
 8001446:	46bd      	mov	sp, r7
 8001448:	f85d 7b04 	ldr.w	r7, [sp], #4
 800144c:	4770      	bx	lr
 800144e:	bf00      	nop
 8001450:	40021000 	.word	0x40021000
 8001454:	40010000 	.word	0x40010000
 8001458:	48000400 	.word	0x48000400
 800145c:	48000800 	.word	0x48000800
 8001460:	48000c00 	.word	0x48000c00
 8001464:	48001000 	.word	0x48001000
 8001468:	48001400 	.word	0x48001400
 800146c:	48001800 	.word	0x48001800
 8001470:	40010400 	.word	0x40010400

08001474 <HAL_GPIO_ReadPin>:
  * @param  GPIO_Pin specifies the port bit to read.
  *         This parameter can be any combination of GPIO_PIN_x where x can be (0..15).
  * @retval The input port pin value.
  */
GPIO_PinState HAL_GPIO_ReadPin(GPIO_TypeDef* GPIOx, uint16_t GPIO_Pin)
{
 8001474:	b480      	push	{r7}
 8001476:	b085      	sub	sp, #20
 8001478:	af00      	add	r7, sp, #0
 800147a:	6078      	str	r0, [r7, #4]
 800147c:	460b      	mov	r3, r1
 800147e:	807b      	strh	r3, [r7, #2]
  GPIO_PinState bitstatus;

  /* Check the parameters */
  assert_param(IS_GPIO_PIN(GPIO_Pin));

  if ((GPIOx->IDR & GPIO_Pin) != 0x00u)
 8001480:	687b      	ldr	r3, [r7, #4]
 8001482:	691a      	ldr	r2, [r3, #16]
 8001484:	887b      	ldrh	r3, [r7, #2]
 8001486:	4013      	ands	r3, r2
 8001488:	2b00      	cmp	r3, #0
 800148a:	d002      	beq.n	8001492 <HAL_GPIO_ReadPin+0x1e>
  {
    bitstatus = GPIO_PIN_SET;
 800148c:	2301      	movs	r3, #1
 800148e:	73fb      	strb	r3, [r7, #15]
 8001490:	e001      	b.n	8001496 <HAL_GPIO_ReadPin+0x22>
  }
  else
  {
    bitstatus = GPIO_PIN_RESET;
 8001492:	2300      	movs	r3, #0
 8001494:	73fb      	strb	r3, [r7, #15]
  }
  return bitstatus;
 8001496:	7bfb      	ldrb	r3, [r7, #15]
}
 8001498:	4618      	mov	r0, r3
 800149a:	3714      	adds	r7, #20
 800149c:	46bd      	mov	sp, r7
 800149e:	f85d 7b04 	ldr.w	r7, [sp], #4
 80014a2:	4770      	bx	lr

080014a4 <HAL_GPIO_WritePin>:
  *            @arg GPIO_PIN_RESET: to clear the port pin
  *            @arg GPIO_PIN_SET: to set the port pin
  * @retval None
  */
void HAL_GPIO_WritePin(GPIO_TypeDef* GPIOx, uint16_t GPIO_Pin, GPIO_PinState PinState)
{
 80014a4:	b480      	push	{r7}
 80014a6:	b083      	sub	sp, #12
 80014a8:	af00      	add	r7, sp, #0
 80014aa:	6078      	str	r0, [r7, #4]
 80014ac:	460b      	mov	r3, r1
 80014ae:	807b      	strh	r3, [r7, #2]
 80014b0:	4613      	mov	r3, r2
 80014b2:	707b      	strb	r3, [r7, #1]
  /* Check the parameters */
  assert_param(IS_GPIO_PIN(GPIO_Pin));
  assert_param(IS_GPIO_PIN_ACTION(PinState));

  if(PinState != GPIO_PIN_RESET)
 80014b4:	787b      	ldrb	r3, [r7, #1]
 80014b6:	2b00      	cmp	r3, #0
 80014b8:	d003      	beq.n	80014c2 <HAL_GPIO_WritePin+0x1e>
  {
    GPIOx->BSRR = (uint32_t)GPIO_Pin;
 80014ba:	887a      	ldrh	r2, [r7, #2]
 80014bc:	687b      	ldr	r3, [r7, #4]
 80014be:	619a      	str	r2, [r3, #24]
  }
  else
  {
    GPIOx->BRR = (uint32_t)GPIO_Pin;
  }
}
 80014c0:	e002      	b.n	80014c8 <HAL_GPIO_WritePin+0x24>
    GPIOx->BRR = (uint32_t)GPIO_Pin;
 80014c2:	887a      	ldrh	r2, [r7, #2]
 80014c4:	687b      	ldr	r3, [r7, #4]
 80014c6:	629a      	str	r2, [r3, #40]	@ 0x28
}
 80014c8:	bf00      	nop
 80014ca:	370c      	adds	r7, #12
 80014cc:	46bd      	mov	sp, r7
 80014ce:	f85d 7b04 	ldr.w	r7, [sp], #4
 80014d2:	4770      	bx	lr

080014d4 <HAL_GPIO_EXTI_IRQHandler>:
  * @brief  Handle EXTI interrupt request.
  * @param  GPIO_Pin Specifies the port pin connected to corresponding EXTI line.
  * @retval None
  */
void HAL_GPIO_EXTI_IRQHandler(uint16_t GPIO_Pin)
{
 80014d4:	b580      	push	{r7, lr}
 80014d6:	b082      	sub	sp, #8
 80014d8:	af00      	add	r7, sp, #0
 80014da:	4603      	mov	r3, r0
 80014dc:	80fb      	strh	r3, [r7, #6]
  /* EXTI line interrupt detected */
  if(__HAL_GPIO_EXTI_GET_IT(GPIO_Pin) != 0x00u)
 80014de:	4b08      	ldr	r3, [pc, #32]	@ (8001500 <HAL_GPIO_EXTI_IRQHandler+0x2c>)
 80014e0:	695a      	ldr	r2, [r3, #20]
 80014e2:	88fb      	ldrh	r3, [r7, #6]
 80014e4:	4013      	ands	r3, r2
 80014e6:	2b00      	cmp	r3, #0
 80014e8:	d006      	beq.n	80014f8 <HAL_GPIO_EXTI_IRQHandler+0x24>
  {
    __HAL_GPIO_EXTI_CLEAR_IT(GPIO_Pin);
 80014ea:	4a05      	ldr	r2, [pc, #20]	@ (8001500 <HAL_GPIO_EXTI_IRQHandler+0x2c>)
 80014ec:	88fb      	ldrh	r3, [r7, #6]
 80014ee:	6153      	str	r3, [r2, #20]
    HAL_GPIO_EXTI_Callback(GPIO_Pin);
 80014f0:	88fb      	ldrh	r3, [r7, #6]
 80014f2:	4618      	mov	r0, r3
 80014f4:	f7fe fffe 	bl	80004f4 <HAL_GPIO_EXTI_Callback>
  }
}
 80014f8:	bf00      	nop
 80014fa:	3708      	adds	r7, #8
 80014fc:	46bd      	mov	sp, r7
 80014fe:	bd80      	pop	{r7, pc}
 8001500:	40010400 	.word	0x40010400

08001504 <HAL_PWREx_GetVoltageRange>:
  * @brief Return Voltage Scaling Range.
  * @retval VOS bit field (PWR_REGULATOR_VOLTAGE_SCALE1 or PWR_REGULATOR_VOLTAGE_SCALE2
  *         or PWR_REGULATOR_VOLTAGE_SCALE1_BOOST when applicable)
  */
uint32_t HAL_PWREx_GetVoltageRange(void)
{
 8001504:	b480      	push	{r7}
 8001506:	af00      	add	r7, sp, #0
    else
    {
      return PWR_REGULATOR_VOLTAGE_SCALE1_BOOST;
    }
#else
  return  (PWR->CR1 & PWR_CR1_VOS);
 8001508:	4b04      	ldr	r3, [pc, #16]	@ (800151c <HAL_PWREx_GetVoltageRange+0x18>)
 800150a:	681b      	ldr	r3, [r3, #0]
 800150c:	f403 63c0 	and.w	r3, r3, #1536	@ 0x600
#endif
}
 8001510:	4618      	mov	r0, r3
 8001512:	46bd      	mov	sp, r7
 8001514:	f85d 7b04 	ldr.w	r7, [sp], #4
 8001518:	4770      	bx	lr
 800151a:	bf00      	nop
 800151c:	40007000 	.word	0x40007000

08001520 <HAL_PWREx_ControlVoltageScaling>:
  *        cleared before returning the status. If the flag is not cleared within
  *        50 microseconds, HAL_TIMEOUT status is reported.
  * @retval HAL Status
  */
HAL_StatusTypeDef HAL_PWREx_ControlVoltageScaling(uint32_t VoltageScaling)
{
 8001520:	b480      	push	{r7}
 8001522:	b085      	sub	sp, #20
 8001524:	af00      	add	r7, sp, #0
 8001526:	6078      	str	r0, [r7, #4]
  }

#else

  /* If Set Range 1 */
  if (VoltageScaling == PWR_REGULATOR_VOLTAGE_SCALE1)
 8001528:	687b      	ldr	r3, [r7, #4]
 800152a:	f5b3 7f00 	cmp.w	r3, #512	@ 0x200
 800152e:	d130      	bne.n	8001592 <HAL_PWREx_ControlVoltageScaling+0x72>
  {
    if (READ_BIT(PWR->CR1, PWR_CR1_VOS) != PWR_REGULATOR_VOLTAGE_SCALE1)
 8001530:	4b23      	ldr	r3, [pc, #140]	@ (80015c0 <HAL_PWREx_ControlVoltageScaling+0xa0>)
 8001532:	681b      	ldr	r3, [r3, #0]
 8001534:	f403 63c0 	and.w	r3, r3, #1536	@ 0x600
 8001538:	f5b3 7f00 	cmp.w	r3, #512	@ 0x200
 800153c:	d038      	beq.n	80015b0 <HAL_PWREx_ControlVoltageScaling+0x90>
    {
      /* Set Range 1 */
      MODIFY_REG(PWR->CR1, PWR_CR1_VOS, PWR_REGULATOR_VOLTAGE_SCALE1);
 800153e:	4b20      	ldr	r3, [pc, #128]	@ (80015c0 <HAL_PWREx_ControlVoltageScaling+0xa0>)
 8001540:	681b      	ldr	r3, [r3, #0]
 8001542:	f423 63c0 	bic.w	r3, r3, #1536	@ 0x600
 8001546:	4a1e      	ldr	r2, [pc, #120]	@ (80015c0 <HAL_PWREx_ControlVoltageScaling+0xa0>)
 8001548:	f443 7300 	orr.w	r3, r3, #512	@ 0x200
 800154c:	6013      	str	r3, [r2, #0]

      /* Wait until VOSF is cleared */
      wait_loop_index = ((PWR_FLAG_SETTING_DELAY_US * SystemCoreClock) / 1000000U) + 1U;
 800154e:	4b1d      	ldr	r3, [pc, #116]	@ (80015c4 <HAL_PWREx_ControlVoltageScaling+0xa4>)
 8001550:	681b      	ldr	r3, [r3, #0]
 8001552:	2232      	movs	r2, #50	@ 0x32
 8001554:	fb02 f303 	mul.w	r3, r2, r3
 8001558:	4a1b      	ldr	r2, [pc, #108]	@ (80015c8 <HAL_PWREx_ControlVoltageScaling+0xa8>)
 800155a:	fba2 2303 	umull	r2, r3, r2, r3
 800155e:	0c9b      	lsrs	r3, r3, #18
 8001560:	3301      	adds	r3, #1
 8001562:	60fb      	str	r3, [r7, #12]
      while ((HAL_IS_BIT_SET(PWR->SR2, PWR_SR2_VOSF)) && (wait_loop_index != 0U))
 8001564:	e002      	b.n	800156c <HAL_PWREx_ControlVoltageScaling+0x4c>
      {
        wait_loop_index--;
 8001566:	68fb      	ldr	r3, [r7, #12]
 8001568:	3b01      	subs	r3, #1
 800156a:	60fb      	str	r3, [r7, #12]
      while ((HAL_IS_BIT_SET(PWR->SR2, PWR_SR2_VOSF)) && (wait_loop_index != 0U))
 800156c:	4b14      	ldr	r3, [pc, #80]	@ (80015c0 <HAL_PWREx_ControlVoltageScaling+0xa0>)
 800156e:	695b      	ldr	r3, [r3, #20]
 8001570:	f403 6380 	and.w	r3, r3, #1024	@ 0x400
 8001574:	f5b3 6f80 	cmp.w	r3, #1024	@ 0x400
 8001578:	d102      	bne.n	8001580 <HAL_PWREx_ControlVoltageScaling+0x60>
 800157a:	68fb      	ldr	r3, [r7, #12]
 800157c:	2b00      	cmp	r3, #0
 800157e:	d1f2      	bne.n	8001566 <HAL_PWREx_ControlVoltageScaling+0x46>
      }
      if (HAL_IS_BIT_SET(PWR->SR2, PWR_SR2_VOSF))
 8001580:	4b0f      	ldr	r3, [pc, #60]	@ (80015c0 <HAL_PWREx_ControlVoltageScaling+0xa0>)
 8001582:	695b      	ldr	r3, [r3, #20]
 8001584:	f403 6380 	and.w	r3, r3, #1024	@ 0x400
 8001588:	f5b3 6f80 	cmp.w	r3, #1024	@ 0x400
 800158c:	d110      	bne.n	80015b0 <HAL_PWREx_ControlVoltageScaling+0x90>
      {
        return HAL_TIMEOUT;
 800158e:	2303      	movs	r3, #3
 8001590:	e00f      	b.n	80015b2 <HAL_PWREx_ControlVoltageScaling+0x92>
      }
    }
  }
  else
  {
    if (READ_BIT(PWR->CR1, PWR_CR1_VOS) != PWR_REGULATOR_VOLTAGE_SCALE2)
 8001592:	4b0b      	ldr	r3, [pc, #44]	@ (80015c0 <HAL_PWREx_ControlVoltageScaling+0xa0>)
 8001594:	681b      	ldr	r3, [r3, #0]
 8001596:	f403 63c0 	and.w	r3, r3, #1536	@ 0x600
 800159a:	f5b3 6f80 	cmp.w	r3, #1024	@ 0x400
 800159e:	d007      	beq.n	80015b0 <HAL_PWREx_ControlVoltageScaling+0x90>
    {
      /* Set Range 2 */
      MODIFY_REG(PWR->CR1, PWR_CR1_VOS, PWR_REGULATOR_VOLTAGE_SCALE2);
 80015a0:	4b07      	ldr	r3, [pc, #28]	@ (80015c0 <HAL_PWREx_ControlVoltageScaling+0xa0>)
 80015a2:	681b      	ldr	r3, [r3, #0]
 80015a4:	f423 63c0 	bic.w	r3, r3, #1536	@ 0x600
 80015a8:	4a05      	ldr	r2, [pc, #20]	@ (80015c0 <HAL_PWREx_ControlVoltageScaling+0xa0>)
 80015aa:	f443 6380 	orr.w	r3, r3, #1024	@ 0x400
 80015ae:	6013      	str	r3, [r2, #0]
      /* No need to wait for VOSF to be cleared for this transition */
    }
  }
#endif

  return HAL_OK;
 80015b0:	2300      	movs	r3, #0
}
 80015b2:	4618      	mov	r0, r3
 80015b4:	3714      	adds	r7, #20
 80015b6:	46bd      	mov	sp, r7
 80015b8:	f85d 7b04 	ldr.w	r7, [sp], #4
 80015bc:	4770      	bx	lr
 80015be:	bf00      	nop
 80015c0:	40007000 	.word	0x40007000
 80015c4:	20000028 	.word	0x20000028
 80015c8:	431bde83 	.word	0x431bde83

080015cc <HAL_RCC_OscConfig>:
  * @note   If HSE failed to start, HSE should be disabled before recalling
            HAL_RCC_OscConfig().
  * @retval HAL status
  */
HAL_StatusTypeDef HAL_RCC_OscConfig(RCC_OscInitTypeDef  *RCC_OscInitStruct)
{
 80015cc:	b580      	push	{r7, lr}
 80015ce:	b088      	sub	sp, #32
 80015d0:	af00      	add	r7, sp, #0
 80015d2:	6078      	str	r0, [r7, #4]
  uint32_t tickstart;
  HAL_StatusTypeDef status;
  uint32_t sysclk_source, pll_config;

  /* Check Null pointer */
  if(RCC_OscInitStruct == NULL)
 80015d4:	687b      	ldr	r3, [r7, #4]
 80015d6:	2b00      	cmp	r3, #0
 80015d8:	d101      	bne.n	80015de <HAL_RCC_OscConfig+0x12>
  {
    return HAL_ERROR;
 80015da:	2301      	movs	r3, #1
 80015dc:	e3ca      	b.n	8001d74 <HAL_RCC_OscConfig+0x7a8>
  }

  /* Check the parameters */
  assert_param(IS_RCC_OSCILLATORTYPE(RCC_OscInitStruct->OscillatorType));

  sysclk_source = __HAL_RCC_GET_SYSCLK_SOURCE();
 80015de:	4b97      	ldr	r3, [pc, #604]	@ (800183c <HAL_RCC_OscConfig+0x270>)
 80015e0:	689b      	ldr	r3, [r3, #8]
 80015e2:	f003 030c 	and.w	r3, r3, #12
 80015e6:	61bb      	str	r3, [r7, #24]
  pll_config = __HAL_RCC_GET_PLL_OSCSOURCE();
 80015e8:	4b94      	ldr	r3, [pc, #592]	@ (800183c <HAL_RCC_OscConfig+0x270>)
 80015ea:	68db      	ldr	r3, [r3, #12]
 80015ec:	f003 0303 	and.w	r3, r3, #3
 80015f0:	617b      	str	r3, [r7, #20]

  /*----------------------------- MSI Configuration --------------------------*/
  if(((RCC_OscInitStruct->OscillatorType) & RCC_OSCILLATORTYPE_MSI) == RCC_OSCILLATORTYPE_MSI)
 80015f2:	687b      	ldr	r3, [r7, #4]
 80015f4:	681b      	ldr	r3, [r3, #0]
 80015f6:	f003 0310 	and.w	r3, r3, #16
 80015fa:	2b00      	cmp	r3, #0
 80015fc:	f000 80e4 	beq.w	80017c8 <HAL_RCC_OscConfig+0x1fc>
    assert_param(IS_RCC_MSI(RCC_OscInitStruct->MSIState));
    assert_param(IS_RCC_MSICALIBRATION_VALUE(RCC_OscInitStruct->MSICalibrationValue));
    assert_param(IS_RCC_MSI_CLOCK_RANGE(RCC_OscInitStruct->MSIClockRange));

    /* Check if MSI is used as system clock or as PLL source when PLL is selected as system clock */
    if((sysclk_source == RCC_CFGR_SWS_MSI) ||
 8001600:	69bb      	ldr	r3, [r7, #24]
 8001602:	2b00      	cmp	r3, #0
 8001604:	d007      	beq.n	8001616 <HAL_RCC_OscConfig+0x4a>
 8001606:	69bb      	ldr	r3, [r7, #24]
 8001608:	2b0c      	cmp	r3, #12
 800160a:	f040 808b 	bne.w	8001724 <HAL_RCC_OscConfig+0x158>
       ((sysclk_source == RCC_CFGR_SWS_PLL) && (pll_config == RCC_PLLSOURCE_MSI)))
 800160e:	697b      	ldr	r3, [r7, #20]
 8001610:	2b01      	cmp	r3, #1
 8001612:	f040 8087 	bne.w	8001724 <HAL_RCC_OscConfig+0x158>
    {
      if((READ_BIT(RCC->CR, RCC_CR_MSIRDY) != 0U) && (RCC_OscInitStruct->MSIState == RCC_MSI_OFF))
 8001616:	4b89      	ldr	r3, [pc, #548]	@ (800183c <HAL_RCC_OscConfig+0x270>)
 8001618:	681b      	ldr	r3, [r3, #0]
 800161a:	f003 0302 	and.w	r3, r3, #2
 800161e:	2b00      	cmp	r3, #0
 8001620:	d005      	beq.n	800162e <HAL_RCC_OscConfig+0x62>
 8001622:	687b      	ldr	r3, [r7, #4]
 8001624:	699b      	ldr	r3, [r3, #24]
 8001626:	2b00      	cmp	r3, #0
 8001628:	d101      	bne.n	800162e <HAL_RCC_OscConfig+0x62>
      {
        return HAL_ERROR;
 800162a:	2301      	movs	r3, #1
 800162c:	e3a2      	b.n	8001d74 <HAL_RCC_OscConfig+0x7a8>
      else
      {
        /* To correctly read data from FLASH memory, the number of wait states (LATENCY)
           must be correctly programmed according to the frequency of the CPU clock
           (HCLK) and the supply voltage of the device. */
        if(RCC_OscInitStruct->MSIClockRange > __HAL_RCC_GET_MSI_RANGE())
 800162e:	687b      	ldr	r3, [r7, #4]
 8001630:	6a1a      	ldr	r2, [r3, #32]
 8001632:	4b82      	ldr	r3, [pc, #520]	@ (800183c <HAL_RCC_OscConfig+0x270>)
 8001634:	681b      	ldr	r3, [r3, #0]
 8001636:	f003 0308 	and.w	r3, r3, #8
 800163a:	2b00      	cmp	r3, #0
 800163c:	d004      	beq.n	8001648 <HAL_RCC_OscConfig+0x7c>
 800163e:	4b7f      	ldr	r3, [pc, #508]	@ (800183c <HAL_RCC_OscConfig+0x270>)
 8001640:	681b      	ldr	r3, [r3, #0]
 8001642:	f003 03f0 	and.w	r3, r3, #240	@ 0xf0
 8001646:	e005      	b.n	8001654 <HAL_RCC_OscConfig+0x88>
 8001648:	4b7c      	ldr	r3, [pc, #496]	@ (800183c <HAL_RCC_OscConfig+0x270>)
 800164a:	f8d3 3094 	ldr.w	r3, [r3, #148]	@ 0x94
 800164e:	091b      	lsrs	r3, r3, #4
 8001650:	f003 03f0 	and.w	r3, r3, #240	@ 0xf0
 8001654:	4293      	cmp	r3, r2
 8001656:	d223      	bcs.n	80016a0 <HAL_RCC_OscConfig+0xd4>
        {
          /* First increase number of wait states update if necessary */
          if(RCC_SetFlashLatencyFromMSIRange(RCC_OscInitStruct->MSIClockRange) != HAL_OK)
 8001658:	687b      	ldr	r3, [r7, #4]
 800165a:	6a1b      	ldr	r3, [r3, #32]
 800165c:	4618      	mov	r0, r3
 800165e:	f000 fd55 	bl	800210c <RCC_SetFlashLatencyFromMSIRange>
 8001662:	4603      	mov	r3, r0
 8001664:	2b00      	cmp	r3, #0
 8001666:	d001      	beq.n	800166c <HAL_RCC_OscConfig+0xa0>
          {
            return HAL_ERROR;
 8001668:	2301      	movs	r3, #1
 800166a:	e383      	b.n	8001d74 <HAL_RCC_OscConfig+0x7a8>
          }

          /* Selects the Multiple Speed oscillator (MSI) clock range .*/
          __HAL_RCC_MSI_RANGE_CONFIG(RCC_OscInitStruct->MSIClockRange);
 800166c:	4b73      	ldr	r3, [pc, #460]	@ (800183c <HAL_RCC_OscConfig+0x270>)
 800166e:	681b      	ldr	r3, [r3, #0]
 8001670:	4a72      	ldr	r2, [pc, #456]	@ (800183c <HAL_RCC_OscConfig+0x270>)
 8001672:	f043 0308 	orr.w	r3, r3, #8
 8001676:	6013      	str	r3, [r2, #0]
 8001678:	4b70      	ldr	r3, [pc, #448]	@ (800183c <HAL_RCC_OscConfig+0x270>)
 800167a:	681b      	ldr	r3, [r3, #0]
 800167c:	f023 02f0 	bic.w	r2, r3, #240	@ 0xf0
 8001680:	687b      	ldr	r3, [r7, #4]
 8001682:	6a1b      	ldr	r3, [r3, #32]
 8001684:	496d      	ldr	r1, [pc, #436]	@ (800183c <HAL_RCC_OscConfig+0x270>)
 8001686:	4313      	orrs	r3, r2
 8001688:	600b      	str	r3, [r1, #0]
          /* Adjusts the Multiple Speed oscillator (MSI) calibration value.*/
          __HAL_RCC_MSI_CALIBRATIONVALUE_ADJUST(RCC_OscInitStruct->MSICalibrationValue);
 800168a:	4b6c      	ldr	r3, [pc, #432]	@ (800183c <HAL_RCC_OscConfig+0x270>)
 800168c:	685b      	ldr	r3, [r3, #4]
 800168e:	f423 427f 	bic.w	r2, r3, #65280	@ 0xff00
 8001692:	687b      	ldr	r3, [r7, #4]
 8001694:	69db      	ldr	r3, [r3, #28]
 8001696:	021b      	lsls	r3, r3, #8
 8001698:	4968      	ldr	r1, [pc, #416]	@ (800183c <HAL_RCC_OscConfig+0x270>)
 800169a:	4313      	orrs	r3, r2
 800169c:	604b      	str	r3, [r1, #4]
 800169e:	e025      	b.n	80016ec <HAL_RCC_OscConfig+0x120>
        }
        else
        {
          /* Else, keep current flash latency while decreasing applies */
          /* Selects the Multiple Speed oscillator (MSI) clock range .*/
          __HAL_RCC_MSI_RANGE_CONFIG(RCC_OscInitStruct->MSIClockRange);
 80016a0:	4b66      	ldr	r3, [pc, #408]	@ (800183c <HAL_RCC_OscConfig+0x270>)
 80016a2:	681b      	ldr	r3, [r3, #0]
 80016a4:	4a65      	ldr	r2, [pc, #404]	@ (800183c <HAL_RCC_OscConfig+0x270>)
 80016a6:	f043 0308 	orr.w	r3, r3, #8
 80016aa:	6013      	str	r3, [r2, #0]
 80016ac:	4b63      	ldr	r3, [pc, #396]	@ (800183c <HAL_RCC_OscConfig+0x270>)
 80016ae:	681b      	ldr	r3, [r3, #0]
 80016b0:	f023 02f0 	bic.w	r2, r3, #240	@ 0xf0
 80016b4:	687b      	ldr	r3, [r7, #4]
 80016b6:	6a1b      	ldr	r3, [r3, #32]
 80016b8:	4960      	ldr	r1, [pc, #384]	@ (800183c <HAL_RCC_OscConfig+0x270>)
 80016ba:	4313      	orrs	r3, r2
 80016bc:	600b      	str	r3, [r1, #0]
          /* Adjusts the Multiple Speed oscillator (MSI) calibration value.*/
          __HAL_RCC_MSI_CALIBRATIONVALUE_ADJUST(RCC_OscInitStruct->MSICalibrationValue);
 80016be:	4b5f      	ldr	r3, [pc, #380]	@ (800183c <HAL_RCC_OscConfig+0x270>)
 80016c0:	685b      	ldr	r3, [r3, #4]
 80016c2:	f423 427f 	bic.w	r2, r3, #65280	@ 0xff00
 80016c6:	687b      	ldr	r3, [r7, #4]
 80016c8:	69db      	ldr	r3, [r3, #28]
 80016ca:	021b      	lsls	r3, r3, #8
 80016cc:	495b      	ldr	r1, [pc, #364]	@ (800183c <HAL_RCC_OscConfig+0x270>)
 80016ce:	4313      	orrs	r3, r2
 80016d0:	604b      	str	r3, [r1, #4]

          /* Decrease number of wait states update if necessary */
          /* Only possible when MSI is the System clock source  */
          if(sysclk_source == RCC_CFGR_SWS_MSI)
 80016d2:	69bb      	ldr	r3, [r7, #24]
 80016d4:	2b00      	cmp	r3, #0
 80016d6:	d109      	bne.n	80016ec <HAL_RCC_OscConfig+0x120>
          {
            if(RCC_SetFlashLatencyFromMSIRange(RCC_OscInitStruct->MSIClockRange) != HAL_OK)
 80016d8:	687b      	ldr	r3, [r7, #4]
 80016da:	6a1b      	ldr	r3, [r3, #32]
 80016dc:	4618      	mov	r0, r3
 80016de:	f000 fd15 	bl	800210c <RCC_SetFlashLatencyFromMSIRange>
 80016e2:	4603      	mov	r3, r0
 80016e4:	2b00      	cmp	r3, #0
 80016e6:	d001      	beq.n	80016ec <HAL_RCC_OscConfig+0x120>
            {
              return HAL_ERROR;
 80016e8:	2301      	movs	r3, #1
 80016ea:	e343      	b.n	8001d74 <HAL_RCC_OscConfig+0x7a8>
            }
          }
        }

        /* Update the SystemCoreClock global variable */
        SystemCoreClock = HAL_RCC_GetSysClockFreq() >> (AHBPrescTable[READ_BIT(RCC->CFGR, RCC_CFGR_HPRE) >> RCC_CFGR_HPRE_Pos] & 0x1FU);
 80016ec:	f000 fc4a 	bl	8001f84 <HAL_RCC_GetSysClockFreq>
 80016f0:	4602      	mov	r2, r0
 80016f2:	4b52      	ldr	r3, [pc, #328]	@ (800183c <HAL_RCC_OscConfig+0x270>)
 80016f4:	689b      	ldr	r3, [r3, #8]
 80016f6:	091b      	lsrs	r3, r3, #4
 80016f8:	f003 030f 	and.w	r3, r3, #15
 80016fc:	4950      	ldr	r1, [pc, #320]	@ (8001840 <HAL_RCC_OscConfig+0x274>)
 80016fe:	5ccb      	ldrb	r3, [r1, r3]
 8001700:	f003 031f 	and.w	r3, r3, #31
 8001704:	fa22 f303 	lsr.w	r3, r2, r3
 8001708:	4a4e      	ldr	r2, [pc, #312]	@ (8001844 <HAL_RCC_OscConfig+0x278>)
 800170a:	6013      	str	r3, [r2, #0]

        /* Configure the source of time base considering new system clocks settings*/
        status = HAL_InitTick(uwTickPrio);
 800170c:	4b4e      	ldr	r3, [pc, #312]	@ (8001848 <HAL_RCC_OscConfig+0x27c>)
 800170e:	681b      	ldr	r3, [r3, #0]
 8001710:	4618      	mov	r0, r3
 8001712:	f7ff fb73 	bl	8000dfc <HAL_InitTick>
 8001716:	4603      	mov	r3, r0
 8001718:	73fb      	strb	r3, [r7, #15]
        if(status != HAL_OK)
 800171a:	7bfb      	ldrb	r3, [r7, #15]
 800171c:	2b00      	cmp	r3, #0
 800171e:	d052      	beq.n	80017c6 <HAL_RCC_OscConfig+0x1fa>
        {
          return status;
 8001720:	7bfb      	ldrb	r3, [r7, #15]
 8001722:	e327      	b.n	8001d74 <HAL_RCC_OscConfig+0x7a8>
      }
    }
    else
    {
      /* Check the MSI State */
      if(RCC_OscInitStruct->MSIState != RCC_MSI_OFF)
 8001724:	687b      	ldr	r3, [r7, #4]
 8001726:	699b      	ldr	r3, [r3, #24]
 8001728:	2b00      	cmp	r3, #0
 800172a:	d032      	beq.n	8001792 <HAL_RCC_OscConfig+0x1c6>
      {
        /* Enable the Internal High Speed oscillator (MSI). */
        __HAL_RCC_MSI_ENABLE();
 800172c:	4b43      	ldr	r3, [pc, #268]	@ (800183c <HAL_RCC_OscConfig+0x270>)
 800172e:	681b      	ldr	r3, [r3, #0]
 8001730:	4a42      	ldr	r2, [pc, #264]	@ (800183c <HAL_RCC_OscConfig+0x270>)
 8001732:	f043 0301 	orr.w	r3, r3, #1
 8001736:	6013      	str	r3, [r2, #0]

        /* Get timeout */
        tickstart = HAL_GetTick();
 8001738:	f7ff fbb0 	bl	8000e9c <HAL_GetTick>
 800173c:	6138      	str	r0, [r7, #16]

        /* Wait till MSI is ready */
        while(READ_BIT(RCC->CR, RCC_CR_MSIRDY) == 0U)
 800173e:	e008      	b.n	8001752 <HAL_RCC_OscConfig+0x186>
        {
          if((HAL_GetTick() - tickstart) > MSI_TIMEOUT_VALUE)
 8001740:	f7ff fbac 	bl	8000e9c <HAL_GetTick>
 8001744:	4602      	mov	r2, r0
 8001746:	693b      	ldr	r3, [r7, #16]
 8001748:	1ad3      	subs	r3, r2, r3
 800174a:	2b02      	cmp	r3, #2
 800174c:	d901      	bls.n	8001752 <HAL_RCC_OscConfig+0x186>
          {
            return HAL_TIMEOUT;
 800174e:	2303      	movs	r3, #3
 8001750:	e310      	b.n	8001d74 <HAL_RCC_OscConfig+0x7a8>
        while(READ_BIT(RCC->CR, RCC_CR_MSIRDY) == 0U)
 8001752:	4b3a      	ldr	r3, [pc, #232]	@ (800183c <HAL_RCC_OscConfig+0x270>)
 8001754:	681b      	ldr	r3, [r3, #0]
 8001756:	f003 0302 	and.w	r3, r3, #2
 800175a:	2b00      	cmp	r3, #0
 800175c:	d0f0      	beq.n	8001740 <HAL_RCC_OscConfig+0x174>
          }
        }
         /* Selects the Multiple Speed oscillator (MSI) clock range .*/
        __HAL_RCC_MSI_RANGE_CONFIG(RCC_OscInitStruct->MSIClockRange);
 800175e:	4b37      	ldr	r3, [pc, #220]	@ (800183c <HAL_RCC_OscConfig+0x270>)
 8001760:	681b      	ldr	r3, [r3, #0]
 8001762:	4a36      	ldr	r2, [pc, #216]	@ (800183c <HAL_RCC_OscConfig+0x270>)
 8001764:	f043 0308 	orr.w	r3, r3, #8
 8001768:	6013      	str	r3, [r2, #0]
 800176a:	4b34      	ldr	r3, [pc, #208]	@ (800183c <HAL_RCC_OscConfig+0x270>)
 800176c:	681b      	ldr	r3, [r3, #0]
 800176e:	f023 02f0 	bic.w	r2, r3, #240	@ 0xf0
 8001772:	687b      	ldr	r3, [r7, #4]
 8001774:	6a1b      	ldr	r3, [r3, #32]
 8001776:	4931      	ldr	r1, [pc, #196]	@ (800183c <HAL_RCC_OscConfig+0x270>)
 8001778:	4313      	orrs	r3, r2
 800177a:	600b      	str	r3, [r1, #0]
         /* Adjusts the Multiple Speed oscillator (MSI) calibration value.*/
        __HAL_RCC_MSI_CALIBRATIONVALUE_ADJUST(RCC_OscInitStruct->MSICalibrationValue);
 800177c:	4b2f      	ldr	r3, [pc, #188]	@ (800183c <HAL_RCC_OscConfig+0x270>)
 800177e:	685b      	ldr	r3, [r3, #4]
 8001780:	f423 427f 	bic.w	r2, r3, #65280	@ 0xff00
 8001784:	687b      	ldr	r3, [r7, #4]
 8001786:	69db      	ldr	r3, [r3, #28]
 8001788:	021b      	lsls	r3, r3, #8
 800178a:	492c      	ldr	r1, [pc, #176]	@ (800183c <HAL_RCC_OscConfig+0x270>)
 800178c:	4313      	orrs	r3, r2
 800178e:	604b      	str	r3, [r1, #4]
 8001790:	e01a      	b.n	80017c8 <HAL_RCC_OscConfig+0x1fc>

      }
      else
      {
        /* Disable the Internal High Speed oscillator (MSI). */
        __HAL_RCC_MSI_DISABLE();
 8001792:	4b2a      	ldr	r3, [pc, #168]	@ (800183c <HAL_RCC_OscConfig+0x270>)
 8001794:	681b      	ldr	r3, [r3, #0]
 8001796:	4a29      	ldr	r2, [pc, #164]	@ (800183c <HAL_RCC_OscConfig+0x270>)
 8001798:	f023 0301 	bic.w	r3, r3, #1
 800179c:	6013      	str	r3, [r2, #0]

        /* Get timeout */
        tickstart = HAL_GetTick();
 800179e:	f7ff fb7d 	bl	8000e9c <HAL_GetTick>
 80017a2:	6138      	str	r0, [r7, #16]

        /* Wait till MSI is ready */
        while(READ_BIT(RCC->CR, RCC_CR_MSIRDY) != 0U)
 80017a4:	e008      	b.n	80017b8 <HAL_RCC_OscConfig+0x1ec>
        {
          if((HAL_GetTick() - tickstart) > MSI_TIMEOUT_VALUE)
 80017a6:	f7ff fb79 	bl	8000e9c <HAL_GetTick>
 80017aa:	4602      	mov	r2, r0
 80017ac:	693b      	ldr	r3, [r7, #16]
 80017ae:	1ad3      	subs	r3, r2, r3
 80017b0:	2b02      	cmp	r3, #2
 80017b2:	d901      	bls.n	80017b8 <HAL_RCC_OscConfig+0x1ec>
          {
            return HAL_TIMEOUT;
 80017b4:	2303      	movs	r3, #3
 80017b6:	e2dd      	b.n	8001d74 <HAL_RCC_OscConfig+0x7a8>
        while(READ_BIT(RCC->CR, RCC_CR_MSIRDY) != 0U)
 80017b8:	4b20      	ldr	r3, [pc, #128]	@ (800183c <HAL_RCC_OscConfig+0x270>)
 80017ba:	681b      	ldr	r3, [r3, #0]
 80017bc:	f003 0302 	and.w	r3, r3, #2
 80017c0:	2b00      	cmp	r3, #0
 80017c2:	d1f0      	bne.n	80017a6 <HAL_RCC_OscConfig+0x1da>
 80017c4:	e000      	b.n	80017c8 <HAL_RCC_OscConfig+0x1fc>
      if((READ_BIT(RCC->CR, RCC_CR_MSIRDY) != 0U) && (RCC_OscInitStruct->MSIState == RCC_MSI_OFF))
 80017c6:	bf00      	nop
        }
      }
    }
  }
  /*------------------------------- HSE Configuration ------------------------*/
  if(((RCC_OscInitStruct->OscillatorType) & RCC_OSCILLATORTYPE_HSE) == RCC_OSCILLATORTYPE_HSE)
 80017c8:	687b      	ldr	r3, [r7, #4]
 80017ca:	681b      	ldr	r3, [r3, #0]
 80017cc:	f003 0301 	and.w	r3, r3, #1
 80017d0:	2b00      	cmp	r3, #0
 80017d2:	d074      	beq.n	80018be <HAL_RCC_OscConfig+0x2f2>
  {
    /* Check the parameters */
    assert_param(IS_RCC_HSE(RCC_OscInitStruct->HSEState));

    /* When the HSE is used as system clock or clock source for PLL in these cases it is not allowed to be disabled */
    if((sysclk_source == RCC_CFGR_SWS_HSE) ||
 80017d4:	69bb      	ldr	r3, [r7, #24]
 80017d6:	2b08      	cmp	r3, #8
 80017d8:	d005      	beq.n	80017e6 <HAL_RCC_OscConfig+0x21a>
 80017da:	69bb      	ldr	r3, [r7, #24]
 80017dc:	2b0c      	cmp	r3, #12
 80017de:	d10e      	bne.n	80017fe <HAL_RCC_OscConfig+0x232>
       ((sysclk_source == RCC_CFGR_SWS_PLL) && (pll_config == RCC_PLLSOURCE_HSE)))
 80017e0:	697b      	ldr	r3, [r7, #20]
 80017e2:	2b03      	cmp	r3, #3
 80017e4:	d10b      	bne.n	80017fe <HAL_RCC_OscConfig+0x232>
    {
      if((READ_BIT(RCC->CR, RCC_CR_HSERDY) != 0U) && (RCC_OscInitStruct->HSEState == RCC_HSE_OFF))
 80017e6:	4b15      	ldr	r3, [pc, #84]	@ (800183c <HAL_RCC_OscConfig+0x270>)
 80017e8:	681b      	ldr	r3, [r3, #0]
 80017ea:	f403 3300 	and.w	r3, r3, #131072	@ 0x20000
 80017ee:	2b00      	cmp	r3, #0
 80017f0:	d064      	beq.n	80018bc <HAL_RCC_OscConfig+0x2f0>
 80017f2:	687b      	ldr	r3, [r7, #4]
 80017f4:	685b      	ldr	r3, [r3, #4]
 80017f6:	2b00      	cmp	r3, #0
 80017f8:	d160      	bne.n	80018bc <HAL_RCC_OscConfig+0x2f0>
      {
        return HAL_ERROR;
 80017fa:	2301      	movs	r3, #1
 80017fc:	e2ba      	b.n	8001d74 <HAL_RCC_OscConfig+0x7a8>
      }
    }
    else
    {
      /* Set the new HSE configuration ---------------------------------------*/
      __HAL_RCC_HSE_CONFIG(RCC_OscInitStruct->HSEState);
 80017fe:	687b      	ldr	r3, [r7, #4]
 8001800:	685b      	ldr	r3, [r3, #4]
 8001802:	f5b3 3f80 	cmp.w	r3, #65536	@ 0x10000
 8001806:	d106      	bne.n	8001816 <HAL_RCC_OscConfig+0x24a>
 8001808:	4b0c      	ldr	r3, [pc, #48]	@ (800183c <HAL_RCC_OscConfig+0x270>)
 800180a:	681b      	ldr	r3, [r3, #0]
 800180c:	4a0b      	ldr	r2, [pc, #44]	@ (800183c <HAL_RCC_OscConfig+0x270>)
 800180e:	f443 3380 	orr.w	r3, r3, #65536	@ 0x10000
 8001812:	6013      	str	r3, [r2, #0]
 8001814:	e026      	b.n	8001864 <HAL_RCC_OscConfig+0x298>
 8001816:	687b      	ldr	r3, [r7, #4]
 8001818:	685b      	ldr	r3, [r3, #4]
 800181a:	f5b3 2fa0 	cmp.w	r3, #327680	@ 0x50000
 800181e:	d115      	bne.n	800184c <HAL_RCC_OscConfig+0x280>
 8001820:	4b06      	ldr	r3, [pc, #24]	@ (800183c <HAL_RCC_OscConfig+0x270>)
 8001822:	681b      	ldr	r3, [r3, #0]
 8001824:	4a05      	ldr	r2, [pc, #20]	@ (800183c <HAL_RCC_OscConfig+0x270>)
 8001826:	f443 2380 	orr.w	r3, r3, #262144	@ 0x40000
 800182a:	6013      	str	r3, [r2, #0]
 800182c:	4b03      	ldr	r3, [pc, #12]	@ (800183c <HAL_RCC_OscConfig+0x270>)
 800182e:	681b      	ldr	r3, [r3, #0]
 8001830:	4a02      	ldr	r2, [pc, #8]	@ (800183c <HAL_RCC_OscConfig+0x270>)
 8001832:	f443 3380 	orr.w	r3, r3, #65536	@ 0x10000
 8001836:	6013      	str	r3, [r2, #0]
 8001838:	e014      	b.n	8001864 <HAL_RCC_OscConfig+0x298>
 800183a:	bf00      	nop
 800183c:	40021000 	.word	0x40021000
 8001840:	08003cf4 	.word	0x08003cf4
 8001844:	20000028 	.word	0x20000028
 8001848:	2000002c 	.word	0x2000002c
 800184c:	4ba0      	ldr	r3, [pc, #640]	@ (8001ad0 <HAL_RCC_OscConfig+0x504>)
 800184e:	681b      	ldr	r3, [r3, #0]
 8001850:	4a9f      	ldr	r2, [pc, #636]	@ (8001ad0 <HAL_RCC_OscConfig+0x504>)
 8001852:	f423 3380 	bic.w	r3, r3, #65536	@ 0x10000
 8001856:	6013      	str	r3, [r2, #0]
 8001858:	4b9d      	ldr	r3, [pc, #628]	@ (8001ad0 <HAL_RCC_OscConfig+0x504>)
 800185a:	681b      	ldr	r3, [r3, #0]
 800185c:	4a9c      	ldr	r2, [pc, #624]	@ (8001ad0 <HAL_RCC_OscConfig+0x504>)
 800185e:	f423 2380 	bic.w	r3, r3, #262144	@ 0x40000
 8001862:	6013      	str	r3, [r2, #0]

      /* Check the HSE State */
      if(RCC_OscInitStruct->HSEState != RCC_HSE_OFF)
 8001864:	687b      	ldr	r3, [r7, #4]
 8001866:	685b      	ldr	r3, [r3, #4]
 8001868:	2b00      	cmp	r3, #0
 800186a:	d013      	beq.n	8001894 <HAL_RCC_OscConfig+0x2c8>
      {
        /* Get Start Tick*/
        tickstart = HAL_GetTick();
 800186c:	f7ff fb16 	bl	8000e9c <HAL_GetTick>
 8001870:	6138      	str	r0, [r7, #16]

        /* Wait till HSE is ready */
        while(READ_BIT(RCC->CR, RCC_CR_HSERDY) == 0U)
 8001872:	e008      	b.n	8001886 <HAL_RCC_OscConfig+0x2ba>
        {
          if((HAL_GetTick() - tickstart) > HSE_TIMEOUT_VALUE)
 8001874:	f7ff fb12 	bl	8000e9c <HAL_GetTick>
 8001878:	4602      	mov	r2, r0
 800187a:	693b      	ldr	r3, [r7, #16]
 800187c:	1ad3      	subs	r3, r2, r3
 800187e:	2b64      	cmp	r3, #100	@ 0x64
 8001880:	d901      	bls.n	8001886 <HAL_RCC_OscConfig+0x2ba>
          {
            return HAL_TIMEOUT;
 8001882:	2303      	movs	r3, #3
 8001884:	e276      	b.n	8001d74 <HAL_RCC_OscConfig+0x7a8>
        while(READ_BIT(RCC->CR, RCC_CR_HSERDY) == 0U)
 8001886:	4b92      	ldr	r3, [pc, #584]	@ (8001ad0 <HAL_RCC_OscConfig+0x504>)
 8001888:	681b      	ldr	r3, [r3, #0]
 800188a:	f403 3300 	and.w	r3, r3, #131072	@ 0x20000
 800188e:	2b00      	cmp	r3, #0
 8001890:	d0f0      	beq.n	8001874 <HAL_RCC_OscConfig+0x2a8>
 8001892:	e014      	b.n	80018be <HAL_RCC_OscConfig+0x2f2>
        }
      }
      else
      {
        /* Get Start Tick*/
        tickstart = HAL_GetTick();
 8001894:	f7ff fb02 	bl	8000e9c <HAL_GetTick>
 8001898:	6138      	str	r0, [r7, #16]

        /* Wait till HSE is disabled */
        while(READ_BIT(RCC->CR, RCC_CR_HSERDY) != 0U)
 800189a:	e008      	b.n	80018ae <HAL_RCC_OscConfig+0x2e2>
        {
          if((HAL_GetTick() - tickstart) > HSE_TIMEOUT_VALUE)
 800189c:	f7ff fafe 	bl	8000e9c <HAL_GetTick>
 80018a0:	4602      	mov	r2, r0
 80018a2:	693b      	ldr	r3, [r7, #16]
 80018a4:	1ad3      	subs	r3, r2, r3
 80018a6:	2b64      	cmp	r3, #100	@ 0x64
 80018a8:	d901      	bls.n	80018ae <HAL_RCC_OscConfig+0x2e2>
          {
            return HAL_TIMEOUT;
 80018aa:	2303      	movs	r3, #3
 80018ac:	e262      	b.n	8001d74 <HAL_RCC_OscConfig+0x7a8>
        while(READ_BIT(RCC->CR, RCC_CR_HSERDY) != 0U)
 80018ae:	4b88      	ldr	r3, [pc, #544]	@ (8001ad0 <HAL_RCC_OscConfig+0x504>)
 80018b0:	681b      	ldr	r3, [r3, #0]
 80018b2:	f403 3300 	and.w	r3, r3, #131072	@ 0x20000
 80018b6:	2b00      	cmp	r3, #0
 80018b8:	d1f0      	bne.n	800189c <HAL_RCC_OscConfig+0x2d0>
 80018ba:	e000      	b.n	80018be <HAL_RCC_OscConfig+0x2f2>
      if((READ_BIT(RCC->CR, RCC_CR_HSERDY) != 0U) && (RCC_OscInitStruct->HSEState == RCC_HSE_OFF))
 80018bc:	bf00      	nop
        }
      }
    }
  }
  /*----------------------------- HSI Configuration --------------------------*/
  if(((RCC_OscInitStruct->OscillatorType) & RCC_OSCILLATORTYPE_HSI) == RCC_OSCILLATORTYPE_HSI)
 80018be:	687b      	ldr	r3, [r7, #4]
 80018c0:	681b      	ldr	r3, [r3, #0]
 80018c2:	f003 0302 	and.w	r3, r3, #2
 80018c6:	2b00      	cmp	r3, #0
 80018c8:	d060      	beq.n	800198c <HAL_RCC_OscConfig+0x3c0>
    /* Check the parameters */
    assert_param(IS_RCC_HSI(RCC_OscInitStruct->HSIState));
    assert_param(IS_RCC_HSI_CALIBRATION_VALUE(RCC_OscInitStruct->HSICalibrationValue));

    /* Check if HSI is used as system clock or as PLL source when PLL is selected as system clock */
    if((sysclk_source == RCC_CFGR_SWS_HSI) ||
 80018ca:	69bb      	ldr	r3, [r7, #24]
 80018cc:	2b04      	cmp	r3, #4
 80018ce:	d005      	beq.n	80018dc <HAL_RCC_OscConfig+0x310>
 80018d0:	69bb      	ldr	r3, [r7, #24]
 80018d2:	2b0c      	cmp	r3, #12
 80018d4:	d119      	bne.n	800190a <HAL_RCC_OscConfig+0x33e>
       ((sysclk_source == RCC_CFGR_SWS_PLL) && (pll_config == RCC_PLLSOURCE_HSI)))
 80018d6:	697b      	ldr	r3, [r7, #20]
 80018d8:	2b02      	cmp	r3, #2
 80018da:	d116      	bne.n	800190a <HAL_RCC_OscConfig+0x33e>
    {
      /* When HSI is used as system clock it will not be disabled */
      if((READ_BIT(RCC->CR, RCC_CR_HSIRDY) != 0U) && (RCC_OscInitStruct->HSIState == RCC_HSI_OFF))
 80018dc:	4b7c      	ldr	r3, [pc, #496]	@ (8001ad0 <HAL_RCC_OscConfig+0x504>)
 80018de:	681b      	ldr	r3, [r3, #0]
 80018e0:	f403 6380 	and.w	r3, r3, #1024	@ 0x400
 80018e4:	2b00      	cmp	r3, #0
 80018e6:	d005      	beq.n	80018f4 <HAL_RCC_OscConfig+0x328>
 80018e8:	687b      	ldr	r3, [r7, #4]
 80018ea:	68db      	ldr	r3, [r3, #12]
 80018ec:	2b00      	cmp	r3, #0
 80018ee:	d101      	bne.n	80018f4 <HAL_RCC_OscConfig+0x328>
      {
        return HAL_ERROR;
 80018f0:	2301      	movs	r3, #1
 80018f2:	e23f      	b.n	8001d74 <HAL_RCC_OscConfig+0x7a8>
      }
      /* Otherwise, just the calibration is allowed */
      else
      {
        /* Adjusts the Internal High Speed oscillator (HSI) calibration value.*/
        __HAL_RCC_HSI_CALIBRATIONVALUE_ADJUST(RCC_OscInitStruct->HSICalibrationValue);
 80018f4:	4b76      	ldr	r3, [pc, #472]	@ (8001ad0 <HAL_RCC_OscConfig+0x504>)
 80018f6:	685b      	ldr	r3, [r3, #4]
 80018f8:	f023 52f8 	bic.w	r2, r3, #520093696	@ 0x1f000000
 80018fc:	687b      	ldr	r3, [r7, #4]
 80018fe:	691b      	ldr	r3, [r3, #16]
 8001900:	061b      	lsls	r3, r3, #24
 8001902:	4973      	ldr	r1, [pc, #460]	@ (8001ad0 <HAL_RCC_OscConfig+0x504>)
 8001904:	4313      	orrs	r3, r2
 8001906:	604b      	str	r3, [r1, #4]
      if((READ_BIT(RCC->CR, RCC_CR_HSIRDY) != 0U) && (RCC_OscInitStruct->HSIState == RCC_HSI_OFF))
 8001908:	e040      	b.n	800198c <HAL_RCC_OscConfig+0x3c0>
      }
    }
    else
    {
      /* Check the HSI State */
      if(RCC_OscInitStruct->HSIState != RCC_HSI_OFF)
 800190a:	687b      	ldr	r3, [r7, #4]
 800190c:	68db      	ldr	r3, [r3, #12]
 800190e:	2b00      	cmp	r3, #0
 8001910:	d023      	beq.n	800195a <HAL_RCC_OscConfig+0x38e>
      {
        /* Enable the Internal High Speed oscillator (HSI). */
        __HAL_RCC_HSI_ENABLE();
 8001912:	4b6f      	ldr	r3, [pc, #444]	@ (8001ad0 <HAL_RCC_OscConfig+0x504>)
 8001914:	681b      	ldr	r3, [r3, #0]
 8001916:	4a6e      	ldr	r2, [pc, #440]	@ (8001ad0 <HAL_RCC_OscConfig+0x504>)
 8001918:	f443 7380 	orr.w	r3, r3, #256	@ 0x100
 800191c:	6013      	str	r3, [r2, #0]

        /* Get Start Tick*/
        tickstart = HAL_GetTick();
 800191e:	f7ff fabd 	bl	8000e9c <HAL_GetTick>
 8001922:	6138      	str	r0, [r7, #16]

        /* Wait till HSI is ready */
        while(READ_BIT(RCC->CR, RCC_CR_HSIRDY) == 0U)
 8001924:	e008      	b.n	8001938 <HAL_RCC_OscConfig+0x36c>
        {
          if((HAL_GetTick() - tickstart) > HSI_TIMEOUT_VALUE)
 8001926:	f7ff fab9 	bl	8000e9c <HAL_GetTick>
 800192a:	4602      	mov	r2, r0
 800192c:	693b      	ldr	r3, [r7, #16]
 800192e:	1ad3      	subs	r3, r2, r3
 8001930:	2b02      	cmp	r3, #2
 8001932:	d901      	bls.n	8001938 <HAL_RCC_OscConfig+0x36c>
          {
            return HAL_TIMEOUT;
 8001934:	2303      	movs	r3, #3
 8001936:	e21d      	b.n	8001d74 <HAL_RCC_OscConfig+0x7a8>
        while(READ_BIT(RCC->CR, RCC_CR_HSIRDY) == 0U)
 8001938:	4b65      	ldr	r3, [pc, #404]	@ (8001ad0 <HAL_RCC_OscConfig+0x504>)
 800193a:	681b      	ldr	r3, [r3, #0]
 800193c:	f403 6380 	and.w	r3, r3, #1024	@ 0x400
 8001940:	2b00      	cmp	r3, #0
 8001942:	d0f0      	beq.n	8001926 <HAL_RCC_OscConfig+0x35a>
          }
        }

        /* Adjusts the Internal High Speed oscillator (HSI) calibration value.*/
        __HAL_RCC_HSI_CALIBRATIONVALUE_ADJUST(RCC_OscInitStruct->HSICalibrationValue);
 8001944:	4b62      	ldr	r3, [pc, #392]	@ (8001ad0 <HAL_RCC_OscConfig+0x504>)
 8001946:	685b      	ldr	r3, [r3, #4]
 8001948:	f023 52f8 	bic.w	r2, r3, #520093696	@ 0x1f000000
 800194c:	687b      	ldr	r3, [r7, #4]
 800194e:	691b      	ldr	r3, [r3, #16]
 8001950:	061b      	lsls	r3, r3, #24
 8001952:	495f      	ldr	r1, [pc, #380]	@ (8001ad0 <HAL_RCC_OscConfig+0x504>)
 8001954:	4313      	orrs	r3, r2
 8001956:	604b      	str	r3, [r1, #4]
 8001958:	e018      	b.n	800198c <HAL_RCC_OscConfig+0x3c0>
      }
      else
      {
        /* Disable the Internal High Speed oscillator (HSI). */
        __HAL_RCC_HSI_DISABLE();
 800195a:	4b5d      	ldr	r3, [pc, #372]	@ (8001ad0 <HAL_RCC_OscConfig+0x504>)
 800195c:	681b      	ldr	r3, [r3, #0]
 800195e:	4a5c      	ldr	r2, [pc, #368]	@ (8001ad0 <HAL_RCC_OscConfig+0x504>)
 8001960:	f423 7380 	bic.w	r3, r3, #256	@ 0x100
 8001964:	6013      	str	r3, [r2, #0]

        /* Get Start Tick*/
        tickstart = HAL_GetTick();
 8001966:	f7ff fa99 	bl	8000e9c <HAL_GetTick>
 800196a:	6138      	str	r0, [r7, #16]

        /* Wait till HSI is disabled */
        while(READ_BIT(RCC->CR, RCC_CR_HSIRDY) != 0U)
 800196c:	e008      	b.n	8001980 <HAL_RCC_OscConfig+0x3b4>
        {
          if((HAL_GetTick() - tickstart) > HSI_TIMEOUT_VALUE)
 800196e:	f7ff fa95 	bl	8000e9c <HAL_GetTick>
 8001972:	4602      	mov	r2, r0
 8001974:	693b      	ldr	r3, [r7, #16]
 8001976:	1ad3      	subs	r3, r2, r3
 8001978:	2b02      	cmp	r3, #2
 800197a:	d901      	bls.n	8001980 <HAL_RCC_OscConfig+0x3b4>
          {
            return HAL_TIMEOUT;
 800197c:	2303      	movs	r3, #3
 800197e:	e1f9      	b.n	8001d74 <HAL_RCC_OscConfig+0x7a8>
        while(READ_BIT(RCC->CR, RCC_CR_HSIRDY) != 0U)
 8001980:	4b53      	ldr	r3, [pc, #332]	@ (8001ad0 <HAL_RCC_OscConfig+0x504>)
 8001982:	681b      	ldr	r3, [r3, #0]
 8001984:	f403 6380 	and.w	r3, r3, #1024	@ 0x400
 8001988:	2b00      	cmp	r3, #0
 800198a:	d1f0      	bne.n	800196e <HAL_RCC_OscConfig+0x3a2>
        }
      }
    }
  }
  /*------------------------------ LSI Configuration -------------------------*/
  if(((RCC_OscInitStruct->OscillatorType) & RCC_OSCILLATORTYPE_LSI) == RCC_OSCILLATORTYPE_LSI)
 800198c:	687b      	ldr	r3, [r7, #4]
 800198e:	681b      	ldr	r3, [r3, #0]
 8001990:	f003 0308 	and.w	r3, r3, #8
 8001994:	2b00      	cmp	r3, #0
 8001996:	d03c      	beq.n	8001a12 <HAL_RCC_OscConfig+0x446>
  {
    /* Check the parameters */
    assert_param(IS_RCC_LSI(RCC_OscInitStruct->LSIState));

    /* Check the LSI State */
    if(RCC_OscInitStruct->LSIState != RCC_LSI_OFF)
 8001998:	687b      	ldr	r3, [r7, #4]
 800199a:	695b      	ldr	r3, [r3, #20]
 800199c:	2b00      	cmp	r3, #0
 800199e:	d01c      	beq.n	80019da <HAL_RCC_OscConfig+0x40e>
        MODIFY_REG(RCC->CSR, RCC_CSR_LSIPREDIV, RCC_OscInitStruct->LSIDiv);
      }
#endif /* RCC_CSR_LSIPREDIV */

      /* Enable the Internal Low Speed oscillator (LSI). */
      __HAL_RCC_LSI_ENABLE();
 80019a0:	4b4b      	ldr	r3, [pc, #300]	@ (8001ad0 <HAL_RCC_OscConfig+0x504>)
 80019a2:	f8d3 3094 	ldr.w	r3, [r3, #148]	@ 0x94
 80019a6:	4a4a      	ldr	r2, [pc, #296]	@ (8001ad0 <HAL_RCC_OscConfig+0x504>)
 80019a8:	f043 0301 	orr.w	r3, r3, #1
 80019ac:	f8c2 3094 	str.w	r3, [r2, #148]	@ 0x94

      /* Get Start Tick*/
      tickstart = HAL_GetTick();
 80019b0:	f7ff fa74 	bl	8000e9c <HAL_GetTick>
 80019b4:	6138      	str	r0, [r7, #16]

      /* Wait till LSI is ready */
      while(READ_BIT(RCC->CSR, RCC_CSR_LSIRDY) == 0U)
 80019b6:	e008      	b.n	80019ca <HAL_RCC_OscConfig+0x3fe>
      {
        if((HAL_GetTick() - tickstart) > LSI_TIMEOUT_VALUE)
 80019b8:	f7ff fa70 	bl	8000e9c <HAL_GetTick>
 80019bc:	4602      	mov	r2, r0
 80019be:	693b      	ldr	r3, [r7, #16]
 80019c0:	1ad3      	subs	r3, r2, r3
 80019c2:	2b02      	cmp	r3, #2
 80019c4:	d901      	bls.n	80019ca <HAL_RCC_OscConfig+0x3fe>
        {
          return HAL_TIMEOUT;
 80019c6:	2303      	movs	r3, #3
 80019c8:	e1d4      	b.n	8001d74 <HAL_RCC_OscConfig+0x7a8>
      while(READ_BIT(RCC->CSR, RCC_CSR_LSIRDY) == 0U)
 80019ca:	4b41      	ldr	r3, [pc, #260]	@ (8001ad0 <HAL_RCC_OscConfig+0x504>)
 80019cc:	f8d3 3094 	ldr.w	r3, [r3, #148]	@ 0x94
 80019d0:	f003 0302 	and.w	r3, r3, #2
 80019d4:	2b00      	cmp	r3, #0
 80019d6:	d0ef      	beq.n	80019b8 <HAL_RCC_OscConfig+0x3ec>
 80019d8:	e01b      	b.n	8001a12 <HAL_RCC_OscConfig+0x446>
      }
    }
    else
    {
      /* Disable the Internal Low Speed oscillator (LSI). */
      __HAL_RCC_LSI_DISABLE();
 80019da:	4b3d      	ldr	r3, [pc, #244]	@ (8001ad0 <HAL_RCC_OscConfig+0x504>)
 80019dc:	f8d3 3094 	ldr.w	r3, [r3, #148]	@ 0x94
 80019e0:	4a3b      	ldr	r2, [pc, #236]	@ (8001ad0 <HAL_RCC_OscConfig+0x504>)
 80019e2:	f023 0301 	bic.w	r3, r3, #1
 80019e6:	f8c2 3094 	str.w	r3, [r2, #148]	@ 0x94

      /* Get Start Tick*/
      tickstart = HAL_GetTick();
 80019ea:	f7ff fa57 	bl	8000e9c <HAL_GetTick>
 80019ee:	6138      	str	r0, [r7, #16]

      /* Wait till LSI is disabled */
      while(READ_BIT(RCC->CSR, RCC_CSR_LSIRDY) != 0U)
 80019f0:	e008      	b.n	8001a04 <HAL_RCC_OscConfig+0x438>
      {
        if((HAL_GetTick() - tickstart) > LSI_TIMEOUT_VALUE)
 80019f2:	f7ff fa53 	bl	8000e9c <HAL_GetTick>
 80019f6:	4602      	mov	r2, r0
 80019f8:	693b      	ldr	r3, [r7, #16]
 80019fa:	1ad3      	subs	r3, r2, r3
 80019fc:	2b02      	cmp	r3, #2
 80019fe:	d901      	bls.n	8001a04 <HAL_RCC_OscConfig+0x438>
        {
          return HAL_TIMEOUT;
 8001a00:	2303      	movs	r3, #3
 8001a02:	e1b7      	b.n	8001d74 <HAL_RCC_OscConfig+0x7a8>
      while(READ_BIT(RCC->CSR, RCC_CSR_LSIRDY) != 0U)
 8001a04:	4b32      	ldr	r3, [pc, #200]	@ (8001ad0 <HAL_RCC_OscConfig+0x504>)
 8001a06:	f8d3 3094 	ldr.w	r3, [r3, #148]	@ 0x94
 8001a0a:	f003 0302 	and.w	r3, r3, #2
 8001a0e:	2b00      	cmp	r3, #0
 8001a10:	d1ef      	bne.n	80019f2 <HAL_RCC_OscConfig+0x426>
        }
      }
    }
  }
  /*------------------------------ LSE Configuration -------------------------*/
  if(((RCC_OscInitStruct->OscillatorType) & RCC_OSCILLATORTYPE_LSE) == RCC_OSCILLATORTYPE_LSE)
 8001a12:	687b      	ldr	r3, [r7, #4]
 8001a14:	681b      	ldr	r3, [r3, #0]
 8001a16:	f003 0304 	and.w	r3, r3, #4
 8001a1a:	2b00      	cmp	r3, #0
 8001a1c:	f000 80a6 	beq.w	8001b6c <HAL_RCC_OscConfig+0x5a0>
  {
    FlagStatus       pwrclkchanged = RESET;
 8001a20:	2300      	movs	r3, #0
 8001a22:	77fb      	strb	r3, [r7, #31]
    /* Check the parameters */
    assert_param(IS_RCC_LSE(RCC_OscInitStruct->LSEState));

    /* Update LSE configuration in Backup Domain control register    */
    /* Requires to enable write access to Backup Domain of necessary */
    if(HAL_IS_BIT_CLR(RCC->APB1ENR1, RCC_APB1ENR1_PWREN))
 8001a24:	4b2a      	ldr	r3, [pc, #168]	@ (8001ad0 <HAL_RCC_OscConfig+0x504>)
 8001a26:	6d9b      	ldr	r3, [r3, #88]	@ 0x58
 8001a28:	f003 5380 	and.w	r3, r3, #268435456	@ 0x10000000
 8001a2c:	2b00      	cmp	r3, #0
 8001a2e:	d10d      	bne.n	8001a4c <HAL_RCC_OscConfig+0x480>
    {
      __HAL_RCC_PWR_CLK_ENABLE();
 8001a30:	4b27      	ldr	r3, [pc, #156]	@ (8001ad0 <HAL_RCC_OscConfig+0x504>)
 8001a32:	6d9b      	ldr	r3, [r3, #88]	@ 0x58
 8001a34:	4a26      	ldr	r2, [pc, #152]	@ (8001ad0 <HAL_RCC_OscConfig+0x504>)
 8001a36:	f043 5380 	orr.w	r3, r3, #268435456	@ 0x10000000
 8001a3a:	6593      	str	r3, [r2, #88]	@ 0x58
 8001a3c:	4b24      	ldr	r3, [pc, #144]	@ (8001ad0 <HAL_RCC_OscConfig+0x504>)
 8001a3e:	6d9b      	ldr	r3, [r3, #88]	@ 0x58
 8001a40:	f003 5380 	and.w	r3, r3, #268435456	@ 0x10000000
 8001a44:	60bb      	str	r3, [r7, #8]
 8001a46:	68bb      	ldr	r3, [r7, #8]
      pwrclkchanged = SET;
 8001a48:	2301      	movs	r3, #1
 8001a4a:	77fb      	strb	r3, [r7, #31]
    }

    if(HAL_IS_BIT_CLR(PWR->CR1, PWR_CR1_DBP))
 8001a4c:	4b21      	ldr	r3, [pc, #132]	@ (8001ad4 <HAL_RCC_OscConfig+0x508>)
 8001a4e:	681b      	ldr	r3, [r3, #0]
 8001a50:	f403 7380 	and.w	r3, r3, #256	@ 0x100
 8001a54:	2b00      	cmp	r3, #0
 8001a56:	d118      	bne.n	8001a8a <HAL_RCC_OscConfig+0x4be>
    {
      /* Enable write access to Backup domain */
      SET_BIT(PWR->CR1, PWR_CR1_DBP);
 8001a58:	4b1e      	ldr	r3, [pc, #120]	@ (8001ad4 <HAL_RCC_OscConfig+0x508>)
 8001a5a:	681b      	ldr	r3, [r3, #0]
 8001a5c:	4a1d      	ldr	r2, [pc, #116]	@ (8001ad4 <HAL_RCC_OscConfig+0x508>)
 8001a5e:	f443 7380 	orr.w	r3, r3, #256	@ 0x100
 8001a62:	6013      	str	r3, [r2, #0]

      /* Wait for Backup domain Write protection disable */
      tickstart = HAL_GetTick();
 8001a64:	f7ff fa1a 	bl	8000e9c <HAL_GetTick>
 8001a68:	6138      	str	r0, [r7, #16]

      while(HAL_IS_BIT_CLR(PWR->CR1, PWR_CR1_DBP))
 8001a6a:	e008      	b.n	8001a7e <HAL_RCC_OscConfig+0x4b2>
      {
        if((HAL_GetTick() - tickstart) > RCC_DBP_TIMEOUT_VALUE)
 8001a6c:	f7ff fa16 	bl	8000e9c <HAL_GetTick>
 8001a70:	4602      	mov	r2, r0
 8001a72:	693b      	ldr	r3, [r7, #16]
 8001a74:	1ad3      	subs	r3, r2, r3
 8001a76:	2b02      	cmp	r3, #2
 8001a78:	d901      	bls.n	8001a7e <HAL_RCC_OscConfig+0x4b2>
        {
          return HAL_TIMEOUT;
 8001a7a:	2303      	movs	r3, #3
 8001a7c:	e17a      	b.n	8001d74 <HAL_RCC_OscConfig+0x7a8>
      while(HAL_IS_BIT_CLR(PWR->CR1, PWR_CR1_DBP))
 8001a7e:	4b15      	ldr	r3, [pc, #84]	@ (8001ad4 <HAL_RCC_OscConfig+0x508>)
 8001a80:	681b      	ldr	r3, [r3, #0]
 8001a82:	f403 7380 	and.w	r3, r3, #256	@ 0x100
 8001a86:	2b00      	cmp	r3, #0
 8001a88:	d0f0      	beq.n	8001a6c <HAL_RCC_OscConfig+0x4a0>
    {
      CLEAR_BIT(RCC->BDCR, RCC_BDCR_LSEON);
      CLEAR_BIT(RCC->BDCR, RCC_BDCR_LSEBYP);
    }
#else
    __HAL_RCC_LSE_CONFIG(RCC_OscInitStruct->LSEState);
 8001a8a:	687b      	ldr	r3, [r7, #4]
 8001a8c:	689b      	ldr	r3, [r3, #8]
 8001a8e:	2b01      	cmp	r3, #1
 8001a90:	d108      	bne.n	8001aa4 <HAL_RCC_OscConfig+0x4d8>
 8001a92:	4b0f      	ldr	r3, [pc, #60]	@ (8001ad0 <HAL_RCC_OscConfig+0x504>)
 8001a94:	f8d3 3090 	ldr.w	r3, [r3, #144]	@ 0x90
 8001a98:	4a0d      	ldr	r2, [pc, #52]	@ (8001ad0 <HAL_RCC_OscConfig+0x504>)
 8001a9a:	f043 0301 	orr.w	r3, r3, #1
 8001a9e:	f8c2 3090 	str.w	r3, [r2, #144]	@ 0x90
 8001aa2:	e029      	b.n	8001af8 <HAL_RCC_OscConfig+0x52c>
 8001aa4:	687b      	ldr	r3, [r7, #4]
 8001aa6:	689b      	ldr	r3, [r3, #8]
 8001aa8:	2b05      	cmp	r3, #5
 8001aaa:	d115      	bne.n	8001ad8 <HAL_RCC_OscConfig+0x50c>
 8001aac:	4b08      	ldr	r3, [pc, #32]	@ (8001ad0 <HAL_RCC_OscConfig+0x504>)
 8001aae:	f8d3 3090 	ldr.w	r3, [r3, #144]	@ 0x90
 8001ab2:	4a07      	ldr	r2, [pc, #28]	@ (8001ad0 <HAL_RCC_OscConfig+0x504>)
 8001ab4:	f043 0304 	orr.w	r3, r3, #4
 8001ab8:	f8c2 3090 	str.w	r3, [r2, #144]	@ 0x90
 8001abc:	4b04      	ldr	r3, [pc, #16]	@ (8001ad0 <HAL_RCC_OscConfig+0x504>)
 8001abe:	f8d3 3090 	ldr.w	r3, [r3, #144]	@ 0x90
 8001ac2:	4a03      	ldr	r2, [pc, #12]	@ (8001ad0 <HAL_RCC_OscConfig+0x504>)
 8001ac4:	f043 0301 	orr.w	r3, r3, #1
 8001ac8:	f8c2 3090 	str.w	r3, [r2, #144]	@ 0x90
 8001acc:	e014      	b.n	8001af8 <HAL_RCC_OscConfig+0x52c>
 8001ace:	bf00      	nop
 8001ad0:	40021000 	.word	0x40021000
 8001ad4:	40007000 	.word	0x40007000
 8001ad8:	4b9c      	ldr	r3, [pc, #624]	@ (8001d4c <HAL_RCC_OscConfig+0x780>)
 8001ada:	f8d3 3090 	ldr.w	r3, [r3, #144]	@ 0x90
 8001ade:	4a9b      	ldr	r2, [pc, #620]	@ (8001d4c <HAL_RCC_OscConfig+0x780>)
 8001ae0:	f023 0301 	bic.w	r3, r3, #1
 8001ae4:	f8c2 3090 	str.w	r3, [r2, #144]	@ 0x90
 8001ae8:	4b98      	ldr	r3, [pc, #608]	@ (8001d4c <HAL_RCC_OscConfig+0x780>)
 8001aea:	f8d3 3090 	ldr.w	r3, [r3, #144]	@ 0x90
 8001aee:	4a97      	ldr	r2, [pc, #604]	@ (8001d4c <HAL_RCC_OscConfig+0x780>)
 8001af0:	f023 0304 	bic.w	r3, r3, #4
 8001af4:	f8c2 3090 	str.w	r3, [r2, #144]	@ 0x90
#endif /* RCC_BDCR_LSESYSDIS */

    /* Check the LSE State */
    if(RCC_OscInitStruct->LSEState != RCC_LSE_OFF)
 8001af8:	687b      	ldr	r3, [r7, #4]
 8001afa:	689b      	ldr	r3, [r3, #8]
 8001afc:	2b00      	cmp	r3, #0
 8001afe:	d016      	beq.n	8001b2e <HAL_RCC_OscConfig+0x562>
    {
      /* Get Start Tick*/
      tickstart = HAL_GetTick();
 8001b00:	f7ff f9cc 	bl	8000e9c <HAL_GetTick>
 8001b04:	6138      	str	r0, [r7, #16]

      /* Wait till LSE is ready */
      while(READ_BIT(RCC->BDCR, RCC_BDCR_LSERDY) == 0U)
 8001b06:	e00a      	b.n	8001b1e <HAL_RCC_OscConfig+0x552>
      {
        if((HAL_GetTick() - tickstart) > RCC_LSE_TIMEOUT_VALUE)
 8001b08:	f7ff f9c8 	bl	8000e9c <HAL_GetTick>
 8001b0c:	4602      	mov	r2, r0
 8001b0e:	693b      	ldr	r3, [r7, #16]
 8001b10:	1ad3      	subs	r3, r2, r3
 8001b12:	f241 3288 	movw	r2, #5000	@ 0x1388
 8001b16:	4293      	cmp	r3, r2
 8001b18:	d901      	bls.n	8001b1e <HAL_RCC_OscConfig+0x552>
        {
          return HAL_TIMEOUT;
 8001b1a:	2303      	movs	r3, #3
 8001b1c:	e12a      	b.n	8001d74 <HAL_RCC_OscConfig+0x7a8>
      while(READ_BIT(RCC->BDCR, RCC_BDCR_LSERDY) == 0U)
 8001b1e:	4b8b      	ldr	r3, [pc, #556]	@ (8001d4c <HAL_RCC_OscConfig+0x780>)
 8001b20:	f8d3 3090 	ldr.w	r3, [r3, #144]	@ 0x90
 8001b24:	f003 0302 	and.w	r3, r3, #2
 8001b28:	2b00      	cmp	r3, #0
 8001b2a:	d0ed      	beq.n	8001b08 <HAL_RCC_OscConfig+0x53c>
 8001b2c:	e015      	b.n	8001b5a <HAL_RCC_OscConfig+0x58e>
      }
    }
    else
    {
      /* Get Start Tick*/
      tickstart = HAL_GetTick();
 8001b2e:	f7ff f9b5 	bl	8000e9c <HAL_GetTick>
 8001b32:	6138      	str	r0, [r7, #16]

      /* Wait till LSE is disabled */
      while(READ_BIT(RCC->BDCR, RCC_BDCR_LSERDY) != 0U)
 8001b34:	e00a      	b.n	8001b4c <HAL_RCC_OscConfig+0x580>
      {
        if((HAL_GetTick() - tickstart) > RCC_LSE_TIMEOUT_VALUE)
 8001b36:	f7ff f9b1 	bl	8000e9c <HAL_GetTick>
 8001b3a:	4602      	mov	r2, r0
 8001b3c:	693b      	ldr	r3, [r7, #16]
 8001b3e:	1ad3      	subs	r3, r2, r3
 8001b40:	f241 3288 	movw	r2, #5000	@ 0x1388
 8001b44:	4293      	cmp	r3, r2
 8001b46:	d901      	bls.n	8001b4c <HAL_RCC_OscConfig+0x580>
        {
          return HAL_TIMEOUT;
 8001b48:	2303      	movs	r3, #3
 8001b4a:	e113      	b.n	8001d74 <HAL_RCC_OscConfig+0x7a8>
      while(READ_BIT(RCC->BDCR, RCC_BDCR_LSERDY) != 0U)
 8001b4c:	4b7f      	ldr	r3, [pc, #508]	@ (8001d4c <HAL_RCC_OscConfig+0x780>)
 8001b4e:	f8d3 3090 	ldr.w	r3, [r3, #144]	@ 0x90
 8001b52:	f003 0302 	and.w	r3, r3, #2
 8001b56:	2b00      	cmp	r3, #0
 8001b58:	d1ed      	bne.n	8001b36 <HAL_RCC_OscConfig+0x56a>
      CLEAR_BIT(RCC->BDCR, RCC_BDCR_LSESYSDIS);
#endif /* RCC_BDCR_LSESYSDIS */
    }

    /* Restore clock configuration if changed */
    if(pwrclkchanged == SET)
 8001b5a:	7ffb      	ldrb	r3, [r7, #31]
 8001b5c:	2b01      	cmp	r3, #1
 8001b5e:	d105      	bne.n	8001b6c <HAL_RCC_OscConfig+0x5a0>
    {
      __HAL_RCC_PWR_CLK_DISABLE();
 8001b60:	4b7a      	ldr	r3, [pc, #488]	@ (8001d4c <HAL_RCC_OscConfig+0x780>)
 8001b62:	6d9b      	ldr	r3, [r3, #88]	@ 0x58
 8001b64:	4a79      	ldr	r2, [pc, #484]	@ (8001d4c <HAL_RCC_OscConfig+0x780>)
 8001b66:	f023 5380 	bic.w	r3, r3, #268435456	@ 0x10000000
 8001b6a:	6593      	str	r3, [r2, #88]	@ 0x58
#endif /* RCC_HSI48_SUPPORT */
  /*-------------------------------- PLL Configuration -----------------------*/
  /* Check the parameters */
  assert_param(IS_RCC_PLL(RCC_OscInitStruct->PLL.PLLState));

  if(RCC_OscInitStruct->PLL.PLLState != RCC_PLL_NONE)
 8001b6c:	687b      	ldr	r3, [r7, #4]
 8001b6e:	6a9b      	ldr	r3, [r3, #40]	@ 0x28
 8001b70:	2b00      	cmp	r3, #0
 8001b72:	f000 80fe 	beq.w	8001d72 <HAL_RCC_OscConfig+0x7a6>
  {
    /* PLL On ? */
    if(RCC_OscInitStruct->PLL.PLLState == RCC_PLL_ON)
 8001b76:	687b      	ldr	r3, [r7, #4]
 8001b78:	6a9b      	ldr	r3, [r3, #40]	@ 0x28
 8001b7a:	2b02      	cmp	r3, #2
 8001b7c:	f040 80d0 	bne.w	8001d20 <HAL_RCC_OscConfig+0x754>
#endif /* RCC_PLLP_SUPPORT */
      assert_param(IS_RCC_PLLQ_VALUE(RCC_OscInitStruct->PLL.PLLQ));
      assert_param(IS_RCC_PLLR_VALUE(RCC_OscInitStruct->PLL.PLLR));

      /* Do nothing if PLL configuration is the unchanged */
      pll_config = RCC->PLLCFGR;
 8001b80:	4b72      	ldr	r3, [pc, #456]	@ (8001d4c <HAL_RCC_OscConfig+0x780>)
 8001b82:	68db      	ldr	r3, [r3, #12]
 8001b84:	617b      	str	r3, [r7, #20]
      if((READ_BIT(pll_config, RCC_PLLCFGR_PLLSRC)  != RCC_OscInitStruct->PLL.PLLSource) ||
 8001b86:	697b      	ldr	r3, [r7, #20]
 8001b88:	f003 0203 	and.w	r2, r3, #3
 8001b8c:	687b      	ldr	r3, [r7, #4]
 8001b8e:	6adb      	ldr	r3, [r3, #44]	@ 0x2c
 8001b90:	429a      	cmp	r2, r3
 8001b92:	d130      	bne.n	8001bf6 <HAL_RCC_OscConfig+0x62a>
         (READ_BIT(pll_config, RCC_PLLCFGR_PLLM)    != ((RCC_OscInitStruct->PLL.PLLM - 1U) << RCC_PLLCFGR_PLLM_Pos)) ||
 8001b94:	697b      	ldr	r3, [r7, #20]
 8001b96:	f003 0270 	and.w	r2, r3, #112	@ 0x70
 8001b9a:	687b      	ldr	r3, [r7, #4]
 8001b9c:	6b1b      	ldr	r3, [r3, #48]	@ 0x30
 8001b9e:	3b01      	subs	r3, #1
 8001ba0:	011b      	lsls	r3, r3, #4
      if((READ_BIT(pll_config, RCC_PLLCFGR_PLLSRC)  != RCC_OscInitStruct->PLL.PLLSource) ||
 8001ba2:	429a      	cmp	r2, r3
 8001ba4:	d127      	bne.n	8001bf6 <HAL_RCC_OscConfig+0x62a>
         (READ_BIT(pll_config, RCC_PLLCFGR_PLLN)    != (RCC_OscInitStruct->PLL.PLLN << RCC_PLLCFGR_PLLN_Pos)) ||
 8001ba6:	697b      	ldr	r3, [r7, #20]
 8001ba8:	f403 42fe 	and.w	r2, r3, #32512	@ 0x7f00
 8001bac:	687b      	ldr	r3, [r7, #4]
 8001bae:	6b5b      	ldr	r3, [r3, #52]	@ 0x34
 8001bb0:	021b      	lsls	r3, r3, #8
         (READ_BIT(pll_config, RCC_PLLCFGR_PLLM)    != ((RCC_OscInitStruct->PLL.PLLM - 1U) << RCC_PLLCFGR_PLLM_Pos)) ||
 8001bb2:	429a      	cmp	r2, r3
 8001bb4:	d11f      	bne.n	8001bf6 <HAL_RCC_OscConfig+0x62a>
#if defined(RCC_PLLP_SUPPORT)
#if defined(RCC_PLLP_DIV_2_31_SUPPORT)
         (READ_BIT(pll_config, RCC_PLLCFGR_PLLPDIV) != (RCC_OscInitStruct->PLL.PLLP << RCC_PLLCFGR_PLLPDIV_Pos)) ||
#else
         (READ_BIT(pll_config, RCC_PLLCFGR_PLLP)    != ((RCC_OscInitStruct->PLL.PLLP == RCC_PLLP_DIV7) ? 0U : 1U)) ||
 8001bb6:	697b      	ldr	r3, [r7, #20]
 8001bb8:	f403 3300 	and.w	r3, r3, #131072	@ 0x20000
 8001bbc:	687a      	ldr	r2, [r7, #4]
 8001bbe:	6b92      	ldr	r2, [r2, #56]	@ 0x38
 8001bc0:	2a07      	cmp	r2, #7
 8001bc2:	bf14      	ite	ne
 8001bc4:	2201      	movne	r2, #1
 8001bc6:	2200      	moveq	r2, #0
 8001bc8:	b2d2      	uxtb	r2, r2
         (READ_BIT(pll_config, RCC_PLLCFGR_PLLN)    != (RCC_OscInitStruct->PLL.PLLN << RCC_PLLCFGR_PLLN_Pos)) ||
 8001bca:	4293      	cmp	r3, r2
 8001bcc:	d113      	bne.n	8001bf6 <HAL_RCC_OscConfig+0x62a>
#endif
#endif
         (READ_BIT(pll_config, RCC_PLLCFGR_PLLQ)    != ((((RCC_OscInitStruct->PLL.PLLQ) >> 1U) - 1U) << RCC_PLLCFGR_PLLQ_Pos)) ||
 8001bce:	697b      	ldr	r3, [r7, #20]
 8001bd0:	f403 02c0 	and.w	r2, r3, #6291456	@ 0x600000
 8001bd4:	687b      	ldr	r3, [r7, #4]
 8001bd6:	6bdb      	ldr	r3, [r3, #60]	@ 0x3c
 8001bd8:	085b      	lsrs	r3, r3, #1
 8001bda:	3b01      	subs	r3, #1
 8001bdc:	055b      	lsls	r3, r3, #21
         (READ_BIT(pll_config, RCC_PLLCFGR_PLLP)    != ((RCC_OscInitStruct->PLL.PLLP == RCC_PLLP_DIV7) ? 0U : 1U)) ||
 8001bde:	429a      	cmp	r2, r3
 8001be0:	d109      	bne.n	8001bf6 <HAL_RCC_OscConfig+0x62a>
         (READ_BIT(pll_config, RCC_PLLCFGR_PLLR)    != ((((RCC_OscInitStruct->PLL.PLLR) >> 1U) - 1U) << RCC_PLLCFGR_PLLR_Pos)))
 8001be2:	697b      	ldr	r3, [r7, #20]
 8001be4:	f003 62c0 	and.w	r2, r3, #100663296	@ 0x6000000
 8001be8:	687b      	ldr	r3, [r7, #4]
 8001bea:	6c1b      	ldr	r3, [r3, #64]	@ 0x40
 8001bec:	085b      	lsrs	r3, r3, #1
 8001bee:	3b01      	subs	r3, #1
 8001bf0:	065b      	lsls	r3, r3, #25
         (READ_BIT(pll_config, RCC_PLLCFGR_PLLQ)    != ((((RCC_OscInitStruct->PLL.PLLQ) >> 1U) - 1U) << RCC_PLLCFGR_PLLQ_Pos)) ||
 8001bf2:	429a      	cmp	r2, r3
 8001bf4:	d06e      	beq.n	8001cd4 <HAL_RCC_OscConfig+0x708>
      {
        /* Check if the PLL is used as system clock or not */
        if(sysclk_source != RCC_CFGR_SWS_PLL)
 8001bf6:	69bb      	ldr	r3, [r7, #24]
 8001bf8:	2b0c      	cmp	r3, #12
 8001bfa:	d069      	beq.n	8001cd0 <HAL_RCC_OscConfig+0x704>
        {
#if defined(RCC_PLLSAI1_SUPPORT) || defined(RCC_PLLSAI2_SUPPORT)
          /* Check if main PLL can be updated */
          /* Not possible if the source is shared by other enabled PLLSAIx */
          if((READ_BIT(RCC->CR, RCC_CR_PLLSAI1ON) != 0U)
 8001bfc:	4b53      	ldr	r3, [pc, #332]	@ (8001d4c <HAL_RCC_OscConfig+0x780>)
 8001bfe:	681b      	ldr	r3, [r3, #0]
 8001c00:	f003 6380 	and.w	r3, r3, #67108864	@ 0x4000000
 8001c04:	2b00      	cmp	r3, #0
 8001c06:	d105      	bne.n	8001c14 <HAL_RCC_OscConfig+0x648>
#if defined(RCC_PLLSAI2_SUPPORT)
             || (READ_BIT(RCC->CR, RCC_CR_PLLSAI2ON) != 0U)
 8001c08:	4b50      	ldr	r3, [pc, #320]	@ (8001d4c <HAL_RCC_OscConfig+0x780>)
 8001c0a:	681b      	ldr	r3, [r3, #0]
 8001c0c:	f003 5380 	and.w	r3, r3, #268435456	@ 0x10000000
 8001c10:	2b00      	cmp	r3, #0
 8001c12:	d001      	beq.n	8001c18 <HAL_RCC_OscConfig+0x64c>
#endif
            )
          {
            return HAL_ERROR;
 8001c14:	2301      	movs	r3, #1
 8001c16:	e0ad      	b.n	8001d74 <HAL_RCC_OscConfig+0x7a8>
          }
          else
#endif /* RCC_PLLSAI1_SUPPORT || RCC_PLLSAI2_SUPPORT */
          {
            /* Disable the main PLL. */
            __HAL_RCC_PLL_DISABLE();
 8001c18:	4b4c      	ldr	r3, [pc, #304]	@ (8001d4c <HAL_RCC_OscConfig+0x780>)
 8001c1a:	681b      	ldr	r3, [r3, #0]
 8001c1c:	4a4b      	ldr	r2, [pc, #300]	@ (8001d4c <HAL_RCC_OscConfig+0x780>)
 8001c1e:	f023 7380 	bic.w	r3, r3, #16777216	@ 0x1000000
 8001c22:	6013      	str	r3, [r2, #0]

            /* Get Start Tick*/
            tickstart = HAL_GetTick();
 8001c24:	f7ff f93a 	bl	8000e9c <HAL_GetTick>
 8001c28:	6138      	str	r0, [r7, #16]

            /* Wait till PLL is ready */
            while(READ_BIT(RCC->CR, RCC_CR_PLLRDY) != 0U)
 8001c2a:	e008      	b.n	8001c3e <HAL_RCC_OscConfig+0x672>
            {
              if((HAL_GetTick() - tickstart) > PLL_TIMEOUT_VALUE)
 8001c2c:	f7ff f936 	bl	8000e9c <HAL_GetTick>
 8001c30:	4602      	mov	r2, r0
 8001c32:	693b      	ldr	r3, [r7, #16]
 8001c34:	1ad3      	subs	r3, r2, r3
 8001c36:	2b02      	cmp	r3, #2
 8001c38:	d901      	bls.n	8001c3e <HAL_RCC_OscConfig+0x672>
              {
                return HAL_TIMEOUT;
 8001c3a:	2303      	movs	r3, #3
 8001c3c:	e09a      	b.n	8001d74 <HAL_RCC_OscConfig+0x7a8>
            while(READ_BIT(RCC->CR, RCC_CR_PLLRDY) != 0U)
 8001c3e:	4b43      	ldr	r3, [pc, #268]	@ (8001d4c <HAL_RCC_OscConfig+0x780>)
 8001c40:	681b      	ldr	r3, [r3, #0]
 8001c42:	f003 7300 	and.w	r3, r3, #33554432	@ 0x2000000
 8001c46:	2b00      	cmp	r3, #0
 8001c48:	d1f0      	bne.n	8001c2c <HAL_RCC_OscConfig+0x660>
              }
            }

            /* Configure the main PLL clock source, multiplication and division factors. */
#if defined(RCC_PLLP_SUPPORT)
            __HAL_RCC_PLL_CONFIG(RCC_OscInitStruct->PLL.PLLSource,
 8001c4a:	4b40      	ldr	r3, [pc, #256]	@ (8001d4c <HAL_RCC_OscConfig+0x780>)
 8001c4c:	68da      	ldr	r2, [r3, #12]
 8001c4e:	4b40      	ldr	r3, [pc, #256]	@ (8001d50 <HAL_RCC_OscConfig+0x784>)
 8001c50:	4013      	ands	r3, r2
 8001c52:	687a      	ldr	r2, [r7, #4]
 8001c54:	6ad1      	ldr	r1, [r2, #44]	@ 0x2c
 8001c56:	687a      	ldr	r2, [r7, #4]
 8001c58:	6b12      	ldr	r2, [r2, #48]	@ 0x30
 8001c5a:	3a01      	subs	r2, #1
 8001c5c:	0112      	lsls	r2, r2, #4
 8001c5e:	4311      	orrs	r1, r2
 8001c60:	687a      	ldr	r2, [r7, #4]
 8001c62:	6b52      	ldr	r2, [r2, #52]	@ 0x34
 8001c64:	0212      	lsls	r2, r2, #8
 8001c66:	4311      	orrs	r1, r2
 8001c68:	687a      	ldr	r2, [r7, #4]
 8001c6a:	6bd2      	ldr	r2, [r2, #60]	@ 0x3c
 8001c6c:	0852      	lsrs	r2, r2, #1
 8001c6e:	3a01      	subs	r2, #1
 8001c70:	0552      	lsls	r2, r2, #21
 8001c72:	4311      	orrs	r1, r2
 8001c74:	687a      	ldr	r2, [r7, #4]
 8001c76:	6c12      	ldr	r2, [r2, #64]	@ 0x40
 8001c78:	0852      	lsrs	r2, r2, #1
 8001c7a:	3a01      	subs	r2, #1
 8001c7c:	0652      	lsls	r2, r2, #25
 8001c7e:	4311      	orrs	r1, r2
 8001c80:	687a      	ldr	r2, [r7, #4]
 8001c82:	6b92      	ldr	r2, [r2, #56]	@ 0x38
 8001c84:	0912      	lsrs	r2, r2, #4
 8001c86:	0452      	lsls	r2, r2, #17
 8001c88:	430a      	orrs	r2, r1
 8001c8a:	4930      	ldr	r1, [pc, #192]	@ (8001d4c <HAL_RCC_OscConfig+0x780>)
 8001c8c:	4313      	orrs	r3, r2
 8001c8e:	60cb      	str	r3, [r1, #12]
                                 RCC_OscInitStruct->PLL.PLLQ,
                                 RCC_OscInitStruct->PLL.PLLR);
#endif

            /* Enable the main PLL. */
            __HAL_RCC_PLL_ENABLE();
 8001c90:	4b2e      	ldr	r3, [pc, #184]	@ (8001d4c <HAL_RCC_OscConfig+0x780>)
 8001c92:	681b      	ldr	r3, [r3, #0]
 8001c94:	4a2d      	ldr	r2, [pc, #180]	@ (8001d4c <HAL_RCC_OscConfig+0x780>)
 8001c96:	f043 7380 	orr.w	r3, r3, #16777216	@ 0x1000000
 8001c9a:	6013      	str	r3, [r2, #0]

            /* Enable PLL System Clock output. */
            __HAL_RCC_PLLCLKOUT_ENABLE(RCC_PLL_SYSCLK);
 8001c9c:	4b2b      	ldr	r3, [pc, #172]	@ (8001d4c <HAL_RCC_OscConfig+0x780>)
 8001c9e:	68db      	ldr	r3, [r3, #12]
 8001ca0:	4a2a      	ldr	r2, [pc, #168]	@ (8001d4c <HAL_RCC_OscConfig+0x780>)
 8001ca2:	f043 7380 	orr.w	r3, r3, #16777216	@ 0x1000000
 8001ca6:	60d3      	str	r3, [r2, #12]

            /* Get Start Tick*/
            tickstart = HAL_GetTick();
 8001ca8:	f7ff f8f8 	bl	8000e9c <HAL_GetTick>
 8001cac:	6138      	str	r0, [r7, #16]

            /* Wait till PLL is ready */
            while(READ_BIT(RCC->CR, RCC_CR_PLLRDY) == 0U)
 8001cae:	e008      	b.n	8001cc2 <HAL_RCC_OscConfig+0x6f6>
            {
              if((HAL_GetTick() - tickstart) > PLL_TIMEOUT_VALUE)
 8001cb0:	f7ff f8f4 	bl	8000e9c <HAL_GetTick>
 8001cb4:	4602      	mov	r2, r0
 8001cb6:	693b      	ldr	r3, [r7, #16]
 8001cb8:	1ad3      	subs	r3, r2, r3
 8001cba:	2b02      	cmp	r3, #2
 8001cbc:	d901      	bls.n	8001cc2 <HAL_RCC_OscConfig+0x6f6>
              {
                return HAL_TIMEOUT;
 8001cbe:	2303      	movs	r3, #3
 8001cc0:	e058      	b.n	8001d74 <HAL_RCC_OscConfig+0x7a8>
            while(READ_BIT(RCC->CR, RCC_CR_PLLRDY) == 0U)
 8001cc2:	4b22      	ldr	r3, [pc, #136]	@ (8001d4c <HAL_RCC_OscConfig+0x780>)
 8001cc4:	681b      	ldr	r3, [r3, #0]
 8001cc6:	f003 7300 	and.w	r3, r3, #33554432	@ 0x2000000
 8001cca:	2b00      	cmp	r3, #0
 8001ccc:	d0f0      	beq.n	8001cb0 <HAL_RCC_OscConfig+0x6e4>
        if(sysclk_source != RCC_CFGR_SWS_PLL)
 8001cce:	e050      	b.n	8001d72 <HAL_RCC_OscConfig+0x7a6>
          }
        }
        else
        {
          /* PLL is already used as System core clock */
          return HAL_ERROR;
 8001cd0:	2301      	movs	r3, #1
 8001cd2:	e04f      	b.n	8001d74 <HAL_RCC_OscConfig+0x7a8>
      }
      else
      {
        /* PLL configuration is unchanged */
        /* Re-enable PLL if it was disabled (ie. low power mode) */
        if(READ_BIT(RCC->CR, RCC_CR_PLLRDY) == 0U)
 8001cd4:	4b1d      	ldr	r3, [pc, #116]	@ (8001d4c <HAL_RCC_OscConfig+0x780>)
 8001cd6:	681b      	ldr	r3, [r3, #0]
 8001cd8:	f003 7300 	and.w	r3, r3, #33554432	@ 0x2000000
 8001cdc:	2b00      	cmp	r3, #0
 8001cde:	d148      	bne.n	8001d72 <HAL_RCC_OscConfig+0x7a6>
        {
          /* Enable the main PLL. */
          __HAL_RCC_PLL_ENABLE();
 8001ce0:	4b1a      	ldr	r3, [pc, #104]	@ (8001d4c <HAL_RCC_OscConfig+0x780>)
 8001ce2:	681b      	ldr	r3, [r3, #0]
 8001ce4:	4a19      	ldr	r2, [pc, #100]	@ (8001d4c <HAL_RCC_OscConfig+0x780>)
 8001ce6:	f043 7380 	orr.w	r3, r3, #16777216	@ 0x1000000
 8001cea:	6013      	str	r3, [r2, #0]

          /* Enable PLL System Clock output. */
          __HAL_RCC_PLLCLKOUT_ENABLE(RCC_PLL_SYSCLK);
 8001cec:	4b17      	ldr	r3, [pc, #92]	@ (8001d4c <HAL_RCC_OscConfig+0x780>)
 8001cee:	68db      	ldr	r3, [r3, #12]
 8001cf0:	4a16      	ldr	r2, [pc, #88]	@ (8001d4c <HAL_RCC_OscConfig+0x780>)
 8001cf2:	f043 7380 	orr.w	r3, r3, #16777216	@ 0x1000000
 8001cf6:	60d3      	str	r3, [r2, #12]

          /* Get Start Tick*/
          tickstart = HAL_GetTick();
 8001cf8:	f7ff f8d0 	bl	8000e9c <HAL_GetTick>
 8001cfc:	6138      	str	r0, [r7, #16]

          /* Wait till PLL is ready */
          while(READ_BIT(RCC->CR, RCC_CR_PLLRDY) == 0U)
 8001cfe:	e008      	b.n	8001d12 <HAL_RCC_OscConfig+0x746>
          {
            if((HAL_GetTick() - tickstart) > PLL_TIMEOUT_VALUE)
 8001d00:	f7ff f8cc 	bl	8000e9c <HAL_GetTick>
 8001d04:	4602      	mov	r2, r0
 8001d06:	693b      	ldr	r3, [r7, #16]
 8001d08:	1ad3      	subs	r3, r2, r3
 8001d0a:	2b02      	cmp	r3, #2
 8001d0c:	d901      	bls.n	8001d12 <HAL_RCC_OscConfig+0x746>
            {
              return HAL_TIMEOUT;
 8001d0e:	2303      	movs	r3, #3
 8001d10:	e030      	b.n	8001d74 <HAL_RCC_OscConfig+0x7a8>
          while(READ_BIT(RCC->CR, RCC_CR_PLLRDY) == 0U)
 8001d12:	4b0e      	ldr	r3, [pc, #56]	@ (8001d4c <HAL_RCC_OscConfig+0x780>)
 8001d14:	681b      	ldr	r3, [r3, #0]
 8001d16:	f003 7300 	and.w	r3, r3, #33554432	@ 0x2000000
 8001d1a:	2b00      	cmp	r3, #0
 8001d1c:	d0f0      	beq.n	8001d00 <HAL_RCC_OscConfig+0x734>
 8001d1e:	e028      	b.n	8001d72 <HAL_RCC_OscConfig+0x7a6>
      }
    }
    else
    {
      /* Check that PLL is not used as system clock or not */
      if(sysclk_source != RCC_CFGR_SWS_PLL)
 8001d20:	69bb      	ldr	r3, [r7, #24]
 8001d22:	2b0c      	cmp	r3, #12
 8001d24:	d023      	beq.n	8001d6e <HAL_RCC_OscConfig+0x7a2>
      {
        /* Disable the main PLL. */
        __HAL_RCC_PLL_DISABLE();
 8001d26:	4b09      	ldr	r3, [pc, #36]	@ (8001d4c <HAL_RCC_OscConfig+0x780>)
 8001d28:	681b      	ldr	r3, [r3, #0]
 8001d2a:	4a08      	ldr	r2, [pc, #32]	@ (8001d4c <HAL_RCC_OscConfig+0x780>)
 8001d2c:	f023 7380 	bic.w	r3, r3, #16777216	@ 0x1000000
 8001d30:	6013      	str	r3, [r2, #0]

        /* Get Start Tick*/
        tickstart = HAL_GetTick();
 8001d32:	f7ff f8b3 	bl	8000e9c <HAL_GetTick>
 8001d36:	6138      	str	r0, [r7, #16]

        /* Wait till PLL is disabled */
        while(READ_BIT(RCC->CR, RCC_CR_PLLRDY) != 0U)
 8001d38:	e00c      	b.n	8001d54 <HAL_RCC_OscConfig+0x788>
        {
          if((HAL_GetTick() - tickstart) > PLL_TIMEOUT_VALUE)
 8001d3a:	f7ff f8af 	bl	8000e9c <HAL_GetTick>
 8001d3e:	4602      	mov	r2, r0
 8001d40:	693b      	ldr	r3, [r7, #16]
 8001d42:	1ad3      	subs	r3, r2, r3
 8001d44:	2b02      	cmp	r3, #2
 8001d46:	d905      	bls.n	8001d54 <HAL_RCC_OscConfig+0x788>
          {
            return HAL_TIMEOUT;
 8001d48:	2303      	movs	r3, #3
 8001d4a:	e013      	b.n	8001d74 <HAL_RCC_OscConfig+0x7a8>
 8001d4c:	40021000 	.word	0x40021000
 8001d50:	f99d808c 	.word	0xf99d808c
        while(READ_BIT(RCC->CR, RCC_CR_PLLRDY) != 0U)
 8001d54:	4b09      	ldr	r3, [pc, #36]	@ (8001d7c <HAL_RCC_OscConfig+0x7b0>)
 8001d56:	681b      	ldr	r3, [r3, #0]
 8001d58:	f003 7300 	and.w	r3, r3, #33554432	@ 0x2000000
 8001d5c:	2b00      	cmp	r3, #0
 8001d5e:	d1ec      	bne.n	8001d3a <HAL_RCC_OscConfig+0x76e>
          }
        }
        /* Unselect main PLL clock source and disable main PLL outputs to save power */
#if defined(RCC_PLLSAI2_SUPPORT)
        RCC->PLLCFGR &= ~(RCC_PLLCFGR_PLLSRC | RCC_PLL_SYSCLK | RCC_PLL_48M1CLK | RCC_PLL_SAI3CLK);
 8001d60:	4b06      	ldr	r3, [pc, #24]	@ (8001d7c <HAL_RCC_OscConfig+0x7b0>)
 8001d62:	68da      	ldr	r2, [r3, #12]
 8001d64:	4905      	ldr	r1, [pc, #20]	@ (8001d7c <HAL_RCC_OscConfig+0x7b0>)
 8001d66:	4b06      	ldr	r3, [pc, #24]	@ (8001d80 <HAL_RCC_OscConfig+0x7b4>)
 8001d68:	4013      	ands	r3, r2
 8001d6a:	60cb      	str	r3, [r1, #12]
 8001d6c:	e001      	b.n	8001d72 <HAL_RCC_OscConfig+0x7a6>
#endif /* RCC_PLLSAI2_SUPPORT */
      }
      else
      {
        /* PLL is already used as System core clock */
        return HAL_ERROR;
 8001d6e:	2301      	movs	r3, #1
 8001d70:	e000      	b.n	8001d74 <HAL_RCC_OscConfig+0x7a8>
      }
    }
  }
  return HAL_OK;
 8001d72:	2300      	movs	r3, #0
}
 8001d74:	4618      	mov	r0, r3
 8001d76:	3720      	adds	r7, #32
 8001d78:	46bd      	mov	sp, r7
 8001d7a:	bd80      	pop	{r7, pc}
 8001d7c:	40021000 	.word	0x40021000
 8001d80:	feeefffc 	.word	0xfeeefffc

08001d84 <HAL_RCC_ClockConfig>:
  *         HPRE[3:0] bits to ensure that HCLK not exceed the maximum allowed frequency
  *         (for more details refer to section above "Initialization/de-initialization functions")
  * @retval None
  */
HAL_StatusTypeDef HAL_RCC_ClockConfig(const RCC_ClkInitTypeDef  *RCC_ClkInitStruct, uint32_t FLatency)
{
 8001d84:	b580      	push	{r7, lr}
 8001d86:	b084      	sub	sp, #16
 8001d88:	af00      	add	r7, sp, #0
 8001d8a:	6078      	str	r0, [r7, #4]
 8001d8c:	6039      	str	r1, [r7, #0]
  uint32_t hpre = RCC_SYSCLK_DIV1;
#endif
  HAL_StatusTypeDef status;

  /* Check Null pointer */
  if(RCC_ClkInitStruct == NULL)
 8001d8e:	687b      	ldr	r3, [r7, #4]
 8001d90:	2b00      	cmp	r3, #0
 8001d92:	d101      	bne.n	8001d98 <HAL_RCC_ClockConfig+0x14>
  {
    return HAL_ERROR;
 8001d94:	2301      	movs	r3, #1
 8001d96:	e0e7      	b.n	8001f68 <HAL_RCC_ClockConfig+0x1e4>
  /* To correctly read data from FLASH memory, the number of wait states (LATENCY)
    must be correctly programmed according to the frequency of the CPU clock
    (HCLK) and the supply voltage of the device. */

  /* Increasing the number of wait states because of higher CPU frequency */
  if(FLatency > __HAL_FLASH_GET_LATENCY())
 8001d98:	4b75      	ldr	r3, [pc, #468]	@ (8001f70 <HAL_RCC_ClockConfig+0x1ec>)
 8001d9a:	681b      	ldr	r3, [r3, #0]
 8001d9c:	f003 0307 	and.w	r3, r3, #7
 8001da0:	683a      	ldr	r2, [r7, #0]
 8001da2:	429a      	cmp	r2, r3
 8001da4:	d910      	bls.n	8001dc8 <HAL_RCC_ClockConfig+0x44>
  {
    /* Program the new number of wait states to the LATENCY bits in the FLASH_ACR register */
    __HAL_FLASH_SET_LATENCY(FLatency);
 8001da6:	4b72      	ldr	r3, [pc, #456]	@ (8001f70 <HAL_RCC_ClockConfig+0x1ec>)
 8001da8:	681b      	ldr	r3, [r3, #0]
 8001daa:	f023 0207 	bic.w	r2, r3, #7
 8001dae:	4970      	ldr	r1, [pc, #448]	@ (8001f70 <HAL_RCC_ClockConfig+0x1ec>)
 8001db0:	683b      	ldr	r3, [r7, #0]
 8001db2:	4313      	orrs	r3, r2
 8001db4:	600b      	str	r3, [r1, #0]

    /* Check that the new number of wait states is taken into account to access the Flash
    memory by reading the FLASH_ACR register */
    if(__HAL_FLASH_GET_LATENCY() != FLatency)
 8001db6:	4b6e      	ldr	r3, [pc, #440]	@ (8001f70 <HAL_RCC_ClockConfig+0x1ec>)
 8001db8:	681b      	ldr	r3, [r3, #0]
 8001dba:	f003 0307 	and.w	r3, r3, #7
 8001dbe:	683a      	ldr	r2, [r7, #0]
 8001dc0:	429a      	cmp	r2, r3
 8001dc2:	d001      	beq.n	8001dc8 <HAL_RCC_ClockConfig+0x44>
    {
      return HAL_ERROR;
 8001dc4:	2301      	movs	r3, #1
 8001dc6:	e0cf      	b.n	8001f68 <HAL_RCC_ClockConfig+0x1e4>
    }
  }

  /*----------------- HCLK Configuration prior to SYSCLK----------------------*/
  /* Apply higher HCLK prescaler request here to ensure CPU clock is not of of spec when SYSCLK is increased */
  if(((RCC_ClkInitStruct->ClockType) & RCC_CLOCKTYPE_HCLK) == RCC_CLOCKTYPE_HCLK)
 8001dc8:	687b      	ldr	r3, [r7, #4]
 8001dca:	681b      	ldr	r3, [r3, #0]
 8001dcc:	f003 0302 	and.w	r3, r3, #2
 8001dd0:	2b00      	cmp	r3, #0
 8001dd2:	d010      	beq.n	8001df6 <HAL_RCC_ClockConfig+0x72>
  {
    assert_param(IS_RCC_HCLK(RCC_ClkInitStruct->AHBCLKDivider));

    if(RCC_ClkInitStruct->AHBCLKDivider > READ_BIT(RCC->CFGR, RCC_CFGR_HPRE))
 8001dd4:	687b      	ldr	r3, [r7, #4]
 8001dd6:	689a      	ldr	r2, [r3, #8]
 8001dd8:	4b66      	ldr	r3, [pc, #408]	@ (8001f74 <HAL_RCC_ClockConfig+0x1f0>)
 8001dda:	689b      	ldr	r3, [r3, #8]
 8001ddc:	f003 03f0 	and.w	r3, r3, #240	@ 0xf0
 8001de0:	429a      	cmp	r2, r3
 8001de2:	d908      	bls.n	8001df6 <HAL_RCC_ClockConfig+0x72>
    {
      MODIFY_REG(RCC->CFGR, RCC_CFGR_HPRE, RCC_ClkInitStruct->AHBCLKDivider);
 8001de4:	4b63      	ldr	r3, [pc, #396]	@ (8001f74 <HAL_RCC_ClockConfig+0x1f0>)
 8001de6:	689b      	ldr	r3, [r3, #8]
 8001de8:	f023 02f0 	bic.w	r2, r3, #240	@ 0xf0
 8001dec:	687b      	ldr	r3, [r7, #4]
 8001dee:	689b      	ldr	r3, [r3, #8]
 8001df0:	4960      	ldr	r1, [pc, #384]	@ (8001f74 <HAL_RCC_ClockConfig+0x1f0>)
 8001df2:	4313      	orrs	r3, r2
 8001df4:	608b      	str	r3, [r1, #8]
    }
  }

  /*------------------------- SYSCLK Configuration ---------------------------*/
  if(((RCC_ClkInitStruct->ClockType) & RCC_CLOCKTYPE_SYSCLK) == RCC_CLOCKTYPE_SYSCLK)
 8001df6:	687b      	ldr	r3, [r7, #4]
 8001df8:	681b      	ldr	r3, [r3, #0]
 8001dfa:	f003 0301 	and.w	r3, r3, #1
 8001dfe:	2b00      	cmp	r3, #0
 8001e00:	d04c      	beq.n	8001e9c <HAL_RCC_ClockConfig+0x118>
  {
    assert_param(IS_RCC_SYSCLKSOURCE(RCC_ClkInitStruct->SYSCLKSource));

    /* PLL is selected as System Clock Source */
    if(RCC_ClkInitStruct->SYSCLKSource == RCC_SYSCLKSOURCE_PLLCLK)
 8001e02:	687b      	ldr	r3, [r7, #4]
 8001e04:	685b      	ldr	r3, [r3, #4]
 8001e06:	2b03      	cmp	r3, #3
 8001e08:	d107      	bne.n	8001e1a <HAL_RCC_ClockConfig+0x96>
    {
      /* Check the PLL ready flag */
      if(READ_BIT(RCC->CR, RCC_CR_PLLRDY) == 0U)
 8001e0a:	4b5a      	ldr	r3, [pc, #360]	@ (8001f74 <HAL_RCC_ClockConfig+0x1f0>)
 8001e0c:	681b      	ldr	r3, [r3, #0]
 8001e0e:	f003 7300 	and.w	r3, r3, #33554432	@ 0x2000000
 8001e12:	2b00      	cmp	r3, #0
 8001e14:	d121      	bne.n	8001e5a <HAL_RCC_ClockConfig+0xd6>
      {
        return HAL_ERROR;
 8001e16:	2301      	movs	r3, #1
 8001e18:	e0a6      	b.n	8001f68 <HAL_RCC_ClockConfig+0x1e4>
#endif
    }
    else
    {
      /* HSE is selected as System Clock Source */
      if(RCC_ClkInitStruct->SYSCLKSource == RCC_SYSCLKSOURCE_HSE)
 8001e1a:	687b      	ldr	r3, [r7, #4]
 8001e1c:	685b      	ldr	r3, [r3, #4]
 8001e1e:	2b02      	cmp	r3, #2
 8001e20:	d107      	bne.n	8001e32 <HAL_RCC_ClockConfig+0xae>
      {
        /* Check the HSE ready flag */
        if(READ_BIT(RCC->CR, RCC_CR_HSERDY) == 0U)
 8001e22:	4b54      	ldr	r3, [pc, #336]	@ (8001f74 <HAL_RCC_ClockConfig+0x1f0>)
 8001e24:	681b      	ldr	r3, [r3, #0]
 8001e26:	f403 3300 	and.w	r3, r3, #131072	@ 0x20000
 8001e2a:	2b00      	cmp	r3, #0
 8001e2c:	d115      	bne.n	8001e5a <HAL_RCC_ClockConfig+0xd6>
        {
          return HAL_ERROR;
 8001e2e:	2301      	movs	r3, #1
 8001e30:	e09a      	b.n	8001f68 <HAL_RCC_ClockConfig+0x1e4>
        }
      }
      /* MSI is selected as System Clock Source */
      else if(RCC_ClkInitStruct->SYSCLKSource == RCC_SYSCLKSOURCE_MSI)
 8001e32:	687b      	ldr	r3, [r7, #4]
 8001e34:	685b      	ldr	r3, [r3, #4]
 8001e36:	2b00      	cmp	r3, #0
 8001e38:	d107      	bne.n	8001e4a <HAL_RCC_ClockConfig+0xc6>
      {
        /* Check the MSI ready flag */
        if(READ_BIT(RCC->CR, RCC_CR_MSIRDY) == 0U)
 8001e3a:	4b4e      	ldr	r3, [pc, #312]	@ (8001f74 <HAL_RCC_ClockConfig+0x1f0>)
 8001e3c:	681b      	ldr	r3, [r3, #0]
 8001e3e:	f003 0302 	and.w	r3, r3, #2
 8001e42:	2b00      	cmp	r3, #0
 8001e44:	d109      	bne.n	8001e5a <HAL_RCC_ClockConfig+0xd6>
        {
          return HAL_ERROR;
 8001e46:	2301      	movs	r3, #1
 8001e48:	e08e      	b.n	8001f68 <HAL_RCC_ClockConfig+0x1e4>
      }
      /* HSI is selected as System Clock Source */
      else
      {
        /* Check the HSI ready flag */
        if(READ_BIT(RCC->CR, RCC_CR_HSIRDY) == 0U)
 8001e4a:	4b4a      	ldr	r3, [pc, #296]	@ (8001f74 <HAL_RCC_ClockConfig+0x1f0>)
 8001e4c:	681b      	ldr	r3, [r3, #0]
 8001e4e:	f403 6380 	and.w	r3, r3, #1024	@ 0x400
 8001e52:	2b00      	cmp	r3, #0
 8001e54:	d101      	bne.n	8001e5a <HAL_RCC_ClockConfig+0xd6>
        {
          return HAL_ERROR;
 8001e56:	2301      	movs	r3, #1
 8001e58:	e086      	b.n	8001f68 <HAL_RCC_ClockConfig+0x1e4>
      }
#endif

    }

    MODIFY_REG(RCC->CFGR, RCC_CFGR_SW, RCC_ClkInitStruct->SYSCLKSource);
 8001e5a:	4b46      	ldr	r3, [pc, #280]	@ (8001f74 <HAL_RCC_ClockConfig+0x1f0>)
 8001e5c:	689b      	ldr	r3, [r3, #8]
 8001e5e:	f023 0203 	bic.w	r2, r3, #3
 8001e62:	687b      	ldr	r3, [r7, #4]
 8001e64:	685b      	ldr	r3, [r3, #4]
 8001e66:	4943      	ldr	r1, [pc, #268]	@ (8001f74 <HAL_RCC_ClockConfig+0x1f0>)
 8001e68:	4313      	orrs	r3, r2
 8001e6a:	608b      	str	r3, [r1, #8]

    /* Get Start Tick*/
    tickstart = HAL_GetTick();
 8001e6c:	f7ff f816 	bl	8000e9c <HAL_GetTick>
 8001e70:	60f8      	str	r0, [r7, #12]

    while(__HAL_RCC_GET_SYSCLK_SOURCE() != (RCC_ClkInitStruct->SYSCLKSource << RCC_CFGR_SWS_Pos))
 8001e72:	e00a      	b.n	8001e8a <HAL_RCC_ClockConfig+0x106>
    {
      if((HAL_GetTick() - tickstart) > CLOCKSWITCH_TIMEOUT_VALUE)
 8001e74:	f7ff f812 	bl	8000e9c <HAL_GetTick>
 8001e78:	4602      	mov	r2, r0
 8001e7a:	68fb      	ldr	r3, [r7, #12]
 8001e7c:	1ad3      	subs	r3, r2, r3
 8001e7e:	f241 3288 	movw	r2, #5000	@ 0x1388
 8001e82:	4293      	cmp	r3, r2
 8001e84:	d901      	bls.n	8001e8a <HAL_RCC_ClockConfig+0x106>
      {
        return HAL_TIMEOUT;
 8001e86:	2303      	movs	r3, #3
 8001e88:	e06e      	b.n	8001f68 <HAL_RCC_ClockConfig+0x1e4>
    while(__HAL_RCC_GET_SYSCLK_SOURCE() != (RCC_ClkInitStruct->SYSCLKSource << RCC_CFGR_SWS_Pos))
 8001e8a:	4b3a      	ldr	r3, [pc, #232]	@ (8001f74 <HAL_RCC_ClockConfig+0x1f0>)
 8001e8c:	689b      	ldr	r3, [r3, #8]
 8001e8e:	f003 020c 	and.w	r2, r3, #12
 8001e92:	687b      	ldr	r3, [r7, #4]
 8001e94:	685b      	ldr	r3, [r3, #4]
 8001e96:	009b      	lsls	r3, r3, #2
 8001e98:	429a      	cmp	r2, r3
 8001e9a:	d1eb      	bne.n	8001e74 <HAL_RCC_ClockConfig+0xf0>
  }
#endif

  /*----------------- HCLK Configuration after SYSCLK-------------------------*/
  /* Apply lower HCLK prescaler request here to ensure CPU clock is not of of spec when SYSCLK is set */
  if(((RCC_ClkInitStruct->ClockType) & RCC_CLOCKTYPE_HCLK) == RCC_CLOCKTYPE_HCLK)
 8001e9c:	687b      	ldr	r3, [r7, #4]
 8001e9e:	681b      	ldr	r3, [r3, #0]
 8001ea0:	f003 0302 	and.w	r3, r3, #2
 8001ea4:	2b00      	cmp	r3, #0
 8001ea6:	d010      	beq.n	8001eca <HAL_RCC_ClockConfig+0x146>
  {
    if(RCC_ClkInitStruct->AHBCLKDivider < READ_BIT(RCC->CFGR, RCC_CFGR_HPRE))
 8001ea8:	687b      	ldr	r3, [r7, #4]
 8001eaa:	689a      	ldr	r2, [r3, #8]
 8001eac:	4b31      	ldr	r3, [pc, #196]	@ (8001f74 <HAL_RCC_ClockConfig+0x1f0>)
 8001eae:	689b      	ldr	r3, [r3, #8]
 8001eb0:	f003 03f0 	and.w	r3, r3, #240	@ 0xf0
 8001eb4:	429a      	cmp	r2, r3
 8001eb6:	d208      	bcs.n	8001eca <HAL_RCC_ClockConfig+0x146>
    {
      MODIFY_REG(RCC->CFGR, RCC_CFGR_HPRE, RCC_ClkInitStruct->AHBCLKDivider);
 8001eb8:	4b2e      	ldr	r3, [pc, #184]	@ (8001f74 <HAL_RCC_ClockConfig+0x1f0>)
 8001eba:	689b      	ldr	r3, [r3, #8]
 8001ebc:	f023 02f0 	bic.w	r2, r3, #240	@ 0xf0
 8001ec0:	687b      	ldr	r3, [r7, #4]
 8001ec2:	689b      	ldr	r3, [r3, #8]
 8001ec4:	492b      	ldr	r1, [pc, #172]	@ (8001f74 <HAL_RCC_ClockConfig+0x1f0>)
 8001ec6:	4313      	orrs	r3, r2
 8001ec8:	608b      	str	r3, [r1, #8]
    }
  }

  /* Allow decreasing of the number of wait states (because of lower CPU frequency expected) */
  if(FLatency < __HAL_FLASH_GET_LATENCY())
 8001eca:	4b29      	ldr	r3, [pc, #164]	@ (8001f70 <HAL_RCC_ClockConfig+0x1ec>)
 8001ecc:	681b      	ldr	r3, [r3, #0]
 8001ece:	f003 0307 	and.w	r3, r3, #7
 8001ed2:	683a      	ldr	r2, [r7, #0]
 8001ed4:	429a      	cmp	r2, r3
 8001ed6:	d210      	bcs.n	8001efa <HAL_RCC_ClockConfig+0x176>
  {
    /* Program the new number of wait states to the LATENCY bits in the FLASH_ACR register */
    __HAL_FLASH_SET_LATENCY(FLatency);
 8001ed8:	4b25      	ldr	r3, [pc, #148]	@ (8001f70 <HAL_RCC_ClockConfig+0x1ec>)
 8001eda:	681b      	ldr	r3, [r3, #0]
 8001edc:	f023 0207 	bic.w	r2, r3, #7
 8001ee0:	4923      	ldr	r1, [pc, #140]	@ (8001f70 <HAL_RCC_ClockConfig+0x1ec>)
 8001ee2:	683b      	ldr	r3, [r7, #0]
 8001ee4:	4313      	orrs	r3, r2
 8001ee6:	600b      	str	r3, [r1, #0]

    /* Check that the new number of wait states is taken into account to access the Flash
    memory by reading the FLASH_ACR register */
    if(__HAL_FLASH_GET_LATENCY() != FLatency)
 8001ee8:	4b21      	ldr	r3, [pc, #132]	@ (8001f70 <HAL_RCC_ClockConfig+0x1ec>)
 8001eea:	681b      	ldr	r3, [r3, #0]
 8001eec:	f003 0307 	and.w	r3, r3, #7
 8001ef0:	683a      	ldr	r2, [r7, #0]
 8001ef2:	429a      	cmp	r2, r3
 8001ef4:	d001      	beq.n	8001efa <HAL_RCC_ClockConfig+0x176>
    {
      return HAL_ERROR;
 8001ef6:	2301      	movs	r3, #1
 8001ef8:	e036      	b.n	8001f68 <HAL_RCC_ClockConfig+0x1e4>
    }
  }

  /*-------------------------- PCLK1 Configuration ---------------------------*/
  if(((RCC_ClkInitStruct->ClockType) & RCC_CLOCKTYPE_PCLK1) == RCC_CLOCKTYPE_PCLK1)
 8001efa:	687b      	ldr	r3, [r7, #4]
 8001efc:	681b      	ldr	r3, [r3, #0]
 8001efe:	f003 0304 	and.w	r3, r3, #4
 8001f02:	2b00      	cmp	r3, #0
 8001f04:	d008      	beq.n	8001f18 <HAL_RCC_ClockConfig+0x194>
  {
    assert_param(IS_RCC_PCLK(RCC_ClkInitStruct->APB1CLKDivider));
    MODIFY_REG(RCC->CFGR, RCC_CFGR_PPRE1, RCC_ClkInitStruct->APB1CLKDivider);
 8001f06:	4b1b      	ldr	r3, [pc, #108]	@ (8001f74 <HAL_RCC_ClockConfig+0x1f0>)
 8001f08:	689b      	ldr	r3, [r3, #8]
 8001f0a:	f423 62e0 	bic.w	r2, r3, #1792	@ 0x700
 8001f0e:	687b      	ldr	r3, [r7, #4]
 8001f10:	68db      	ldr	r3, [r3, #12]
 8001f12:	4918      	ldr	r1, [pc, #96]	@ (8001f74 <HAL_RCC_ClockConfig+0x1f0>)
 8001f14:	4313      	orrs	r3, r2
 8001f16:	608b      	str	r3, [r1, #8]
  }

  /*-------------------------- PCLK2 Configuration ---------------------------*/
  if(((RCC_ClkInitStruct->ClockType) & RCC_CLOCKTYPE_PCLK2) == RCC_CLOCKTYPE_PCLK2)
 8001f18:	687b      	ldr	r3, [r7, #4]
 8001f1a:	681b      	ldr	r3, [r3, #0]
 8001f1c:	f003 0308 	and.w	r3, r3, #8
 8001f20:	2b00      	cmp	r3, #0
 8001f22:	d009      	beq.n	8001f38 <HAL_RCC_ClockConfig+0x1b4>
  {
    assert_param(IS_RCC_PCLK(RCC_ClkInitStruct->APB2CLKDivider));
    MODIFY_REG(RCC->CFGR, RCC_CFGR_PPRE2, ((RCC_ClkInitStruct->APB2CLKDivider) << 3U));
 8001f24:	4b13      	ldr	r3, [pc, #76]	@ (8001f74 <HAL_RCC_ClockConfig+0x1f0>)
 8001f26:	689b      	ldr	r3, [r3, #8]
 8001f28:	f423 5260 	bic.w	r2, r3, #14336	@ 0x3800
 8001f2c:	687b      	ldr	r3, [r7, #4]
 8001f2e:	691b      	ldr	r3, [r3, #16]
 8001f30:	00db      	lsls	r3, r3, #3
 8001f32:	4910      	ldr	r1, [pc, #64]	@ (8001f74 <HAL_RCC_ClockConfig+0x1f0>)
 8001f34:	4313      	orrs	r3, r2
 8001f36:	608b      	str	r3, [r1, #8]
  }

  /* Update the SystemCoreClock global variable */
  SystemCoreClock = HAL_RCC_GetSysClockFreq() >> (AHBPrescTable[READ_BIT(RCC->CFGR, RCC_CFGR_HPRE) >> RCC_CFGR_HPRE_Pos] & 0x1FU);
 8001f38:	f000 f824 	bl	8001f84 <HAL_RCC_GetSysClockFreq>
 8001f3c:	4602      	mov	r2, r0
 8001f3e:	4b0d      	ldr	r3, [pc, #52]	@ (8001f74 <HAL_RCC_ClockConfig+0x1f0>)
 8001f40:	689b      	ldr	r3, [r3, #8]
 8001f42:	091b      	lsrs	r3, r3, #4
 8001f44:	f003 030f 	and.w	r3, r3, #15
 8001f48:	490b      	ldr	r1, [pc, #44]	@ (8001f78 <HAL_RCC_ClockConfig+0x1f4>)
 8001f4a:	5ccb      	ldrb	r3, [r1, r3]
 8001f4c:	f003 031f 	and.w	r3, r3, #31
 8001f50:	fa22 f303 	lsr.w	r3, r2, r3
 8001f54:	4a09      	ldr	r2, [pc, #36]	@ (8001f7c <HAL_RCC_ClockConfig+0x1f8>)
 8001f56:	6013      	str	r3, [r2, #0]

  /* Configure the source of time base considering new system clocks settings*/
  status = HAL_InitTick(uwTickPrio);
 8001f58:	4b09      	ldr	r3, [pc, #36]	@ (8001f80 <HAL_RCC_ClockConfig+0x1fc>)
 8001f5a:	681b      	ldr	r3, [r3, #0]
 8001f5c:	4618      	mov	r0, r3
 8001f5e:	f7fe ff4d 	bl	8000dfc <HAL_InitTick>
 8001f62:	4603      	mov	r3, r0
 8001f64:	72fb      	strb	r3, [r7, #11]

  return status;
 8001f66:	7afb      	ldrb	r3, [r7, #11]
}
 8001f68:	4618      	mov	r0, r3
 8001f6a:	3710      	adds	r7, #16
 8001f6c:	46bd      	mov	sp, r7
 8001f6e:	bd80      	pop	{r7, pc}
 8001f70:	40022000 	.word	0x40022000
 8001f74:	40021000 	.word	0x40021000
 8001f78:	08003cf4 	.word	0x08003cf4
 8001f7c:	20000028 	.word	0x20000028
 8001f80:	2000002c 	.word	0x2000002c

08001f84 <HAL_RCC_GetSysClockFreq>:
  *
  *
  * @retval SYSCLK frequency
  */
uint32_t HAL_RCC_GetSysClockFreq(void)
{
 8001f84:	b480      	push	{r7}
 8001f86:	b089      	sub	sp, #36	@ 0x24
 8001f88:	af00      	add	r7, sp, #0
  uint32_t msirange = 0U, sysclockfreq = 0U;
 8001f8a:	2300      	movs	r3, #0
 8001f8c:	61fb      	str	r3, [r7, #28]
 8001f8e:	2300      	movs	r3, #0
 8001f90:	61bb      	str	r3, [r7, #24]
  uint32_t pllvco, pllsource, pllr, pllm;    /* no init needed */
  uint32_t sysclk_source, pll_oscsource;

  sysclk_source = __HAL_RCC_GET_SYSCLK_SOURCE();
 8001f92:	4b3e      	ldr	r3, [pc, #248]	@ (800208c <HAL_RCC_GetSysClockFreq+0x108>)
 8001f94:	689b      	ldr	r3, [r3, #8]
 8001f96:	f003 030c 	and.w	r3, r3, #12
 8001f9a:	613b      	str	r3, [r7, #16]
  pll_oscsource = __HAL_RCC_GET_PLL_OSCSOURCE();
 8001f9c:	4b3b      	ldr	r3, [pc, #236]	@ (800208c <HAL_RCC_GetSysClockFreq+0x108>)
 8001f9e:	68db      	ldr	r3, [r3, #12]
 8001fa0:	f003 0303 	and.w	r3, r3, #3
 8001fa4:	60fb      	str	r3, [r7, #12]

  if((sysclk_source == RCC_CFGR_SWS_MSI) ||
 8001fa6:	693b      	ldr	r3, [r7, #16]
 8001fa8:	2b00      	cmp	r3, #0
 8001faa:	d005      	beq.n	8001fb8 <HAL_RCC_GetSysClockFreq+0x34>
 8001fac:	693b      	ldr	r3, [r7, #16]
 8001fae:	2b0c      	cmp	r3, #12
 8001fb0:	d121      	bne.n	8001ff6 <HAL_RCC_GetSysClockFreq+0x72>
     ((sysclk_source == RCC_CFGR_SWS_PLL) && (pll_oscsource == RCC_PLLSOURCE_MSI)))
 8001fb2:	68fb      	ldr	r3, [r7, #12]
 8001fb4:	2b01      	cmp	r3, #1
 8001fb6:	d11e      	bne.n	8001ff6 <HAL_RCC_GetSysClockFreq+0x72>
  {
    /* MSI or PLL with MSI source used as system clock source */

    /* Get SYSCLK source */
    if(READ_BIT(RCC->CR, RCC_CR_MSIRGSEL) == 0U)
 8001fb8:	4b34      	ldr	r3, [pc, #208]	@ (800208c <HAL_RCC_GetSysClockFreq+0x108>)
 8001fba:	681b      	ldr	r3, [r3, #0]
 8001fbc:	f003 0308 	and.w	r3, r3, #8
 8001fc0:	2b00      	cmp	r3, #0
 8001fc2:	d107      	bne.n	8001fd4 <HAL_RCC_GetSysClockFreq+0x50>
    { /* MSISRANGE from RCC_CSR applies */
      msirange = READ_BIT(RCC->CSR, RCC_CSR_MSISRANGE) >> RCC_CSR_MSISRANGE_Pos;
 8001fc4:	4b31      	ldr	r3, [pc, #196]	@ (800208c <HAL_RCC_GetSysClockFreq+0x108>)
 8001fc6:	f8d3 3094 	ldr.w	r3, [r3, #148]	@ 0x94
 8001fca:	0a1b      	lsrs	r3, r3, #8
 8001fcc:	f003 030f 	and.w	r3, r3, #15
 8001fd0:	61fb      	str	r3, [r7, #28]
 8001fd2:	e005      	b.n	8001fe0 <HAL_RCC_GetSysClockFreq+0x5c>
    }
    else
    { /* MSIRANGE from RCC_CR applies */
      msirange = READ_BIT(RCC->CR, RCC_CR_MSIRANGE) >> RCC_CR_MSIRANGE_Pos;
 8001fd4:	4b2d      	ldr	r3, [pc, #180]	@ (800208c <HAL_RCC_GetSysClockFreq+0x108>)
 8001fd6:	681b      	ldr	r3, [r3, #0]
 8001fd8:	091b      	lsrs	r3, r3, #4
 8001fda:	f003 030f 	and.w	r3, r3, #15
 8001fde:	61fb      	str	r3, [r7, #28]
    }
    /*MSI frequency range in HZ*/
    msirange = MSIRangeTable[msirange];
 8001fe0:	4a2b      	ldr	r2, [pc, #172]	@ (8002090 <HAL_RCC_GetSysClockFreq+0x10c>)
 8001fe2:	69fb      	ldr	r3, [r7, #28]
 8001fe4:	f852 3023 	ldr.w	r3, [r2, r3, lsl #2]
 8001fe8:	61fb      	str	r3, [r7, #28]

    if(sysclk_source == RCC_CFGR_SWS_MSI)
 8001fea:	693b      	ldr	r3, [r7, #16]
 8001fec:	2b00      	cmp	r3, #0
 8001fee:	d10d      	bne.n	800200c <HAL_RCC_GetSysClockFreq+0x88>
    {
      /* MSI used as system clock source */
      sysclockfreq = msirange;
 8001ff0:	69fb      	ldr	r3, [r7, #28]
 8001ff2:	61bb      	str	r3, [r7, #24]
    if(sysclk_source == RCC_CFGR_SWS_MSI)
 8001ff4:	e00a      	b.n	800200c <HAL_RCC_GetSysClockFreq+0x88>
    }
  }
  else if(sysclk_source == RCC_CFGR_SWS_HSI)
 8001ff6:	693b      	ldr	r3, [r7, #16]
 8001ff8:	2b04      	cmp	r3, #4
 8001ffa:	d102      	bne.n	8002002 <HAL_RCC_GetSysClockFreq+0x7e>
  {
    /* HSI used as system clock source */
    sysclockfreq = HSI_VALUE;
 8001ffc:	4b25      	ldr	r3, [pc, #148]	@ (8002094 <HAL_RCC_GetSysClockFreq+0x110>)
 8001ffe:	61bb      	str	r3, [r7, #24]
 8002000:	e004      	b.n	800200c <HAL_RCC_GetSysClockFreq+0x88>
  }
  else if(sysclk_source == RCC_CFGR_SWS_HSE)
 8002002:	693b      	ldr	r3, [r7, #16]
 8002004:	2b08      	cmp	r3, #8
 8002006:	d101      	bne.n	800200c <HAL_RCC_GetSysClockFreq+0x88>
  {
    /* HSE used as system clock source */
    sysclockfreq = HSE_VALUE;
 8002008:	4b23      	ldr	r3, [pc, #140]	@ (8002098 <HAL_RCC_GetSysClockFreq+0x114>)
 800200a:	61bb      	str	r3, [r7, #24]
  else
  {
    /* unexpected case: sysclockfreq at 0 */
  }

  if(sysclk_source == RCC_CFGR_SWS_PLL)
 800200c:	693b      	ldr	r3, [r7, #16]
 800200e:	2b0c      	cmp	r3, #12
 8002010:	d134      	bne.n	800207c <HAL_RCC_GetSysClockFreq+0xf8>
    /* PLL used as system clock  source */

    /* PLL_VCO = (HSE_VALUE or HSI_VALUE or MSI_VALUE) * PLLN / PLLM
    SYSCLK = PLL_VCO / PLLR
    */
    pllsource = READ_BIT(RCC->PLLCFGR, RCC_PLLCFGR_PLLSRC);
 8002012:	4b1e      	ldr	r3, [pc, #120]	@ (800208c <HAL_RCC_GetSysClockFreq+0x108>)
 8002014:	68db      	ldr	r3, [r3, #12]
 8002016:	f003 0303 	and.w	r3, r3, #3
 800201a:	60bb      	str	r3, [r7, #8]

    switch (pllsource)
 800201c:	68bb      	ldr	r3, [r7, #8]
 800201e:	2b02      	cmp	r3, #2
 8002020:	d003      	beq.n	800202a <HAL_RCC_GetSysClockFreq+0xa6>
 8002022:	68bb      	ldr	r3, [r7, #8]
 8002024:	2b03      	cmp	r3, #3
 8002026:	d003      	beq.n	8002030 <HAL_RCC_GetSysClockFreq+0xac>
 8002028:	e005      	b.n	8002036 <HAL_RCC_GetSysClockFreq+0xb2>
    {
    case RCC_PLLSOURCE_HSI:  /* HSI used as PLL clock source */
      pllvco = HSI_VALUE;
 800202a:	4b1a      	ldr	r3, [pc, #104]	@ (8002094 <HAL_RCC_GetSysClockFreq+0x110>)
 800202c:	617b      	str	r3, [r7, #20]
      break;
 800202e:	e005      	b.n	800203c <HAL_RCC_GetSysClockFreq+0xb8>

    case RCC_PLLSOURCE_HSE:  /* HSE used as PLL clock source */
      pllvco = HSE_VALUE;
 8002030:	4b19      	ldr	r3, [pc, #100]	@ (8002098 <HAL_RCC_GetSysClockFreq+0x114>)
 8002032:	617b      	str	r3, [r7, #20]
      break;
 8002034:	e002      	b.n	800203c <HAL_RCC_GetSysClockFreq+0xb8>

    case RCC_PLLSOURCE_MSI:  /* MSI used as PLL clock source */
    default:
      pllvco = msirange;
 8002036:	69fb      	ldr	r3, [r7, #28]
 8002038:	617b      	str	r3, [r7, #20]
      break;
 800203a:	bf00      	nop
    }
    pllm = (READ_BIT(RCC->PLLCFGR, RCC_PLLCFGR_PLLM) >> RCC_PLLCFGR_PLLM_Pos) + 1U ;
 800203c:	4b13      	ldr	r3, [pc, #76]	@ (800208c <HAL_RCC_GetSysClockFreq+0x108>)
 800203e:	68db      	ldr	r3, [r3, #12]
 8002040:	091b      	lsrs	r3, r3, #4
 8002042:	f003 0307 	and.w	r3, r3, #7
 8002046:	3301      	adds	r3, #1
 8002048:	607b      	str	r3, [r7, #4]
    pllvco = (pllvco * (READ_BIT(RCC->PLLCFGR, RCC_PLLCFGR_PLLN) >> RCC_PLLCFGR_PLLN_Pos)) / pllm;
 800204a:	4b10      	ldr	r3, [pc, #64]	@ (800208c <HAL_RCC_GetSysClockFreq+0x108>)
 800204c:	68db      	ldr	r3, [r3, #12]
 800204e:	0a1b      	lsrs	r3, r3, #8
 8002050:	f003 037f 	and.w	r3, r3, #127	@ 0x7f
 8002054:	697a      	ldr	r2, [r7, #20]
 8002056:	fb03 f202 	mul.w	r2, r3, r2
 800205a:	687b      	ldr	r3, [r7, #4]
 800205c:	fbb2 f3f3 	udiv	r3, r2, r3
 8002060:	617b      	str	r3, [r7, #20]
    pllr = ((READ_BIT(RCC->PLLCFGR, RCC_PLLCFGR_PLLR) >> RCC_PLLCFGR_PLLR_Pos) + 1U ) * 2U;
 8002062:	4b0a      	ldr	r3, [pc, #40]	@ (800208c <HAL_RCC_GetSysClockFreq+0x108>)
 8002064:	68db      	ldr	r3, [r3, #12]
 8002066:	0e5b      	lsrs	r3, r3, #25
 8002068:	f003 0303 	and.w	r3, r3, #3
 800206c:	3301      	adds	r3, #1
 800206e:	005b      	lsls	r3, r3, #1
 8002070:	603b      	str	r3, [r7, #0]
    sysclockfreq = pllvco / pllr;
 8002072:	697a      	ldr	r2, [r7, #20]
 8002074:	683b      	ldr	r3, [r7, #0]
 8002076:	fbb2 f3f3 	udiv	r3, r2, r3
 800207a:	61bb      	str	r3, [r7, #24]
  }

  return sysclockfreq;
 800207c:	69bb      	ldr	r3, [r7, #24]
}
 800207e:	4618      	mov	r0, r3
 8002080:	3724      	adds	r7, #36	@ 0x24
 8002082:	46bd      	mov	sp, r7
 8002084:	f85d 7b04 	ldr.w	r7, [sp], #4
 8002088:	4770      	bx	lr
 800208a:	bf00      	nop
 800208c:	40021000 	.word	0x40021000
 8002090:	08003d0c 	.word	0x08003d0c
 8002094:	00f42400 	.word	0x00f42400
 8002098:	007a1200 	.word	0x007a1200

0800209c <HAL_RCC_GetHCLKFreq>:
  *
  * @note   The SystemCoreClock CMSIS variable is used to store System Clock Frequency.
  * @retval HCLK frequency in Hz
  */
uint32_t HAL_RCC_GetHCLKFreq(void)
{
 800209c:	b480      	push	{r7}
 800209e:	af00      	add	r7, sp, #0
  return SystemCoreClock;
 80020a0:	4b03      	ldr	r3, [pc, #12]	@ (80020b0 <HAL_RCC_GetHCLKFreq+0x14>)
 80020a2:	681b      	ldr	r3, [r3, #0]
}
 80020a4:	4618      	mov	r0, r3
 80020a6:	46bd      	mov	sp, r7
 80020a8:	f85d 7b04 	ldr.w	r7, [sp], #4
 80020ac:	4770      	bx	lr
 80020ae:	bf00      	nop
 80020b0:	20000028 	.word	0x20000028

080020b4 <HAL_RCC_GetPCLK1Freq>:
  * @note   Each time PCLK1 changes, this function must be called to update the
  *         right PCLK1 value. Otherwise, any configuration based on this function will be incorrect.
  * @retval PCLK1 frequency in Hz
  */
uint32_t HAL_RCC_GetPCLK1Freq(void)
{
 80020b4:	b580      	push	{r7, lr}
 80020b6:	af00      	add	r7, sp, #0
  /* Get HCLK source and Compute PCLK1 frequency ---------------------------*/
  return (HAL_RCC_GetHCLKFreq() >> (APBPrescTable[READ_BIT(RCC->CFGR, RCC_CFGR_PPRE1) >> RCC_CFGR_PPRE1_Pos] & 0x1FU));
 80020b8:	f7ff fff0 	bl	800209c <HAL_RCC_GetHCLKFreq>
 80020bc:	4602      	mov	r2, r0
 80020be:	4b06      	ldr	r3, [pc, #24]	@ (80020d8 <HAL_RCC_GetPCLK1Freq+0x24>)
 80020c0:	689b      	ldr	r3, [r3, #8]
 80020c2:	0a1b      	lsrs	r3, r3, #8
 80020c4:	f003 0307 	and.w	r3, r3, #7
 80020c8:	4904      	ldr	r1, [pc, #16]	@ (80020dc <HAL_RCC_GetPCLK1Freq+0x28>)
 80020ca:	5ccb      	ldrb	r3, [r1, r3]
 80020cc:	f003 031f 	and.w	r3, r3, #31
 80020d0:	fa22 f303 	lsr.w	r3, r2, r3
}
 80020d4:	4618      	mov	r0, r3
 80020d6:	bd80      	pop	{r7, pc}
 80020d8:	40021000 	.word	0x40021000
 80020dc:	08003d04 	.word	0x08003d04

080020e0 <HAL_RCC_GetPCLK2Freq>:
  * @note   Each time PCLK2 changes, this function must be called to update the
  *         right PCLK2 value. Otherwise, any configuration based on this function will be incorrect.
  * @retval PCLK2 frequency in Hz
  */
uint32_t HAL_RCC_GetPCLK2Freq(void)
{
 80020e0:	b580      	push	{r7, lr}
 80020e2:	af00      	add	r7, sp, #0
  /* Get HCLK source and Compute PCLK2 frequency ---------------------------*/
  return (HAL_RCC_GetHCLKFreq()>> (APBPrescTable[READ_BIT(RCC->CFGR, RCC_CFGR_PPRE2) >> RCC_CFGR_PPRE2_Pos] & 0x1FU));
 80020e4:	f7ff ffda 	bl	800209c <HAL_RCC_GetHCLKFreq>
 80020e8:	4602      	mov	r2, r0
 80020ea:	4b06      	ldr	r3, [pc, #24]	@ (8002104 <HAL_RCC_GetPCLK2Freq+0x24>)
 80020ec:	689b      	ldr	r3, [r3, #8]
 80020ee:	0adb      	lsrs	r3, r3, #11
 80020f0:	f003 0307 	and.w	r3, r3, #7
 80020f4:	4904      	ldr	r1, [pc, #16]	@ (8002108 <HAL_RCC_GetPCLK2Freq+0x28>)
 80020f6:	5ccb      	ldrb	r3, [r1, r3]
 80020f8:	f003 031f 	and.w	r3, r3, #31
 80020fc:	fa22 f303 	lsr.w	r3, r2, r3
}
 8002100:	4618      	mov	r0, r3
 8002102:	bd80      	pop	{r7, pc}
 8002104:	40021000 	.word	0x40021000
 8002108:	08003d04 	.word	0x08003d04

0800210c <RCC_SetFlashLatencyFromMSIRange>:
            voltage range.
  * @param  msirange  MSI range value from RCC_MSIRANGE_0 to RCC_MSIRANGE_11
  * @retval HAL status
  */
static HAL_StatusTypeDef RCC_SetFlashLatencyFromMSIRange(uint32_t msirange)
{
 800210c:	b580      	push	{r7, lr}
 800210e:	b086      	sub	sp, #24
 8002110:	af00      	add	r7, sp, #0
 8002112:	6078      	str	r0, [r7, #4]
  uint32_t vos;
  uint32_t latency = FLASH_LATENCY_0;  /* default value 0WS */
 8002114:	2300      	movs	r3, #0
 8002116:	613b      	str	r3, [r7, #16]

  if(__HAL_RCC_PWR_IS_CLK_ENABLED())
 8002118:	4b2a      	ldr	r3, [pc, #168]	@ (80021c4 <RCC_SetFlashLatencyFromMSIRange+0xb8>)
 800211a:	6d9b      	ldr	r3, [r3, #88]	@ 0x58
 800211c:	f003 5380 	and.w	r3, r3, #268435456	@ 0x10000000
 8002120:	2b00      	cmp	r3, #0
 8002122:	d003      	beq.n	800212c <RCC_SetFlashLatencyFromMSIRange+0x20>
  {
    vos = HAL_PWREx_GetVoltageRange();
 8002124:	f7ff f9ee 	bl	8001504 <HAL_PWREx_GetVoltageRange>
 8002128:	6178      	str	r0, [r7, #20]
 800212a:	e014      	b.n	8002156 <RCC_SetFlashLatencyFromMSIRange+0x4a>
  }
  else
  {
    __HAL_RCC_PWR_CLK_ENABLE();
 800212c:	4b25      	ldr	r3, [pc, #148]	@ (80021c4 <RCC_SetFlashLatencyFromMSIRange+0xb8>)
 800212e:	6d9b      	ldr	r3, [r3, #88]	@ 0x58
 8002130:	4a24      	ldr	r2, [pc, #144]	@ (80021c4 <RCC_SetFlashLatencyFromMSIRange+0xb8>)
 8002132:	f043 5380 	orr.w	r3, r3, #268435456	@ 0x10000000
 8002136:	6593      	str	r3, [r2, #88]	@ 0x58
 8002138:	4b22      	ldr	r3, [pc, #136]	@ (80021c4 <RCC_SetFlashLatencyFromMSIRange+0xb8>)
 800213a:	6d9b      	ldr	r3, [r3, #88]	@ 0x58
 800213c:	f003 5380 	and.w	r3, r3, #268435456	@ 0x10000000
 8002140:	60fb      	str	r3, [r7, #12]
 8002142:	68fb      	ldr	r3, [r7, #12]
    vos = HAL_PWREx_GetVoltageRange();
 8002144:	f7ff f9de 	bl	8001504 <HAL_PWREx_GetVoltageRange>
 8002148:	6178      	str	r0, [r7, #20]
    __HAL_RCC_PWR_CLK_DISABLE();
 800214a:	4b1e      	ldr	r3, [pc, #120]	@ (80021c4 <RCC_SetFlashLatencyFromMSIRange+0xb8>)
 800214c:	6d9b      	ldr	r3, [r3, #88]	@ 0x58
 800214e:	4a1d      	ldr	r2, [pc, #116]	@ (80021c4 <RCC_SetFlashLatencyFromMSIRange+0xb8>)
 8002150:	f023 5380 	bic.w	r3, r3, #268435456	@ 0x10000000
 8002154:	6593      	str	r3, [r2, #88]	@ 0x58
  }

  if(vos == PWR_REGULATOR_VOLTAGE_SCALE1)
 8002156:	697b      	ldr	r3, [r7, #20]
 8002158:	f5b3 7f00 	cmp.w	r3, #512	@ 0x200
 800215c:	d10b      	bne.n	8002176 <RCC_SetFlashLatencyFromMSIRange+0x6a>
  {
    if(msirange > RCC_MSIRANGE_8)
 800215e:	687b      	ldr	r3, [r7, #4]
 8002160:	2b80      	cmp	r3, #128	@ 0x80
 8002162:	d919      	bls.n	8002198 <RCC_SetFlashLatencyFromMSIRange+0x8c>
    {
      /* MSI > 16Mhz */
      if(msirange > RCC_MSIRANGE_10)
 8002164:	687b      	ldr	r3, [r7, #4]
 8002166:	2ba0      	cmp	r3, #160	@ 0xa0
 8002168:	d902      	bls.n	8002170 <RCC_SetFlashLatencyFromMSIRange+0x64>
      {
        /* MSI 48Mhz */
        latency = FLASH_LATENCY_2; /* 2WS */
 800216a:	2302      	movs	r3, #2
 800216c:	613b      	str	r3, [r7, #16]
 800216e:	e013      	b.n	8002198 <RCC_SetFlashLatencyFromMSIRange+0x8c>
      }
      else
      {
        /* MSI 24Mhz or 32Mhz */
        latency = FLASH_LATENCY_1; /* 1WS */
 8002170:	2301      	movs	r3, #1
 8002172:	613b      	str	r3, [r7, #16]
 8002174:	e010      	b.n	8002198 <RCC_SetFlashLatencyFromMSIRange+0x8c>
        latency = FLASH_LATENCY_1; /* 1WS */
      }
      /* else MSI < 8Mhz default FLASH_LATENCY_0 0WS */
    }
#else
    if(msirange > RCC_MSIRANGE_8)
 8002176:	687b      	ldr	r3, [r7, #4]
 8002178:	2b80      	cmp	r3, #128	@ 0x80
 800217a:	d902      	bls.n	8002182 <RCC_SetFlashLatencyFromMSIRange+0x76>
    {
      /* MSI > 16Mhz */
      latency = FLASH_LATENCY_3; /* 3WS */
 800217c:	2303      	movs	r3, #3
 800217e:	613b      	str	r3, [r7, #16]
 8002180:	e00a      	b.n	8002198 <RCC_SetFlashLatencyFromMSIRange+0x8c>
    }
    else
    {
      if(msirange == RCC_MSIRANGE_8)
 8002182:	687b      	ldr	r3, [r7, #4]
 8002184:	2b80      	cmp	r3, #128	@ 0x80
 8002186:	d102      	bne.n	800218e <RCC_SetFlashLatencyFromMSIRange+0x82>
      {
        /* MSI 16Mhz */
        latency = FLASH_LATENCY_2; /* 2WS */
 8002188:	2302      	movs	r3, #2
 800218a:	613b      	str	r3, [r7, #16]
 800218c:	e004      	b.n	8002198 <RCC_SetFlashLatencyFromMSIRange+0x8c>
      }
      else if(msirange == RCC_MSIRANGE_7)
 800218e:	687b      	ldr	r3, [r7, #4]
 8002190:	2b70      	cmp	r3, #112	@ 0x70
 8002192:	d101      	bne.n	8002198 <RCC_SetFlashLatencyFromMSIRange+0x8c>
      {
        /* MSI 8Mhz */
        latency = FLASH_LATENCY_1; /* 1WS */
 8002194:	2301      	movs	r3, #1
 8002196:	613b      	str	r3, [r7, #16]
      }
    }
#endif
  }

  __HAL_FLASH_SET_LATENCY(latency);
 8002198:	4b0b      	ldr	r3, [pc, #44]	@ (80021c8 <RCC_SetFlashLatencyFromMSIRange+0xbc>)
 800219a:	681b      	ldr	r3, [r3, #0]
 800219c:	f023 0207 	bic.w	r2, r3, #7
 80021a0:	4909      	ldr	r1, [pc, #36]	@ (80021c8 <RCC_SetFlashLatencyFromMSIRange+0xbc>)
 80021a2:	693b      	ldr	r3, [r7, #16]
 80021a4:	4313      	orrs	r3, r2
 80021a6:	600b      	str	r3, [r1, #0]

  /* Check that the new number of wait states is taken into account to access the Flash
     memory by reading the FLASH_ACR register */
  if(__HAL_FLASH_GET_LATENCY() != latency)
 80021a8:	4b07      	ldr	r3, [pc, #28]	@ (80021c8 <RCC_SetFlashLatencyFromMSIRange+0xbc>)
 80021aa:	681b      	ldr	r3, [r3, #0]
 80021ac:	f003 0307 	and.w	r3, r3, #7
 80021b0:	693a      	ldr	r2, [r7, #16]
 80021b2:	429a      	cmp	r2, r3
 80021b4:	d001      	beq.n	80021ba <RCC_SetFlashLatencyFromMSIRange+0xae>
  {
    return HAL_ERROR;
 80021b6:	2301      	movs	r3, #1
 80021b8:	e000      	b.n	80021bc <RCC_SetFlashLatencyFromMSIRange+0xb0>
  }

  return HAL_OK;
 80021ba:	2300      	movs	r3, #0
}
 80021bc:	4618      	mov	r0, r3
 80021be:	3718      	adds	r7, #24
 80021c0:	46bd      	mov	sp, r7
 80021c2:	bd80      	pop	{r7, pc}
 80021c4:	40021000 	.word	0x40021000
 80021c8:	40022000 	.word	0x40022000

080021cc <HAL_RCCEx_PeriphCLKConfig>:
  *         the RTC clock source: in this case the access to Backup domain is enabled.
  *
  * @retval HAL status
  */
HAL_StatusTypeDef HAL_RCCEx_PeriphCLKConfig(RCC_PeriphCLKInitTypeDef  *PeriphClkInit)
{
 80021cc:	b580      	push	{r7, lr}
 80021ce:	b086      	sub	sp, #24
 80021d0:	af00      	add	r7, sp, #0
 80021d2:	6078      	str	r0, [r7, #4]
  uint32_t tmpregister, tickstart;     /* no init needed */
  HAL_StatusTypeDef ret = HAL_OK;      /* Intermediate status */
 80021d4:	2300      	movs	r3, #0
 80021d6:	74fb      	strb	r3, [r7, #19]
  HAL_StatusTypeDef status = HAL_OK;   /* Final status */
 80021d8:	2300      	movs	r3, #0
 80021da:	74bb      	strb	r3, [r7, #18]
  assert_param(IS_RCC_PERIPHCLOCK(PeriphClkInit->PeriphClockSelection));

#if defined(SAI1)

  /*-------------------------- SAI1 clock source configuration ---------------------*/
  if((((PeriphClkInit->PeriphClockSelection) & RCC_PERIPHCLK_SAI1) == RCC_PERIPHCLK_SAI1))
 80021dc:	687b      	ldr	r3, [r7, #4]
 80021de:	681b      	ldr	r3, [r3, #0]
 80021e0:	f403 6300 	and.w	r3, r3, #2048	@ 0x800
 80021e4:	2b00      	cmp	r3, #0
 80021e6:	d041      	beq.n	800226c <HAL_RCCEx_PeriphCLKConfig+0xa0>
  {
    /* Check the parameters */
    assert_param(IS_RCC_SAI1CLK(PeriphClkInit->Sai1ClockSelection));

    switch(PeriphClkInit->Sai1ClockSelection)
 80021e8:	687b      	ldr	r3, [r7, #4]
 80021ea:	6e5b      	ldr	r3, [r3, #100]	@ 0x64
 80021ec:	f5b3 0f40 	cmp.w	r3, #12582912	@ 0xc00000
 80021f0:	d02a      	beq.n	8002248 <HAL_RCCEx_PeriphCLKConfig+0x7c>
 80021f2:	f5b3 0f40 	cmp.w	r3, #12582912	@ 0xc00000
 80021f6:	d824      	bhi.n	8002242 <HAL_RCCEx_PeriphCLKConfig+0x76>
 80021f8:	f5b3 0f00 	cmp.w	r3, #8388608	@ 0x800000
 80021fc:	d008      	beq.n	8002210 <HAL_RCCEx_PeriphCLKConfig+0x44>
 80021fe:	f5b3 0f00 	cmp.w	r3, #8388608	@ 0x800000
 8002202:	d81e      	bhi.n	8002242 <HAL_RCCEx_PeriphCLKConfig+0x76>
 8002204:	2b00      	cmp	r3, #0
 8002206:	d00a      	beq.n	800221e <HAL_RCCEx_PeriphCLKConfig+0x52>
 8002208:	f5b3 0f80 	cmp.w	r3, #4194304	@ 0x400000
 800220c:	d010      	beq.n	8002230 <HAL_RCCEx_PeriphCLKConfig+0x64>
 800220e:	e018      	b.n	8002242 <HAL_RCCEx_PeriphCLKConfig+0x76>
    {
    case RCC_SAI1CLKSOURCE_PLL:      /* PLL is used as clock source for SAI1*/
      /* Enable SAI Clock output generated from System PLL . */
#if defined(RCC_PLLSAI2_SUPPORT)
      __HAL_RCC_PLLCLKOUT_ENABLE(RCC_PLL_SAI3CLK);
 8002210:	4b86      	ldr	r3, [pc, #536]	@ (800242c <HAL_RCCEx_PeriphCLKConfig+0x260>)
 8002212:	68db      	ldr	r3, [r3, #12]
 8002214:	4a85      	ldr	r2, [pc, #532]	@ (800242c <HAL_RCCEx_PeriphCLKConfig+0x260>)
 8002216:	f443 3380 	orr.w	r3, r3, #65536	@ 0x10000
 800221a:	60d3      	str	r3, [r2, #12]
#else
      __HAL_RCC_PLLCLKOUT_ENABLE(RCC_PLL_SAI2CLK);
#endif /* RCC_PLLSAI2_SUPPORT */
      /* SAI1 clock source config set later after clock selection check */
      break;
 800221c:	e015      	b.n	800224a <HAL_RCCEx_PeriphCLKConfig+0x7e>

    case RCC_SAI1CLKSOURCE_PLLSAI1:  /* PLLSAI1 is used as clock source for SAI1*/
      /* PLLSAI1 input clock, parameters M, N & P configuration and clock output (PLLSAI1ClockOut) */
      ret = RCCEx_PLLSAI1_Config(&(PeriphClkInit->PLLSAI1), DIVIDER_P_UPDATE);
 800221e:	687b      	ldr	r3, [r7, #4]
 8002220:	3304      	adds	r3, #4
 8002222:	2100      	movs	r1, #0
 8002224:	4618      	mov	r0, r3
 8002226:	f000 fabb 	bl	80027a0 <RCCEx_PLLSAI1_Config>
 800222a:	4603      	mov	r3, r0
 800222c:	74fb      	strb	r3, [r7, #19]
      /* SAI1 clock source config set later after clock selection check */
      break;
 800222e:	e00c      	b.n	800224a <HAL_RCCEx_PeriphCLKConfig+0x7e>

#if defined(RCC_PLLSAI2_SUPPORT)

    case RCC_SAI1CLKSOURCE_PLLSAI2:  /* PLLSAI2 is used as clock source for SAI1*/
      /* PLLSAI2 input clock, parameters M, N & P configuration clock output (PLLSAI2ClockOut) */
      ret = RCCEx_PLLSAI2_Config(&(PeriphClkInit->PLLSAI2), DIVIDER_P_UPDATE);
 8002230:	687b      	ldr	r3, [r7, #4]
 8002232:	3320      	adds	r3, #32
 8002234:	2100      	movs	r1, #0
 8002236:	4618      	mov	r0, r3
 8002238:	f000 fba6 	bl	8002988 <RCCEx_PLLSAI2_Config>
 800223c:	4603      	mov	r3, r0
 800223e:	74fb      	strb	r3, [r7, #19]
      /* SAI1 clock source config set later after clock selection check */
      break;
 8002240:	e003      	b.n	800224a <HAL_RCCEx_PeriphCLKConfig+0x7e>
#endif /* STM32L4P5xx || STM32L4Q5xx || STM32L4R5xx || STM32L4R7xx || STM32L4R9xx || STM32L4S5xx || STM32L4S7xx || STM32L4S9xx */
      /* SAI1 clock source config set later after clock selection check */
      break;

    default:
      ret = HAL_ERROR;
 8002242:	2301      	movs	r3, #1
 8002244:	74fb      	strb	r3, [r7, #19]
      break;
 8002246:	e000      	b.n	800224a <HAL_RCCEx_PeriphCLKConfig+0x7e>
      break;
 8002248:	bf00      	nop
    }

    if(ret == HAL_OK)
 800224a:	7cfb      	ldrb	r3, [r7, #19]
 800224c:	2b00      	cmp	r3, #0
 800224e:	d10b      	bne.n	8002268 <HAL_RCCEx_PeriphCLKConfig+0x9c>
    {
      /* Set the source of SAI1 clock*/
      __HAL_RCC_SAI1_CONFIG(PeriphClkInit->Sai1ClockSelection);
 8002250:	4b76      	ldr	r3, [pc, #472]	@ (800242c <HAL_RCCEx_PeriphCLKConfig+0x260>)
 8002252:	f8d3 3088 	ldr.w	r3, [r3, #136]	@ 0x88
 8002256:	f423 0240 	bic.w	r2, r3, #12582912	@ 0xc00000
 800225a:	687b      	ldr	r3, [r7, #4]
 800225c:	6e5b      	ldr	r3, [r3, #100]	@ 0x64
 800225e:	4973      	ldr	r1, [pc, #460]	@ (800242c <HAL_RCCEx_PeriphCLKConfig+0x260>)
 8002260:	4313      	orrs	r3, r2
 8002262:	f8c1 3088 	str.w	r3, [r1, #136]	@ 0x88
 8002266:	e001      	b.n	800226c <HAL_RCCEx_PeriphCLKConfig+0xa0>
    }
    else
    {
      /* set overall return value */
      status = ret;
 8002268:	7cfb      	ldrb	r3, [r7, #19]
 800226a:	74bb      	strb	r3, [r7, #18]
#endif /* SAI1 */

#if defined(SAI2)

  /*-------------------------- SAI2 clock source configuration ---------------------*/
  if((((PeriphClkInit->PeriphClockSelection) & RCC_PERIPHCLK_SAI2) == RCC_PERIPHCLK_SAI2))
 800226c:	687b      	ldr	r3, [r7, #4]
 800226e:	681b      	ldr	r3, [r3, #0]
 8002270:	f403 5380 	and.w	r3, r3, #4096	@ 0x1000
 8002274:	2b00      	cmp	r3, #0
 8002276:	d041      	beq.n	80022fc <HAL_RCCEx_PeriphCLKConfig+0x130>
  {
    /* Check the parameters */
    assert_param(IS_RCC_SAI2CLK(PeriphClkInit->Sai2ClockSelection));

    switch(PeriphClkInit->Sai2ClockSelection)
 8002278:	687b      	ldr	r3, [r7, #4]
 800227a:	6e9b      	ldr	r3, [r3, #104]	@ 0x68
 800227c:	f1b3 7f40 	cmp.w	r3, #50331648	@ 0x3000000
 8002280:	d02a      	beq.n	80022d8 <HAL_RCCEx_PeriphCLKConfig+0x10c>
 8002282:	f1b3 7f40 	cmp.w	r3, #50331648	@ 0x3000000
 8002286:	d824      	bhi.n	80022d2 <HAL_RCCEx_PeriphCLKConfig+0x106>
 8002288:	f1b3 7f00 	cmp.w	r3, #33554432	@ 0x2000000
 800228c:	d008      	beq.n	80022a0 <HAL_RCCEx_PeriphCLKConfig+0xd4>
 800228e:	f1b3 7f00 	cmp.w	r3, #33554432	@ 0x2000000
 8002292:	d81e      	bhi.n	80022d2 <HAL_RCCEx_PeriphCLKConfig+0x106>
 8002294:	2b00      	cmp	r3, #0
 8002296:	d00a      	beq.n	80022ae <HAL_RCCEx_PeriphCLKConfig+0xe2>
 8002298:	f1b3 7f80 	cmp.w	r3, #16777216	@ 0x1000000
 800229c:	d010      	beq.n	80022c0 <HAL_RCCEx_PeriphCLKConfig+0xf4>
 800229e:	e018      	b.n	80022d2 <HAL_RCCEx_PeriphCLKConfig+0x106>
    {
    case RCC_SAI2CLKSOURCE_PLL:      /* PLL is used as clock source for SAI2*/
      /* Enable SAI Clock output generated from System PLL . */
      __HAL_RCC_PLLCLKOUT_ENABLE(RCC_PLL_SAI3CLK);
 80022a0:	4b62      	ldr	r3, [pc, #392]	@ (800242c <HAL_RCCEx_PeriphCLKConfig+0x260>)
 80022a2:	68db      	ldr	r3, [r3, #12]
 80022a4:	4a61      	ldr	r2, [pc, #388]	@ (800242c <HAL_RCCEx_PeriphCLKConfig+0x260>)
 80022a6:	f443 3380 	orr.w	r3, r3, #65536	@ 0x10000
 80022aa:	60d3      	str	r3, [r2, #12]
      /* SAI2 clock source config set later after clock selection check */
      break;
 80022ac:	e015      	b.n	80022da <HAL_RCCEx_PeriphCLKConfig+0x10e>

    case RCC_SAI2CLKSOURCE_PLLSAI1: /* PLLSAI1 is used as clock source for SAI2*/
      /* PLLSAI1 input clock, parameters M, N & P configuration and clock output (PLLSAI1ClockOut) */
      ret = RCCEx_PLLSAI1_Config(&(PeriphClkInit->PLLSAI1), DIVIDER_P_UPDATE);
 80022ae:	687b      	ldr	r3, [r7, #4]
 80022b0:	3304      	adds	r3, #4
 80022b2:	2100      	movs	r1, #0
 80022b4:	4618      	mov	r0, r3
 80022b6:	f000 fa73 	bl	80027a0 <RCCEx_PLLSAI1_Config>
 80022ba:	4603      	mov	r3, r0
 80022bc:	74fb      	strb	r3, [r7, #19]
      /* SAI2 clock source config set later after clock selection check */
      break;
 80022be:	e00c      	b.n	80022da <HAL_RCCEx_PeriphCLKConfig+0x10e>

    case RCC_SAI2CLKSOURCE_PLLSAI2:  /* PLLSAI2 is used as clock source for SAI2*/
      /* PLLSAI2 input clock, parameters M, N & P configuration and clock output (PLLSAI2ClockOut) */
      ret = RCCEx_PLLSAI2_Config(&(PeriphClkInit->PLLSAI2), DIVIDER_P_UPDATE);
 80022c0:	687b      	ldr	r3, [r7, #4]
 80022c2:	3320      	adds	r3, #32
 80022c4:	2100      	movs	r1, #0
 80022c6:	4618      	mov	r0, r3
 80022c8:	f000 fb5e 	bl	8002988 <RCCEx_PLLSAI2_Config>
 80022cc:	4603      	mov	r3, r0
 80022ce:	74fb      	strb	r3, [r7, #19]
      /* SAI2 clock source config set later after clock selection check */
      break;
 80022d0:	e003      	b.n	80022da <HAL_RCCEx_PeriphCLKConfig+0x10e>
#endif /* STM32L4P5xx || STM32L4Q5xx || STM32L4R5xx || STM32L4R7xx || STM32L4R9xx || STM32L4S5xx || STM32L4S7xx || STM32L4S9xx */
      /* SAI2 clock source config set later after clock selection check */
      break;

    default:
      ret = HAL_ERROR;
 80022d2:	2301      	movs	r3, #1
 80022d4:	74fb      	strb	r3, [r7, #19]
      break;
 80022d6:	e000      	b.n	80022da <HAL_RCCEx_PeriphCLKConfig+0x10e>
      break;
 80022d8:	bf00      	nop
    }

    if(ret == HAL_OK)
 80022da:	7cfb      	ldrb	r3, [r7, #19]
 80022dc:	2b00      	cmp	r3, #0
 80022de:	d10b      	bne.n	80022f8 <HAL_RCCEx_PeriphCLKConfig+0x12c>
    {
      /* Set the source of SAI2 clock*/
      __HAL_RCC_SAI2_CONFIG(PeriphClkInit->Sai2ClockSelection);
 80022e0:	4b52      	ldr	r3, [pc, #328]	@ (800242c <HAL_RCCEx_PeriphCLKConfig+0x260>)
 80022e2:	f8d3 3088 	ldr.w	r3, [r3, #136]	@ 0x88
 80022e6:	f023 7240 	bic.w	r2, r3, #50331648	@ 0x3000000
 80022ea:	687b      	ldr	r3, [r7, #4]
 80022ec:	6e9b      	ldr	r3, [r3, #104]	@ 0x68
 80022ee:	494f      	ldr	r1, [pc, #316]	@ (800242c <HAL_RCCEx_PeriphCLKConfig+0x260>)
 80022f0:	4313      	orrs	r3, r2
 80022f2:	f8c1 3088 	str.w	r3, [r1, #136]	@ 0x88
 80022f6:	e001      	b.n	80022fc <HAL_RCCEx_PeriphCLKConfig+0x130>
    }
    else
    {
      /* set overall return value */
      status = ret;
 80022f8:	7cfb      	ldrb	r3, [r7, #19]
 80022fa:	74bb      	strb	r3, [r7, #18]
    }
  }
#endif /* SAI2 */

  /*-------------------------- RTC clock source configuration ----------------------*/
  if((PeriphClkInit->PeriphClockSelection & RCC_PERIPHCLK_RTC) == RCC_PERIPHCLK_RTC)
 80022fc:	687b      	ldr	r3, [r7, #4]
 80022fe:	681b      	ldr	r3, [r3, #0]
 8002300:	f403 3300 	and.w	r3, r3, #131072	@ 0x20000
 8002304:	2b00      	cmp	r3, #0
 8002306:	f000 80a0 	beq.w	800244a <HAL_RCCEx_PeriphCLKConfig+0x27e>
  {
    FlagStatus       pwrclkchanged = RESET;
 800230a:	2300      	movs	r3, #0
 800230c:	747b      	strb	r3, [r7, #17]

    /* Check for RTC Parameters used to output RTCCLK */
    assert_param(IS_RCC_RTCCLKSOURCE(PeriphClkInit->RTCClockSelection));

    /* Enable Power Clock */
    if(__HAL_RCC_PWR_IS_CLK_DISABLED() != 0U)
 800230e:	4b47      	ldr	r3, [pc, #284]	@ (800242c <HAL_RCCEx_PeriphCLKConfig+0x260>)
 8002310:	6d9b      	ldr	r3, [r3, #88]	@ 0x58
 8002312:	f003 5380 	and.w	r3, r3, #268435456	@ 0x10000000
 8002316:	2b00      	cmp	r3, #0
 8002318:	d101      	bne.n	800231e <HAL_RCCEx_PeriphCLKConfig+0x152>
 800231a:	2301      	movs	r3, #1
 800231c:	e000      	b.n	8002320 <HAL_RCCEx_PeriphCLKConfig+0x154>
 800231e:	2300      	movs	r3, #0
 8002320:	2b00      	cmp	r3, #0
 8002322:	d00d      	beq.n	8002340 <HAL_RCCEx_PeriphCLKConfig+0x174>
    {
      __HAL_RCC_PWR_CLK_ENABLE();
 8002324:	4b41      	ldr	r3, [pc, #260]	@ (800242c <HAL_RCCEx_PeriphCLKConfig+0x260>)
 8002326:	6d9b      	ldr	r3, [r3, #88]	@ 0x58
 8002328:	4a40      	ldr	r2, [pc, #256]	@ (800242c <HAL_RCCEx_PeriphCLKConfig+0x260>)
 800232a:	f043 5380 	orr.w	r3, r3, #268435456	@ 0x10000000
 800232e:	6593      	str	r3, [r2, #88]	@ 0x58
 8002330:	4b3e      	ldr	r3, [pc, #248]	@ (800242c <HAL_RCCEx_PeriphCLKConfig+0x260>)
 8002332:	6d9b      	ldr	r3, [r3, #88]	@ 0x58
 8002334:	f003 5380 	and.w	r3, r3, #268435456	@ 0x10000000
 8002338:	60bb      	str	r3, [r7, #8]
 800233a:	68bb      	ldr	r3, [r7, #8]
      pwrclkchanged = SET;
 800233c:	2301      	movs	r3, #1
 800233e:	747b      	strb	r3, [r7, #17]
    }

    /* Enable write access to Backup domain */
    SET_BIT(PWR->CR1, PWR_CR1_DBP);
 8002340:	4b3b      	ldr	r3, [pc, #236]	@ (8002430 <HAL_RCCEx_PeriphCLKConfig+0x264>)
 8002342:	681b      	ldr	r3, [r3, #0]
 8002344:	4a3a      	ldr	r2, [pc, #232]	@ (8002430 <HAL_RCCEx_PeriphCLKConfig+0x264>)
 8002346:	f443 7380 	orr.w	r3, r3, #256	@ 0x100
 800234a:	6013      	str	r3, [r2, #0]

    /* Wait for Backup domain Write protection disable */
    tickstart = HAL_GetTick();
 800234c:	f7fe fda6 	bl	8000e9c <HAL_GetTick>
 8002350:	60f8      	str	r0, [r7, #12]

    while(READ_BIT(PWR->CR1, PWR_CR1_DBP) == 0U)
 8002352:	e009      	b.n	8002368 <HAL_RCCEx_PeriphCLKConfig+0x19c>
    {
      if((HAL_GetTick() - tickstart) > RCC_DBP_TIMEOUT_VALUE)
 8002354:	f7fe fda2 	bl	8000e9c <HAL_GetTick>
 8002358:	4602      	mov	r2, r0
 800235a:	68fb      	ldr	r3, [r7, #12]
 800235c:	1ad3      	subs	r3, r2, r3
 800235e:	2b02      	cmp	r3, #2
 8002360:	d902      	bls.n	8002368 <HAL_RCCEx_PeriphCLKConfig+0x19c>
      {
        ret = HAL_TIMEOUT;
 8002362:	2303      	movs	r3, #3
 8002364:	74fb      	strb	r3, [r7, #19]
        break;
 8002366:	e005      	b.n	8002374 <HAL_RCCEx_PeriphCLKConfig+0x1a8>
    while(READ_BIT(PWR->CR1, PWR_CR1_DBP) == 0U)
 8002368:	4b31      	ldr	r3, [pc, #196]	@ (8002430 <HAL_RCCEx_PeriphCLKConfig+0x264>)
 800236a:	681b      	ldr	r3, [r3, #0]
 800236c:	f403 7380 	and.w	r3, r3, #256	@ 0x100
 8002370:	2b00      	cmp	r3, #0
 8002372:	d0ef      	beq.n	8002354 <HAL_RCCEx_PeriphCLKConfig+0x188>
      }
    }

    if(ret == HAL_OK)
 8002374:	7cfb      	ldrb	r3, [r7, #19]
 8002376:	2b00      	cmp	r3, #0
 8002378:	d15c      	bne.n	8002434 <HAL_RCCEx_PeriphCLKConfig+0x268>
    {
      /* Reset the Backup domain only if the RTC Clock source selection is modified from default */
      tmpregister = READ_BIT(RCC->BDCR, RCC_BDCR_RTCSEL);
 800237a:	4b2c      	ldr	r3, [pc, #176]	@ (800242c <HAL_RCCEx_PeriphCLKConfig+0x260>)
 800237c:	f8d3 3090 	ldr.w	r3, [r3, #144]	@ 0x90
 8002380:	f403 7340 	and.w	r3, r3, #768	@ 0x300
 8002384:	617b      	str	r3, [r7, #20]

      if((tmpregister != RCC_RTCCLKSOURCE_NONE) && (tmpregister != PeriphClkInit->RTCClockSelection))
 8002386:	697b      	ldr	r3, [r7, #20]
 8002388:	2b00      	cmp	r3, #0
 800238a:	d01f      	beq.n	80023cc <HAL_RCCEx_PeriphCLKConfig+0x200>
 800238c:	687b      	ldr	r3, [r7, #4]
 800238e:	f8d3 3084 	ldr.w	r3, [r3, #132]	@ 0x84
 8002392:	697a      	ldr	r2, [r7, #20]
 8002394:	429a      	cmp	r2, r3
 8002396:	d019      	beq.n	80023cc <HAL_RCCEx_PeriphCLKConfig+0x200>
      {
        /* Store the content of BDCR register before the reset of Backup Domain */
        tmpregister = READ_BIT(RCC->BDCR, ~(RCC_BDCR_RTCSEL));
 8002398:	4b24      	ldr	r3, [pc, #144]	@ (800242c <HAL_RCCEx_PeriphCLKConfig+0x260>)
 800239a:	f8d3 3090 	ldr.w	r3, [r3, #144]	@ 0x90
 800239e:	f423 7340 	bic.w	r3, r3, #768	@ 0x300
 80023a2:	617b      	str	r3, [r7, #20]
        /* RTC Clock selection can be changed only if the Backup Domain is reset */
        __HAL_RCC_BACKUPRESET_FORCE();
 80023a4:	4b21      	ldr	r3, [pc, #132]	@ (800242c <HAL_RCCEx_PeriphCLKConfig+0x260>)
 80023a6:	f8d3 3090 	ldr.w	r3, [r3, #144]	@ 0x90
 80023aa:	4a20      	ldr	r2, [pc, #128]	@ (800242c <HAL_RCCEx_PeriphCLKConfig+0x260>)
 80023ac:	f443 3380 	orr.w	r3, r3, #65536	@ 0x10000
 80023b0:	f8c2 3090 	str.w	r3, [r2, #144]	@ 0x90
        __HAL_RCC_BACKUPRESET_RELEASE();
 80023b4:	4b1d      	ldr	r3, [pc, #116]	@ (800242c <HAL_RCCEx_PeriphCLKConfig+0x260>)
 80023b6:	f8d3 3090 	ldr.w	r3, [r3, #144]	@ 0x90
 80023ba:	4a1c      	ldr	r2, [pc, #112]	@ (800242c <HAL_RCCEx_PeriphCLKConfig+0x260>)
 80023bc:	f423 3380 	bic.w	r3, r3, #65536	@ 0x10000
 80023c0:	f8c2 3090 	str.w	r3, [r2, #144]	@ 0x90
        /* Restore the Content of BDCR register */
        RCC->BDCR = tmpregister;
 80023c4:	4a19      	ldr	r2, [pc, #100]	@ (800242c <HAL_RCCEx_PeriphCLKConfig+0x260>)
 80023c6:	697b      	ldr	r3, [r7, #20]
 80023c8:	f8c2 3090 	str.w	r3, [r2, #144]	@ 0x90
      }

      /* Wait for LSE reactivation if LSE was enable prior to Backup Domain reset */
      if (HAL_IS_BIT_SET(tmpregister, RCC_BDCR_LSEON))
 80023cc:	697b      	ldr	r3, [r7, #20]
 80023ce:	f003 0301 	and.w	r3, r3, #1
 80023d2:	2b00      	cmp	r3, #0
 80023d4:	d016      	beq.n	8002404 <HAL_RCCEx_PeriphCLKConfig+0x238>
      {
        /* Get Start Tick*/
        tickstart = HAL_GetTick();
 80023d6:	f7fe fd61 	bl	8000e9c <HAL_GetTick>
 80023da:	60f8      	str	r0, [r7, #12]

        /* Wait till LSE is ready */
        while(READ_BIT(RCC->BDCR, RCC_BDCR_LSERDY) == 0U)
 80023dc:	e00b      	b.n	80023f6 <HAL_RCCEx_PeriphCLKConfig+0x22a>
        {
          if((HAL_GetTick() - tickstart) > RCC_LSE_TIMEOUT_VALUE)
 80023de:	f7fe fd5d 	bl	8000e9c <HAL_GetTick>
 80023e2:	4602      	mov	r2, r0
 80023e4:	68fb      	ldr	r3, [r7, #12]
 80023e6:	1ad3      	subs	r3, r2, r3
 80023e8:	f241 3288 	movw	r2, #5000	@ 0x1388
 80023ec:	4293      	cmp	r3, r2
 80023ee:	d902      	bls.n	80023f6 <HAL_RCCEx_PeriphCLKConfig+0x22a>
          {
            ret = HAL_TIMEOUT;
 80023f0:	2303      	movs	r3, #3
 80023f2:	74fb      	strb	r3, [r7, #19]
            break;
 80023f4:	e006      	b.n	8002404 <HAL_RCCEx_PeriphCLKConfig+0x238>
        while(READ_BIT(RCC->BDCR, RCC_BDCR_LSERDY) == 0U)
 80023f6:	4b0d      	ldr	r3, [pc, #52]	@ (800242c <HAL_RCCEx_PeriphCLKConfig+0x260>)
 80023f8:	f8d3 3090 	ldr.w	r3, [r3, #144]	@ 0x90
 80023fc:	f003 0302 	and.w	r3, r3, #2
 8002400:	2b00      	cmp	r3, #0
 8002402:	d0ec      	beq.n	80023de <HAL_RCCEx_PeriphCLKConfig+0x212>
          }
        }
      }

      if(ret == HAL_OK)
 8002404:	7cfb      	ldrb	r3, [r7, #19]
 8002406:	2b00      	cmp	r3, #0
 8002408:	d10c      	bne.n	8002424 <HAL_RCCEx_PeriphCLKConfig+0x258>
      {
        /* Apply new RTC clock source selection */
        __HAL_RCC_RTC_CONFIG(PeriphClkInit->RTCClockSelection);
 800240a:	4b08      	ldr	r3, [pc, #32]	@ (800242c <HAL_RCCEx_PeriphCLKConfig+0x260>)
 800240c:	f8d3 3090 	ldr.w	r3, [r3, #144]	@ 0x90
 8002410:	f423 7240 	bic.w	r2, r3, #768	@ 0x300
 8002414:	687b      	ldr	r3, [r7, #4]
 8002416:	f8d3 3084 	ldr.w	r3, [r3, #132]	@ 0x84
 800241a:	4904      	ldr	r1, [pc, #16]	@ (800242c <HAL_RCCEx_PeriphCLKConfig+0x260>)
 800241c:	4313      	orrs	r3, r2
 800241e:	f8c1 3090 	str.w	r3, [r1, #144]	@ 0x90
 8002422:	e009      	b.n	8002438 <HAL_RCCEx_PeriphCLKConfig+0x26c>
      }
      else
      {
        /* set overall return value */
        status = ret;
 8002424:	7cfb      	ldrb	r3, [r7, #19]
 8002426:	74bb      	strb	r3, [r7, #18]
 8002428:	e006      	b.n	8002438 <HAL_RCCEx_PeriphCLKConfig+0x26c>
 800242a:	bf00      	nop
 800242c:	40021000 	.word	0x40021000
 8002430:	40007000 	.word	0x40007000
      }
    }
    else
    {
      /* set overall return value */
      status = ret;
 8002434:	7cfb      	ldrb	r3, [r7, #19]
 8002436:	74bb      	strb	r3, [r7, #18]
    }

    /* Restore clock configuration if changed */
    if(pwrclkchanged == SET)
 8002438:	7c7b      	ldrb	r3, [r7, #17]
 800243a:	2b01      	cmp	r3, #1
 800243c:	d105      	bne.n	800244a <HAL_RCCEx_PeriphCLKConfig+0x27e>
    {
      __HAL_RCC_PWR_CLK_DISABLE();
 800243e:	4b9e      	ldr	r3, [pc, #632]	@ (80026b8 <HAL_RCCEx_PeriphCLKConfig+0x4ec>)
 8002440:	6d9b      	ldr	r3, [r3, #88]	@ 0x58
 8002442:	4a9d      	ldr	r2, [pc, #628]	@ (80026b8 <HAL_RCCEx_PeriphCLKConfig+0x4ec>)
 8002444:	f023 5380 	bic.w	r3, r3, #268435456	@ 0x10000000
 8002448:	6593      	str	r3, [r2, #88]	@ 0x58
    }
  }

  /*-------------------------- USART1 clock source configuration -------------------*/
  if(((PeriphClkInit->PeriphClockSelection) & RCC_PERIPHCLK_USART1) == RCC_PERIPHCLK_USART1)
 800244a:	687b      	ldr	r3, [r7, #4]
 800244c:	681b      	ldr	r3, [r3, #0]
 800244e:	f003 0301 	and.w	r3, r3, #1
 8002452:	2b00      	cmp	r3, #0
 8002454:	d00a      	beq.n	800246c <HAL_RCCEx_PeriphCLKConfig+0x2a0>
  {
    /* Check the parameters */
    assert_param(IS_RCC_USART1CLKSOURCE(PeriphClkInit->Usart1ClockSelection));

    /* Configure the USART1 clock source */
    __HAL_RCC_USART1_CONFIG(PeriphClkInit->Usart1ClockSelection);
 8002456:	4b98      	ldr	r3, [pc, #608]	@ (80026b8 <HAL_RCCEx_PeriphCLKConfig+0x4ec>)
 8002458:	f8d3 3088 	ldr.w	r3, [r3, #136]	@ 0x88
 800245c:	f023 0203 	bic.w	r2, r3, #3
 8002460:	687b      	ldr	r3, [r7, #4]
 8002462:	6b9b      	ldr	r3, [r3, #56]	@ 0x38
 8002464:	4994      	ldr	r1, [pc, #592]	@ (80026b8 <HAL_RCCEx_PeriphCLKConfig+0x4ec>)
 8002466:	4313      	orrs	r3, r2
 8002468:	f8c1 3088 	str.w	r3, [r1, #136]	@ 0x88
  }

  /*-------------------------- USART2 clock source configuration -------------------*/
  if(((PeriphClkInit->PeriphClockSelection) & RCC_PERIPHCLK_USART2) == RCC_PERIPHCLK_USART2)
 800246c:	687b      	ldr	r3, [r7, #4]
 800246e:	681b      	ldr	r3, [r3, #0]
 8002470:	f003 0302 	and.w	r3, r3, #2
 8002474:	2b00      	cmp	r3, #0
 8002476:	d00a      	beq.n	800248e <HAL_RCCEx_PeriphCLKConfig+0x2c2>
  {
    /* Check the parameters */
    assert_param(IS_RCC_USART2CLKSOURCE(PeriphClkInit->Usart2ClockSelection));

    /* Configure the USART2 clock source */
    __HAL_RCC_USART2_CONFIG(PeriphClkInit->Usart2ClockSelection);
 8002478:	4b8f      	ldr	r3, [pc, #572]	@ (80026b8 <HAL_RCCEx_PeriphCLKConfig+0x4ec>)
 800247a:	f8d3 3088 	ldr.w	r3, [r3, #136]	@ 0x88
 800247e:	f023 020c 	bic.w	r2, r3, #12
 8002482:	687b      	ldr	r3, [r7, #4]
 8002484:	6bdb      	ldr	r3, [r3, #60]	@ 0x3c
 8002486:	498c      	ldr	r1, [pc, #560]	@ (80026b8 <HAL_RCCEx_PeriphCLKConfig+0x4ec>)
 8002488:	4313      	orrs	r3, r2
 800248a:	f8c1 3088 	str.w	r3, [r1, #136]	@ 0x88
  }

#if defined(USART3)

  /*-------------------------- USART3 clock source configuration -------------------*/
  if(((PeriphClkInit->PeriphClockSelection) & RCC_PERIPHCLK_USART3) == RCC_PERIPHCLK_USART3)
 800248e:	687b      	ldr	r3, [r7, #4]
 8002490:	681b      	ldr	r3, [r3, #0]
 8002492:	f003 0304 	and.w	r3, r3, #4
 8002496:	2b00      	cmp	r3, #0
 8002498:	d00a      	beq.n	80024b0 <HAL_RCCEx_PeriphCLKConfig+0x2e4>
  {
    /* Check the parameters */
    assert_param(IS_RCC_USART3CLKSOURCE(PeriphClkInit->Usart3ClockSelection));

    /* Configure the USART3 clock source */
    __HAL_RCC_USART3_CONFIG(PeriphClkInit->Usart3ClockSelection);
 800249a:	4b87      	ldr	r3, [pc, #540]	@ (80026b8 <HAL_RCCEx_PeriphCLKConfig+0x4ec>)
 800249c:	f8d3 3088 	ldr.w	r3, [r3, #136]	@ 0x88
 80024a0:	f023 0230 	bic.w	r2, r3, #48	@ 0x30
 80024a4:	687b      	ldr	r3, [r7, #4]
 80024a6:	6c1b      	ldr	r3, [r3, #64]	@ 0x40
 80024a8:	4983      	ldr	r1, [pc, #524]	@ (80026b8 <HAL_RCCEx_PeriphCLKConfig+0x4ec>)
 80024aa:	4313      	orrs	r3, r2
 80024ac:	f8c1 3088 	str.w	r3, [r1, #136]	@ 0x88
#endif /* USART3 */

#if defined(UART4)

  /*-------------------------- UART4 clock source configuration --------------------*/
  if(((PeriphClkInit->PeriphClockSelection) & RCC_PERIPHCLK_UART4) == RCC_PERIPHCLK_UART4)
 80024b0:	687b      	ldr	r3, [r7, #4]
 80024b2:	681b      	ldr	r3, [r3, #0]
 80024b4:	f003 0308 	and.w	r3, r3, #8
 80024b8:	2b00      	cmp	r3, #0
 80024ba:	d00a      	beq.n	80024d2 <HAL_RCCEx_PeriphCLKConfig+0x306>
  {
    /* Check the parameters */
    assert_param(IS_RCC_UART4CLKSOURCE(PeriphClkInit->Uart4ClockSelection));

    /* Configure the UART4 clock source */
    __HAL_RCC_UART4_CONFIG(PeriphClkInit->Uart4ClockSelection);
 80024bc:	4b7e      	ldr	r3, [pc, #504]	@ (80026b8 <HAL_RCCEx_PeriphCLKConfig+0x4ec>)
 80024be:	f8d3 3088 	ldr.w	r3, [r3, #136]	@ 0x88
 80024c2:	f023 02c0 	bic.w	r2, r3, #192	@ 0xc0
 80024c6:	687b      	ldr	r3, [r7, #4]
 80024c8:	6c5b      	ldr	r3, [r3, #68]	@ 0x44
 80024ca:	497b      	ldr	r1, [pc, #492]	@ (80026b8 <HAL_RCCEx_PeriphCLKConfig+0x4ec>)
 80024cc:	4313      	orrs	r3, r2
 80024ce:	f8c1 3088 	str.w	r3, [r1, #136]	@ 0x88
#endif /* UART4 */

#if defined(UART5)

  /*-------------------------- UART5 clock source configuration --------------------*/
  if(((PeriphClkInit->PeriphClockSelection) & RCC_PERIPHCLK_UART5) == RCC_PERIPHCLK_UART5)
 80024d2:	687b      	ldr	r3, [r7, #4]
 80024d4:	681b      	ldr	r3, [r3, #0]
 80024d6:	f003 0310 	and.w	r3, r3, #16
 80024da:	2b00      	cmp	r3, #0
 80024dc:	d00a      	beq.n	80024f4 <HAL_RCCEx_PeriphCLKConfig+0x328>
  {
    /* Check the parameters */
    assert_param(IS_RCC_UART5CLKSOURCE(PeriphClkInit->Uart5ClockSelection));

    /* Configure the UART5 clock source */
    __HAL_RCC_UART5_CONFIG(PeriphClkInit->Uart5ClockSelection);
 80024de:	4b76      	ldr	r3, [pc, #472]	@ (80026b8 <HAL_RCCEx_PeriphCLKConfig+0x4ec>)
 80024e0:	f8d3 3088 	ldr.w	r3, [r3, #136]	@ 0x88
 80024e4:	f423 7240 	bic.w	r2, r3, #768	@ 0x300
 80024e8:	687b      	ldr	r3, [r7, #4]
 80024ea:	6c9b      	ldr	r3, [r3, #72]	@ 0x48
 80024ec:	4972      	ldr	r1, [pc, #456]	@ (80026b8 <HAL_RCCEx_PeriphCLKConfig+0x4ec>)
 80024ee:	4313      	orrs	r3, r2
 80024f0:	f8c1 3088 	str.w	r3, [r1, #136]	@ 0x88
  }

#endif /* UART5 */

  /*-------------------------- LPUART1 clock source configuration ------------------*/
  if(((PeriphClkInit->PeriphClockSelection) & RCC_PERIPHCLK_LPUART1) == RCC_PERIPHCLK_LPUART1)
 80024f4:	687b      	ldr	r3, [r7, #4]
 80024f6:	681b      	ldr	r3, [r3, #0]
 80024f8:	f003 0320 	and.w	r3, r3, #32
 80024fc:	2b00      	cmp	r3, #0
 80024fe:	d00a      	beq.n	8002516 <HAL_RCCEx_PeriphCLKConfig+0x34a>
  {
    /* Check the parameters */
    assert_param(IS_RCC_LPUART1CLKSOURCE(PeriphClkInit->Lpuart1ClockSelection));

    /* Configure the LPUART1 clock source */
    __HAL_RCC_LPUART1_CONFIG(PeriphClkInit->Lpuart1ClockSelection);
 8002500:	4b6d      	ldr	r3, [pc, #436]	@ (80026b8 <HAL_RCCEx_PeriphCLKConfig+0x4ec>)
 8002502:	f8d3 3088 	ldr.w	r3, [r3, #136]	@ 0x88
 8002506:	f423 6240 	bic.w	r2, r3, #3072	@ 0xc00
 800250a:	687b      	ldr	r3, [r7, #4]
 800250c:	6cdb      	ldr	r3, [r3, #76]	@ 0x4c
 800250e:	496a      	ldr	r1, [pc, #424]	@ (80026b8 <HAL_RCCEx_PeriphCLKConfig+0x4ec>)
 8002510:	4313      	orrs	r3, r2
 8002512:	f8c1 3088 	str.w	r3, [r1, #136]	@ 0x88
  }

  /*-------------------------- LPTIM1 clock source configuration -------------------*/
  if(((PeriphClkInit->PeriphClockSelection) & RCC_PERIPHCLK_LPTIM1) == (RCC_PERIPHCLK_LPTIM1))
 8002516:	687b      	ldr	r3, [r7, #4]
 8002518:	681b      	ldr	r3, [r3, #0]
 800251a:	f403 7300 	and.w	r3, r3, #512	@ 0x200
 800251e:	2b00      	cmp	r3, #0
 8002520:	d00a      	beq.n	8002538 <HAL_RCCEx_PeriphCLKConfig+0x36c>
  {
    assert_param(IS_RCC_LPTIM1CLK(PeriphClkInit->Lptim1ClockSelection));
    __HAL_RCC_LPTIM1_CONFIG(PeriphClkInit->Lptim1ClockSelection);
 8002522:	4b65      	ldr	r3, [pc, #404]	@ (80026b8 <HAL_RCCEx_PeriphCLKConfig+0x4ec>)
 8002524:	f8d3 3088 	ldr.w	r3, [r3, #136]	@ 0x88
 8002528:	f423 2240 	bic.w	r2, r3, #786432	@ 0xc0000
 800252c:	687b      	ldr	r3, [r7, #4]
 800252e:	6ddb      	ldr	r3, [r3, #92]	@ 0x5c
 8002530:	4961      	ldr	r1, [pc, #388]	@ (80026b8 <HAL_RCCEx_PeriphCLKConfig+0x4ec>)
 8002532:	4313      	orrs	r3, r2
 8002534:	f8c1 3088 	str.w	r3, [r1, #136]	@ 0x88
  }

  /*-------------------------- LPTIM2 clock source configuration -------------------*/
  if(((PeriphClkInit->PeriphClockSelection) & RCC_PERIPHCLK_LPTIM2) == (RCC_PERIPHCLK_LPTIM2))
 8002538:	687b      	ldr	r3, [r7, #4]
 800253a:	681b      	ldr	r3, [r3, #0]
 800253c:	f403 6380 	and.w	r3, r3, #1024	@ 0x400
 8002540:	2b00      	cmp	r3, #0
 8002542:	d00a      	beq.n	800255a <HAL_RCCEx_PeriphCLKConfig+0x38e>
  {
    assert_param(IS_RCC_LPTIM2CLK(PeriphClkInit->Lptim2ClockSelection));
    __HAL_RCC_LPTIM2_CONFIG(PeriphClkInit->Lptim2ClockSelection);
 8002544:	4b5c      	ldr	r3, [pc, #368]	@ (80026b8 <HAL_RCCEx_PeriphCLKConfig+0x4ec>)
 8002546:	f8d3 3088 	ldr.w	r3, [r3, #136]	@ 0x88
 800254a:	f423 1240 	bic.w	r2, r3, #3145728	@ 0x300000
 800254e:	687b      	ldr	r3, [r7, #4]
 8002550:	6e1b      	ldr	r3, [r3, #96]	@ 0x60
 8002552:	4959      	ldr	r1, [pc, #356]	@ (80026b8 <HAL_RCCEx_PeriphCLKConfig+0x4ec>)
 8002554:	4313      	orrs	r3, r2
 8002556:	f8c1 3088 	str.w	r3, [r1, #136]	@ 0x88
  }

  /*-------------------------- I2C1 clock source configuration ---------------------*/
  if(((PeriphClkInit->PeriphClockSelection) & RCC_PERIPHCLK_I2C1) == RCC_PERIPHCLK_I2C1)
 800255a:	687b      	ldr	r3, [r7, #4]
 800255c:	681b      	ldr	r3, [r3, #0]
 800255e:	f003 0340 	and.w	r3, r3, #64	@ 0x40
 8002562:	2b00      	cmp	r3, #0
 8002564:	d00a      	beq.n	800257c <HAL_RCCEx_PeriphCLKConfig+0x3b0>
  {
    /* Check the parameters */
    assert_param(IS_RCC_I2C1CLKSOURCE(PeriphClkInit->I2c1ClockSelection));

    /* Configure the I2C1 clock source */
    __HAL_RCC_I2C1_CONFIG(PeriphClkInit->I2c1ClockSelection);
 8002566:	4b54      	ldr	r3, [pc, #336]	@ (80026b8 <HAL_RCCEx_PeriphCLKConfig+0x4ec>)
 8002568:	f8d3 3088 	ldr.w	r3, [r3, #136]	@ 0x88
 800256c:	f423 5240 	bic.w	r2, r3, #12288	@ 0x3000
 8002570:	687b      	ldr	r3, [r7, #4]
 8002572:	6d1b      	ldr	r3, [r3, #80]	@ 0x50
 8002574:	4950      	ldr	r1, [pc, #320]	@ (80026b8 <HAL_RCCEx_PeriphCLKConfig+0x4ec>)
 8002576:	4313      	orrs	r3, r2
 8002578:	f8c1 3088 	str.w	r3, [r1, #136]	@ 0x88
  }

#if defined(I2C2)

  /*-------------------------- I2C2 clock source configuration ---------------------*/
  if(((PeriphClkInit->PeriphClockSelection) & RCC_PERIPHCLK_I2C2) == RCC_PERIPHCLK_I2C2)
 800257c:	687b      	ldr	r3, [r7, #4]
 800257e:	681b      	ldr	r3, [r3, #0]
 8002580:	f003 0380 	and.w	r3, r3, #128	@ 0x80
 8002584:	2b00      	cmp	r3, #0
 8002586:	d00a      	beq.n	800259e <HAL_RCCEx_PeriphCLKConfig+0x3d2>
  {
    /* Check the parameters */
    assert_param(IS_RCC_I2C2CLKSOURCE(PeriphClkInit->I2c2ClockSelection));

    /* Configure the I2C2 clock source */
    __HAL_RCC_I2C2_CONFIG(PeriphClkInit->I2c2ClockSelection);
 8002588:	4b4b      	ldr	r3, [pc, #300]	@ (80026b8 <HAL_RCCEx_PeriphCLKConfig+0x4ec>)
 800258a:	f8d3 3088 	ldr.w	r3, [r3, #136]	@ 0x88
 800258e:	f423 4240 	bic.w	r2, r3, #49152	@ 0xc000
 8002592:	687b      	ldr	r3, [r7, #4]
 8002594:	6d5b      	ldr	r3, [r3, #84]	@ 0x54
 8002596:	4948      	ldr	r1, [pc, #288]	@ (80026b8 <HAL_RCCEx_PeriphCLKConfig+0x4ec>)
 8002598:	4313      	orrs	r3, r2
 800259a:	f8c1 3088 	str.w	r3, [r1, #136]	@ 0x88
  }

#endif /* I2C2 */

  /*-------------------------- I2C3 clock source configuration ---------------------*/
  if(((PeriphClkInit->PeriphClockSelection) & RCC_PERIPHCLK_I2C3) == RCC_PERIPHCLK_I2C3)
 800259e:	687b      	ldr	r3, [r7, #4]
 80025a0:	681b      	ldr	r3, [r3, #0]
 80025a2:	f403 7380 	and.w	r3, r3, #256	@ 0x100
 80025a6:	2b00      	cmp	r3, #0
 80025a8:	d00a      	beq.n	80025c0 <HAL_RCCEx_PeriphCLKConfig+0x3f4>
  {
    /* Check the parameters */
    assert_param(IS_RCC_I2C3CLKSOURCE(PeriphClkInit->I2c3ClockSelection));

    /* Configure the I2C3 clock source */
    __HAL_RCC_I2C3_CONFIG(PeriphClkInit->I2c3ClockSelection);
 80025aa:	4b43      	ldr	r3, [pc, #268]	@ (80026b8 <HAL_RCCEx_PeriphCLKConfig+0x4ec>)
 80025ac:	f8d3 3088 	ldr.w	r3, [r3, #136]	@ 0x88
 80025b0:	f423 3240 	bic.w	r2, r3, #196608	@ 0x30000
 80025b4:	687b      	ldr	r3, [r7, #4]
 80025b6:	6d9b      	ldr	r3, [r3, #88]	@ 0x58
 80025b8:	493f      	ldr	r1, [pc, #252]	@ (80026b8 <HAL_RCCEx_PeriphCLKConfig+0x4ec>)
 80025ba:	4313      	orrs	r3, r2
 80025bc:	f8c1 3088 	str.w	r3, [r1, #136]	@ 0x88
#endif /* I2C4 */

#if defined(USB_OTG_FS) || defined(USB)

  /*-------------------------- USB clock source configuration ----------------------*/
  if(((PeriphClkInit->PeriphClockSelection) & RCC_PERIPHCLK_USB) == (RCC_PERIPHCLK_USB))
 80025c0:	687b      	ldr	r3, [r7, #4]
 80025c2:	681b      	ldr	r3, [r3, #0]
 80025c4:	f403 5300 	and.w	r3, r3, #8192	@ 0x2000
 80025c8:	2b00      	cmp	r3, #0
 80025ca:	d028      	beq.n	800261e <HAL_RCCEx_PeriphCLKConfig+0x452>
  {
    assert_param(IS_RCC_USBCLKSOURCE(PeriphClkInit->UsbClockSelection));
    __HAL_RCC_USB_CONFIG(PeriphClkInit->UsbClockSelection);
 80025cc:	4b3a      	ldr	r3, [pc, #232]	@ (80026b8 <HAL_RCCEx_PeriphCLKConfig+0x4ec>)
 80025ce:	f8d3 3088 	ldr.w	r3, [r3, #136]	@ 0x88
 80025d2:	f023 6240 	bic.w	r2, r3, #201326592	@ 0xc000000
 80025d6:	687b      	ldr	r3, [r7, #4]
 80025d8:	6edb      	ldr	r3, [r3, #108]	@ 0x6c
 80025da:	4937      	ldr	r1, [pc, #220]	@ (80026b8 <HAL_RCCEx_PeriphCLKConfig+0x4ec>)
 80025dc:	4313      	orrs	r3, r2
 80025de:	f8c1 3088 	str.w	r3, [r1, #136]	@ 0x88

    if(PeriphClkInit->UsbClockSelection == RCC_USBCLKSOURCE_PLL)
 80025e2:	687b      	ldr	r3, [r7, #4]
 80025e4:	6edb      	ldr	r3, [r3, #108]	@ 0x6c
 80025e6:	f1b3 6f00 	cmp.w	r3, #134217728	@ 0x8000000
 80025ea:	d106      	bne.n	80025fa <HAL_RCCEx_PeriphCLKConfig+0x42e>
    {
      /* Enable PLL48M1CLK output clock */
      __HAL_RCC_PLLCLKOUT_ENABLE(RCC_PLL_48M1CLK);
 80025ec:	4b32      	ldr	r3, [pc, #200]	@ (80026b8 <HAL_RCCEx_PeriphCLKConfig+0x4ec>)
 80025ee:	68db      	ldr	r3, [r3, #12]
 80025f0:	4a31      	ldr	r2, [pc, #196]	@ (80026b8 <HAL_RCCEx_PeriphCLKConfig+0x4ec>)
 80025f2:	f443 1380 	orr.w	r3, r3, #1048576	@ 0x100000
 80025f6:	60d3      	str	r3, [r2, #12]
 80025f8:	e011      	b.n	800261e <HAL_RCCEx_PeriphCLKConfig+0x452>
    }
    else
    {
#if defined(RCC_PLLSAI1_SUPPORT)
      if(PeriphClkInit->UsbClockSelection == RCC_USBCLKSOURCE_PLLSAI1)
 80025fa:	687b      	ldr	r3, [r7, #4]
 80025fc:	6edb      	ldr	r3, [r3, #108]	@ 0x6c
 80025fe:	f1b3 6f80 	cmp.w	r3, #67108864	@ 0x4000000
 8002602:	d10c      	bne.n	800261e <HAL_RCCEx_PeriphCLKConfig+0x452>
      {
        /* PLLSAI1 input clock, parameters M, N & Q configuration and clock output (PLLSAI1ClockOut) */
        ret = RCCEx_PLLSAI1_Config(&(PeriphClkInit->PLLSAI1), DIVIDER_Q_UPDATE);
 8002604:	687b      	ldr	r3, [r7, #4]
 8002606:	3304      	adds	r3, #4
 8002608:	2101      	movs	r1, #1
 800260a:	4618      	mov	r0, r3
 800260c:	f000 f8c8 	bl	80027a0 <RCCEx_PLLSAI1_Config>
 8002610:	4603      	mov	r3, r0
 8002612:	74fb      	strb	r3, [r7, #19]

        if(ret != HAL_OK)
 8002614:	7cfb      	ldrb	r3, [r7, #19]
 8002616:	2b00      	cmp	r3, #0
 8002618:	d001      	beq.n	800261e <HAL_RCCEx_PeriphCLKConfig+0x452>
        {
          /* set overall return value */
          status = ret;
 800261a:	7cfb      	ldrb	r3, [r7, #19]
 800261c:	74bb      	strb	r3, [r7, #18]
#endif /* USB_OTG_FS || USB */

#if defined(SDMMC1)

  /*-------------------------- SDMMC1 clock source configuration -------------------*/
  if(((PeriphClkInit->PeriphClockSelection) & RCC_PERIPHCLK_SDMMC1) == (RCC_PERIPHCLK_SDMMC1))
 800261e:	687b      	ldr	r3, [r7, #4]
 8002620:	681b      	ldr	r3, [r3, #0]
 8002622:	f403 2300 	and.w	r3, r3, #524288	@ 0x80000
 8002626:	2b00      	cmp	r3, #0
 8002628:	d028      	beq.n	800267c <HAL_RCCEx_PeriphCLKConfig+0x4b0>
  {
    assert_param(IS_RCC_SDMMC1CLKSOURCE(PeriphClkInit->Sdmmc1ClockSelection));
    __HAL_RCC_SDMMC1_CONFIG(PeriphClkInit->Sdmmc1ClockSelection);
 800262a:	4b23      	ldr	r3, [pc, #140]	@ (80026b8 <HAL_RCCEx_PeriphCLKConfig+0x4ec>)
 800262c:	f8d3 3088 	ldr.w	r3, [r3, #136]	@ 0x88
 8002630:	f023 6240 	bic.w	r2, r3, #201326592	@ 0xc000000
 8002634:	687b      	ldr	r3, [r7, #4]
 8002636:	6f1b      	ldr	r3, [r3, #112]	@ 0x70
 8002638:	491f      	ldr	r1, [pc, #124]	@ (80026b8 <HAL_RCCEx_PeriphCLKConfig+0x4ec>)
 800263a:	4313      	orrs	r3, r2
 800263c:	f8c1 3088 	str.w	r3, [r1, #136]	@ 0x88

    if(PeriphClkInit->Sdmmc1ClockSelection == RCC_SDMMC1CLKSOURCE_PLL)   /* PLL "Q" ? */
 8002640:	687b      	ldr	r3, [r7, #4]
 8002642:	6f1b      	ldr	r3, [r3, #112]	@ 0x70
 8002644:	f1b3 6f00 	cmp.w	r3, #134217728	@ 0x8000000
 8002648:	d106      	bne.n	8002658 <HAL_RCCEx_PeriphCLKConfig+0x48c>
    {
      /* Enable PLL48M1CLK output clock */
      __HAL_RCC_PLLCLKOUT_ENABLE(RCC_PLL_48M1CLK);
 800264a:	4b1b      	ldr	r3, [pc, #108]	@ (80026b8 <HAL_RCCEx_PeriphCLKConfig+0x4ec>)
 800264c:	68db      	ldr	r3, [r3, #12]
 800264e:	4a1a      	ldr	r2, [pc, #104]	@ (80026b8 <HAL_RCCEx_PeriphCLKConfig+0x4ec>)
 8002650:	f443 1380 	orr.w	r3, r3, #1048576	@ 0x100000
 8002654:	60d3      	str	r3, [r2, #12]
 8002656:	e011      	b.n	800267c <HAL_RCCEx_PeriphCLKConfig+0x4b0>
    {
      /* Enable PLLSAI3CLK output */
      __HAL_RCC_PLLCLKOUT_ENABLE(RCC_PLL_SAI3CLK);
    }
#endif
    else if(PeriphClkInit->Sdmmc1ClockSelection == RCC_SDMMC1CLKSOURCE_PLLSAI1)
 8002658:	687b      	ldr	r3, [r7, #4]
 800265a:	6f1b      	ldr	r3, [r3, #112]	@ 0x70
 800265c:	f1b3 6f80 	cmp.w	r3, #67108864	@ 0x4000000
 8002660:	d10c      	bne.n	800267c <HAL_RCCEx_PeriphCLKConfig+0x4b0>
    {
      /* PLLSAI1 input clock, parameters M, N & Q configuration and clock output (PLLSAI1ClockOut) */
      ret = RCCEx_PLLSAI1_Config(&(PeriphClkInit->PLLSAI1), DIVIDER_Q_UPDATE);
 8002662:	687b      	ldr	r3, [r7, #4]
 8002664:	3304      	adds	r3, #4
 8002666:	2101      	movs	r1, #1
 8002668:	4618      	mov	r0, r3
 800266a:	f000 f899 	bl	80027a0 <RCCEx_PLLSAI1_Config>
 800266e:	4603      	mov	r3, r0
 8002670:	74fb      	strb	r3, [r7, #19]

      if(ret != HAL_OK)
 8002672:	7cfb      	ldrb	r3, [r7, #19]
 8002674:	2b00      	cmp	r3, #0
 8002676:	d001      	beq.n	800267c <HAL_RCCEx_PeriphCLKConfig+0x4b0>
      {
        /* set overall return value */
        status = ret;
 8002678:	7cfb      	ldrb	r3, [r7, #19]
 800267a:	74bb      	strb	r3, [r7, #18]
  }

#endif /* SDMMC1 */

  /*-------------------------- RNG clock source configuration ----------------------*/
  if(((PeriphClkInit->PeriphClockSelection) & RCC_PERIPHCLK_RNG) == (RCC_PERIPHCLK_RNG))
 800267c:	687b      	ldr	r3, [r7, #4]
 800267e:	681b      	ldr	r3, [r3, #0]
 8002680:	f403 2380 	and.w	r3, r3, #262144	@ 0x40000
 8002684:	2b00      	cmp	r3, #0
 8002686:	d02b      	beq.n	80026e0 <HAL_RCCEx_PeriphCLKConfig+0x514>
  {
    assert_param(IS_RCC_RNGCLKSOURCE(PeriphClkInit->RngClockSelection));
    __HAL_RCC_RNG_CONFIG(PeriphClkInit->RngClockSelection);
 8002688:	4b0b      	ldr	r3, [pc, #44]	@ (80026b8 <HAL_RCCEx_PeriphCLKConfig+0x4ec>)
 800268a:	f8d3 3088 	ldr.w	r3, [r3, #136]	@ 0x88
 800268e:	f023 6240 	bic.w	r2, r3, #201326592	@ 0xc000000
 8002692:	687b      	ldr	r3, [r7, #4]
 8002694:	6f5b      	ldr	r3, [r3, #116]	@ 0x74
 8002696:	4908      	ldr	r1, [pc, #32]	@ (80026b8 <HAL_RCCEx_PeriphCLKConfig+0x4ec>)
 8002698:	4313      	orrs	r3, r2
 800269a:	f8c1 3088 	str.w	r3, [r1, #136]	@ 0x88

    if(PeriphClkInit->RngClockSelection == RCC_RNGCLKSOURCE_PLL)
 800269e:	687b      	ldr	r3, [r7, #4]
 80026a0:	6f5b      	ldr	r3, [r3, #116]	@ 0x74
 80026a2:	f1b3 6f00 	cmp.w	r3, #134217728	@ 0x8000000
 80026a6:	d109      	bne.n	80026bc <HAL_RCCEx_PeriphCLKConfig+0x4f0>
    {
      /* Enable PLL48M1CLK output clock */
      __HAL_RCC_PLLCLKOUT_ENABLE(RCC_PLL_48M1CLK);
 80026a8:	4b03      	ldr	r3, [pc, #12]	@ (80026b8 <HAL_RCCEx_PeriphCLKConfig+0x4ec>)
 80026aa:	68db      	ldr	r3, [r3, #12]
 80026ac:	4a02      	ldr	r2, [pc, #8]	@ (80026b8 <HAL_RCCEx_PeriphCLKConfig+0x4ec>)
 80026ae:	f443 1380 	orr.w	r3, r3, #1048576	@ 0x100000
 80026b2:	60d3      	str	r3, [r2, #12]
 80026b4:	e014      	b.n	80026e0 <HAL_RCCEx_PeriphCLKConfig+0x514>
 80026b6:	bf00      	nop
 80026b8:	40021000 	.word	0x40021000
    }
#if defined(RCC_PLLSAI1_SUPPORT)
    else if(PeriphClkInit->RngClockSelection == RCC_RNGCLKSOURCE_PLLSAI1)
 80026bc:	687b      	ldr	r3, [r7, #4]
 80026be:	6f5b      	ldr	r3, [r3, #116]	@ 0x74
 80026c0:	f1b3 6f80 	cmp.w	r3, #67108864	@ 0x4000000
 80026c4:	d10c      	bne.n	80026e0 <HAL_RCCEx_PeriphCLKConfig+0x514>
    {
      /* PLLSAI1 input clock, parameters M, N & Q configuration and clock output (PLLSAI1ClockOut) */
      ret = RCCEx_PLLSAI1_Config(&(PeriphClkInit->PLLSAI1), DIVIDER_Q_UPDATE);
 80026c6:	687b      	ldr	r3, [r7, #4]
 80026c8:	3304      	adds	r3, #4
 80026ca:	2101      	movs	r1, #1
 80026cc:	4618      	mov	r0, r3
 80026ce:	f000 f867 	bl	80027a0 <RCCEx_PLLSAI1_Config>
 80026d2:	4603      	mov	r3, r0
 80026d4:	74fb      	strb	r3, [r7, #19]

      if(ret != HAL_OK)
 80026d6:	7cfb      	ldrb	r3, [r7, #19]
 80026d8:	2b00      	cmp	r3, #0
 80026da:	d001      	beq.n	80026e0 <HAL_RCCEx_PeriphCLKConfig+0x514>
      {
        /* set overall return value */
        status = ret;
 80026dc:	7cfb      	ldrb	r3, [r7, #19]
 80026de:	74bb      	strb	r3, [r7, #18]
    }
  }

  /*-------------------------- ADC clock source configuration ----------------------*/
#if !defined(STM32L412xx) && !defined(STM32L422xx)
  if(((PeriphClkInit->PeriphClockSelection) & RCC_PERIPHCLK_ADC) == RCC_PERIPHCLK_ADC)
 80026e0:	687b      	ldr	r3, [r7, #4]
 80026e2:	681b      	ldr	r3, [r3, #0]
 80026e4:	f403 4380 	and.w	r3, r3, #16384	@ 0x4000
 80026e8:	2b00      	cmp	r3, #0
 80026ea:	d02f      	beq.n	800274c <HAL_RCCEx_PeriphCLKConfig+0x580>
  {
    /* Check the parameters */
    assert_param(IS_RCC_ADCCLKSOURCE(PeriphClkInit->AdcClockSelection));

    /* Configure the ADC interface clock source */
    __HAL_RCC_ADC_CONFIG(PeriphClkInit->AdcClockSelection);
 80026ec:	4b2b      	ldr	r3, [pc, #172]	@ (800279c <HAL_RCCEx_PeriphCLKConfig+0x5d0>)
 80026ee:	f8d3 3088 	ldr.w	r3, [r3, #136]	@ 0x88
 80026f2:	f023 5240 	bic.w	r2, r3, #805306368	@ 0x30000000
 80026f6:	687b      	ldr	r3, [r7, #4]
 80026f8:	6f9b      	ldr	r3, [r3, #120]	@ 0x78
 80026fa:	4928      	ldr	r1, [pc, #160]	@ (800279c <HAL_RCCEx_PeriphCLKConfig+0x5d0>)
 80026fc:	4313      	orrs	r3, r2
 80026fe:	f8c1 3088 	str.w	r3, [r1, #136]	@ 0x88

#if defined(RCC_PLLSAI1_SUPPORT)
    if(PeriphClkInit->AdcClockSelection == RCC_ADCCLKSOURCE_PLLSAI1)
 8002702:	687b      	ldr	r3, [r7, #4]
 8002704:	6f9b      	ldr	r3, [r3, #120]	@ 0x78
 8002706:	f1b3 5f80 	cmp.w	r3, #268435456	@ 0x10000000
 800270a:	d10d      	bne.n	8002728 <HAL_RCCEx_PeriphCLKConfig+0x55c>
    {
      /* PLLSAI1 input clock, parameters M, N & R configuration and clock output (PLLSAI1ClockOut) */
      ret = RCCEx_PLLSAI1_Config(&(PeriphClkInit->PLLSAI1), DIVIDER_R_UPDATE);
 800270c:	687b      	ldr	r3, [r7, #4]
 800270e:	3304      	adds	r3, #4
 8002710:	2102      	movs	r1, #2
 8002712:	4618      	mov	r0, r3
 8002714:	f000 f844 	bl	80027a0 <RCCEx_PLLSAI1_Config>
 8002718:	4603      	mov	r3, r0
 800271a:	74fb      	strb	r3, [r7, #19]

      if(ret != HAL_OK)
 800271c:	7cfb      	ldrb	r3, [r7, #19]
 800271e:	2b00      	cmp	r3, #0
 8002720:	d014      	beq.n	800274c <HAL_RCCEx_PeriphCLKConfig+0x580>
      {
        /* set overall return value */
        status = ret;
 8002722:	7cfb      	ldrb	r3, [r7, #19]
 8002724:	74bb      	strb	r3, [r7, #18]
 8002726:	e011      	b.n	800274c <HAL_RCCEx_PeriphCLKConfig+0x580>
    }
#endif /* RCC_PLLSAI1_SUPPORT */

#if defined(STM32L471xx) || defined(STM32L475xx) || defined(STM32L476xx) || defined(STM32L485xx) || defined(STM32L486xx) || defined(STM32L496xx) || defined(STM32L4A6xx)

    else if(PeriphClkInit->AdcClockSelection == RCC_ADCCLKSOURCE_PLLSAI2)
 8002728:	687b      	ldr	r3, [r7, #4]
 800272a:	6f9b      	ldr	r3, [r3, #120]	@ 0x78
 800272c:	f1b3 5f00 	cmp.w	r3, #536870912	@ 0x20000000
 8002730:	d10c      	bne.n	800274c <HAL_RCCEx_PeriphCLKConfig+0x580>
    {
      /* PLLSAI2 input clock, parameters M, N & R configuration and clock output (PLLSAI2ClockOut) */
      ret = RCCEx_PLLSAI2_Config(&(PeriphClkInit->PLLSAI2), DIVIDER_R_UPDATE);
 8002732:	687b      	ldr	r3, [r7, #4]
 8002734:	3320      	adds	r3, #32
 8002736:	2102      	movs	r1, #2
 8002738:	4618      	mov	r0, r3
 800273a:	f000 f925 	bl	8002988 <RCCEx_PLLSAI2_Config>
 800273e:	4603      	mov	r3, r0
 8002740:	74fb      	strb	r3, [r7, #19]

      if(ret != HAL_OK)
 8002742:	7cfb      	ldrb	r3, [r7, #19]
 8002744:	2b00      	cmp	r3, #0
 8002746:	d001      	beq.n	800274c <HAL_RCCEx_PeriphCLKConfig+0x580>
      {
        /* set overall return value */
        status = ret;
 8002748:	7cfb      	ldrb	r3, [r7, #19]
 800274a:	74bb      	strb	r3, [r7, #18]
#endif /* !STM32L412xx && !STM32L422xx */

#if defined(SWPMI1)

  /*-------------------------- SWPMI1 clock source configuration -------------------*/
  if(((PeriphClkInit->PeriphClockSelection) & RCC_PERIPHCLK_SWPMI1) == RCC_PERIPHCLK_SWPMI1)
 800274c:	687b      	ldr	r3, [r7, #4]
 800274e:	681b      	ldr	r3, [r3, #0]
 8002750:	f403 4300 	and.w	r3, r3, #32768	@ 0x8000
 8002754:	2b00      	cmp	r3, #0
 8002756:	d00a      	beq.n	800276e <HAL_RCCEx_PeriphCLKConfig+0x5a2>
  {
    /* Check the parameters */
    assert_param(IS_RCC_SWPMI1CLKSOURCE(PeriphClkInit->Swpmi1ClockSelection));

    /* Configure the SWPMI1 clock source */
    __HAL_RCC_SWPMI1_CONFIG(PeriphClkInit->Swpmi1ClockSelection);
 8002758:	4b10      	ldr	r3, [pc, #64]	@ (800279c <HAL_RCCEx_PeriphCLKConfig+0x5d0>)
 800275a:	f8d3 3088 	ldr.w	r3, [r3, #136]	@ 0x88
 800275e:	f023 4280 	bic.w	r2, r3, #1073741824	@ 0x40000000
 8002762:	687b      	ldr	r3, [r7, #4]
 8002764:	6fdb      	ldr	r3, [r3, #124]	@ 0x7c
 8002766:	490d      	ldr	r1, [pc, #52]	@ (800279c <HAL_RCCEx_PeriphCLKConfig+0x5d0>)
 8002768:	4313      	orrs	r3, r2
 800276a:	f8c1 3088 	str.w	r3, [r1, #136]	@ 0x88
#endif /* SWPMI1 */

#if defined(DFSDM1_Filter0)

  /*-------------------------- DFSDM1 clock source configuration -------------------*/
  if(((PeriphClkInit->PeriphClockSelection) & RCC_PERIPHCLK_DFSDM1) == RCC_PERIPHCLK_DFSDM1)
 800276e:	687b      	ldr	r3, [r7, #4]
 8002770:	681b      	ldr	r3, [r3, #0]
 8002772:	f403 3380 	and.w	r3, r3, #65536	@ 0x10000
 8002776:	2b00      	cmp	r3, #0
 8002778:	d00b      	beq.n	8002792 <HAL_RCCEx_PeriphCLKConfig+0x5c6>
  {
    /* Check the parameters */
    assert_param(IS_RCC_DFSDM1CLKSOURCE(PeriphClkInit->Dfsdm1ClockSelection));

    /* Configure the DFSDM1 interface clock source */
    __HAL_RCC_DFSDM1_CONFIG(PeriphClkInit->Dfsdm1ClockSelection);
 800277a:	4b08      	ldr	r3, [pc, #32]	@ (800279c <HAL_RCCEx_PeriphCLKConfig+0x5d0>)
 800277c:	f8d3 3088 	ldr.w	r3, [r3, #136]	@ 0x88
 8002780:	f023 4200 	bic.w	r2, r3, #2147483648	@ 0x80000000
 8002784:	687b      	ldr	r3, [r7, #4]
 8002786:	f8d3 3080 	ldr.w	r3, [r3, #128]	@ 0x80
 800278a:	4904      	ldr	r1, [pc, #16]	@ (800279c <HAL_RCCEx_PeriphCLKConfig+0x5d0>)
 800278c:	4313      	orrs	r3, r2
 800278e:	f8c1 3088 	str.w	r3, [r1, #136]	@ 0x88
    }
  }

#endif /* OCTOSPI1 || OCTOSPI2 */

  return status;
 8002792:	7cbb      	ldrb	r3, [r7, #18]
}
 8002794:	4618      	mov	r0, r3
 8002796:	3718      	adds	r7, #24
 8002798:	46bd      	mov	sp, r7
 800279a:	bd80      	pop	{r7, pc}
 800279c:	40021000 	.word	0x40021000

080027a0 <RCCEx_PLLSAI1_Config>:
  * @note   PLLSAI1 is temporary disable to apply new parameters
  *
  * @retval HAL status
  */
static HAL_StatusTypeDef RCCEx_PLLSAI1_Config(RCC_PLLSAI1InitTypeDef *PllSai1, uint32_t Divider)
{
 80027a0:	b580      	push	{r7, lr}
 80027a2:	b084      	sub	sp, #16
 80027a4:	af00      	add	r7, sp, #0
 80027a6:	6078      	str	r0, [r7, #4]
 80027a8:	6039      	str	r1, [r7, #0]
  uint32_t tickstart;
  HAL_StatusTypeDef status = HAL_OK;
 80027aa:	2300      	movs	r3, #0
 80027ac:	73fb      	strb	r3, [r7, #15]
  assert_param(IS_RCC_PLLSAI1M_VALUE(PllSai1->PLLSAI1M));
  assert_param(IS_RCC_PLLSAI1N_VALUE(PllSai1->PLLSAI1N));
  assert_param(IS_RCC_PLLSAI1CLOCKOUT_VALUE(PllSai1->PLLSAI1ClockOut));

  /* Check that PLLSAI1 clock source and divider M can be applied */
  if(__HAL_RCC_GET_PLL_OSCSOURCE() != RCC_PLLSOURCE_NONE)
 80027ae:	4b75      	ldr	r3, [pc, #468]	@ (8002984 <RCCEx_PLLSAI1_Config+0x1e4>)
 80027b0:	68db      	ldr	r3, [r3, #12]
 80027b2:	f003 0303 	and.w	r3, r3, #3
 80027b6:	2b00      	cmp	r3, #0
 80027b8:	d018      	beq.n	80027ec <RCCEx_PLLSAI1_Config+0x4c>
  {
    /* PLL clock source and divider M already set, check that no request for change  */
    if((__HAL_RCC_GET_PLL_OSCSOURCE() != PllSai1->PLLSAI1Source)
 80027ba:	4b72      	ldr	r3, [pc, #456]	@ (8002984 <RCCEx_PLLSAI1_Config+0x1e4>)
 80027bc:	68db      	ldr	r3, [r3, #12]
 80027be:	f003 0203 	and.w	r2, r3, #3
 80027c2:	687b      	ldr	r3, [r7, #4]
 80027c4:	681b      	ldr	r3, [r3, #0]
 80027c6:	429a      	cmp	r2, r3
 80027c8:	d10d      	bne.n	80027e6 <RCCEx_PLLSAI1_Config+0x46>
       ||
       (PllSai1->PLLSAI1Source == RCC_PLLSOURCE_NONE)
 80027ca:	687b      	ldr	r3, [r7, #4]
 80027cc:	681b      	ldr	r3, [r3, #0]
       ||
 80027ce:	2b00      	cmp	r3, #0
 80027d0:	d009      	beq.n	80027e6 <RCCEx_PLLSAI1_Config+0x46>
#if !defined(RCC_PLLSAI1M_DIV_1_16_SUPPORT)
       ||
       (((READ_BIT(RCC->PLLCFGR, RCC_PLLCFGR_PLLM) >> RCC_PLLCFGR_PLLM_Pos) + 1U) != PllSai1->PLLSAI1M)
 80027d2:	4b6c      	ldr	r3, [pc, #432]	@ (8002984 <RCCEx_PLLSAI1_Config+0x1e4>)
 80027d4:	68db      	ldr	r3, [r3, #12]
 80027d6:	091b      	lsrs	r3, r3, #4
 80027d8:	f003 0307 	and.w	r3, r3, #7
 80027dc:	1c5a      	adds	r2, r3, #1
 80027de:	687b      	ldr	r3, [r7, #4]
 80027e0:	685b      	ldr	r3, [r3, #4]
       ||
 80027e2:	429a      	cmp	r2, r3
 80027e4:	d047      	beq.n	8002876 <RCCEx_PLLSAI1_Config+0xd6>
#endif
      )
    {
      status = HAL_ERROR;
 80027e6:	2301      	movs	r3, #1
 80027e8:	73fb      	strb	r3, [r7, #15]
 80027ea:	e044      	b.n	8002876 <RCCEx_PLLSAI1_Config+0xd6>
    }
  }
  else
  {
    /* Check PLLSAI1 clock source availability */
    switch(PllSai1->PLLSAI1Source)
 80027ec:	687b      	ldr	r3, [r7, #4]
 80027ee:	681b      	ldr	r3, [r3, #0]
 80027f0:	2b03      	cmp	r3, #3
 80027f2:	d018      	beq.n	8002826 <RCCEx_PLLSAI1_Config+0x86>
 80027f4:	2b03      	cmp	r3, #3
 80027f6:	d825      	bhi.n	8002844 <RCCEx_PLLSAI1_Config+0xa4>
 80027f8:	2b01      	cmp	r3, #1
 80027fa:	d002      	beq.n	8002802 <RCCEx_PLLSAI1_Config+0x62>
 80027fc:	2b02      	cmp	r3, #2
 80027fe:	d009      	beq.n	8002814 <RCCEx_PLLSAI1_Config+0x74>
 8002800:	e020      	b.n	8002844 <RCCEx_PLLSAI1_Config+0xa4>
    {
    case RCC_PLLSOURCE_MSI:
      if(HAL_IS_BIT_CLR(RCC->CR, RCC_CR_MSIRDY))
 8002802:	4b60      	ldr	r3, [pc, #384]	@ (8002984 <RCCEx_PLLSAI1_Config+0x1e4>)
 8002804:	681b      	ldr	r3, [r3, #0]
 8002806:	f003 0302 	and.w	r3, r3, #2
 800280a:	2b00      	cmp	r3, #0
 800280c:	d11d      	bne.n	800284a <RCCEx_PLLSAI1_Config+0xaa>
      {
        status = HAL_ERROR;
 800280e:	2301      	movs	r3, #1
 8002810:	73fb      	strb	r3, [r7, #15]
      }
      break;
 8002812:	e01a      	b.n	800284a <RCCEx_PLLSAI1_Config+0xaa>
    case RCC_PLLSOURCE_HSI:
      if(HAL_IS_BIT_CLR(RCC->CR, RCC_CR_HSIRDY))
 8002814:	4b5b      	ldr	r3, [pc, #364]	@ (8002984 <RCCEx_PLLSAI1_Config+0x1e4>)
 8002816:	681b      	ldr	r3, [r3, #0]
 8002818:	f403 6380 	and.w	r3, r3, #1024	@ 0x400
 800281c:	2b00      	cmp	r3, #0
 800281e:	d116      	bne.n	800284e <RCCEx_PLLSAI1_Config+0xae>
      {
        status = HAL_ERROR;
 8002820:	2301      	movs	r3, #1
 8002822:	73fb      	strb	r3, [r7, #15]
      }
      break;
 8002824:	e013      	b.n	800284e <RCCEx_PLLSAI1_Config+0xae>
    case RCC_PLLSOURCE_HSE:
      if(HAL_IS_BIT_CLR(RCC->CR, RCC_CR_HSERDY))
 8002826:	4b57      	ldr	r3, [pc, #348]	@ (8002984 <RCCEx_PLLSAI1_Config+0x1e4>)
 8002828:	681b      	ldr	r3, [r3, #0]
 800282a:	f403 3300 	and.w	r3, r3, #131072	@ 0x20000
 800282e:	2b00      	cmp	r3, #0
 8002830:	d10f      	bne.n	8002852 <RCCEx_PLLSAI1_Config+0xb2>
      {
        if(HAL_IS_BIT_CLR(RCC->CR, RCC_CR_HSEBYP))
 8002832:	4b54      	ldr	r3, [pc, #336]	@ (8002984 <RCCEx_PLLSAI1_Config+0x1e4>)
 8002834:	681b      	ldr	r3, [r3, #0]
 8002836:	f403 2380 	and.w	r3, r3, #262144	@ 0x40000
 800283a:	2b00      	cmp	r3, #0
 800283c:	d109      	bne.n	8002852 <RCCEx_PLLSAI1_Config+0xb2>
        {
          status = HAL_ERROR;
 800283e:	2301      	movs	r3, #1
 8002840:	73fb      	strb	r3, [r7, #15]
        }
      }
      break;
 8002842:	e006      	b.n	8002852 <RCCEx_PLLSAI1_Config+0xb2>
    default:
      status = HAL_ERROR;
 8002844:	2301      	movs	r3, #1
 8002846:	73fb      	strb	r3, [r7, #15]
      break;
 8002848:	e004      	b.n	8002854 <RCCEx_PLLSAI1_Config+0xb4>
      break;
 800284a:	bf00      	nop
 800284c:	e002      	b.n	8002854 <RCCEx_PLLSAI1_Config+0xb4>
      break;
 800284e:	bf00      	nop
 8002850:	e000      	b.n	8002854 <RCCEx_PLLSAI1_Config+0xb4>
      break;
 8002852:	bf00      	nop
    }

    if(status == HAL_OK)
 8002854:	7bfb      	ldrb	r3, [r7, #15]
 8002856:	2b00      	cmp	r3, #0
 8002858:	d10d      	bne.n	8002876 <RCCEx_PLLSAI1_Config+0xd6>
#if defined(RCC_PLLSAI1M_DIV_1_16_SUPPORT)
      /* Set PLLSAI1 clock source */
      MODIFY_REG(RCC->PLLCFGR, RCC_PLLCFGR_PLLSRC, PllSai1->PLLSAI1Source);
#else
      /* Set PLLSAI1 clock source and divider M */
      MODIFY_REG(RCC->PLLCFGR, RCC_PLLCFGR_PLLSRC | RCC_PLLCFGR_PLLM, PllSai1->PLLSAI1Source | (PllSai1->PLLSAI1M - 1U) << RCC_PLLCFGR_PLLM_Pos);
 800285a:	4b4a      	ldr	r3, [pc, #296]	@ (8002984 <RCCEx_PLLSAI1_Config+0x1e4>)
 800285c:	68db      	ldr	r3, [r3, #12]
 800285e:	f023 0273 	bic.w	r2, r3, #115	@ 0x73
 8002862:	687b      	ldr	r3, [r7, #4]
 8002864:	6819      	ldr	r1, [r3, #0]
 8002866:	687b      	ldr	r3, [r7, #4]
 8002868:	685b      	ldr	r3, [r3, #4]
 800286a:	3b01      	subs	r3, #1
 800286c:	011b      	lsls	r3, r3, #4
 800286e:	430b      	orrs	r3, r1
 8002870:	4944      	ldr	r1, [pc, #272]	@ (8002984 <RCCEx_PLLSAI1_Config+0x1e4>)
 8002872:	4313      	orrs	r3, r2
 8002874:	60cb      	str	r3, [r1, #12]
#endif
    }
  }

  if(status == HAL_OK)
 8002876:	7bfb      	ldrb	r3, [r7, #15]
 8002878:	2b00      	cmp	r3, #0
 800287a:	d17d      	bne.n	8002978 <RCCEx_PLLSAI1_Config+0x1d8>
  {
    /* Disable the PLLSAI1 */
    __HAL_RCC_PLLSAI1_DISABLE();
 800287c:	4b41      	ldr	r3, [pc, #260]	@ (8002984 <RCCEx_PLLSAI1_Config+0x1e4>)
 800287e:	681b      	ldr	r3, [r3, #0]
 8002880:	4a40      	ldr	r2, [pc, #256]	@ (8002984 <RCCEx_PLLSAI1_Config+0x1e4>)
 8002882:	f023 6380 	bic.w	r3, r3, #67108864	@ 0x4000000
 8002886:	6013      	str	r3, [r2, #0]

    /* Get Start Tick*/
    tickstart = HAL_GetTick();
 8002888:	f7fe fb08 	bl	8000e9c <HAL_GetTick>
 800288c:	60b8      	str	r0, [r7, #8]

    /* Wait till PLLSAI1 is ready to be updated */
    while(READ_BIT(RCC->CR, RCC_CR_PLLSAI1RDY) != 0U)
 800288e:	e009      	b.n	80028a4 <RCCEx_PLLSAI1_Config+0x104>
    {
      if((HAL_GetTick() - tickstart) > PLLSAI1_TIMEOUT_VALUE)
 8002890:	f7fe fb04 	bl	8000e9c <HAL_GetTick>
 8002894:	4602      	mov	r2, r0
 8002896:	68bb      	ldr	r3, [r7, #8]
 8002898:	1ad3      	subs	r3, r2, r3
 800289a:	2b02      	cmp	r3, #2
 800289c:	d902      	bls.n	80028a4 <RCCEx_PLLSAI1_Config+0x104>
      {
        status = HAL_TIMEOUT;
 800289e:	2303      	movs	r3, #3
 80028a0:	73fb      	strb	r3, [r7, #15]
        break;
 80028a2:	e005      	b.n	80028b0 <RCCEx_PLLSAI1_Config+0x110>
    while(READ_BIT(RCC->CR, RCC_CR_PLLSAI1RDY) != 0U)
 80028a4:	4b37      	ldr	r3, [pc, #220]	@ (8002984 <RCCEx_PLLSAI1_Config+0x1e4>)
 80028a6:	681b      	ldr	r3, [r3, #0]
 80028a8:	f003 6300 	and.w	r3, r3, #134217728	@ 0x8000000
 80028ac:	2b00      	cmp	r3, #0
 80028ae:	d1ef      	bne.n	8002890 <RCCEx_PLLSAI1_Config+0xf0>
      }
    }

    if(status == HAL_OK)
 80028b0:	7bfb      	ldrb	r3, [r7, #15]
 80028b2:	2b00      	cmp	r3, #0
 80028b4:	d160      	bne.n	8002978 <RCCEx_PLLSAI1_Config+0x1d8>
    {
      if(Divider == DIVIDER_P_UPDATE)
 80028b6:	683b      	ldr	r3, [r7, #0]
 80028b8:	2b00      	cmp	r3, #0
 80028ba:	d111      	bne.n	80028e0 <RCCEx_PLLSAI1_Config+0x140>
        MODIFY_REG(RCC->PLLSAI1CFGR,
                   RCC_PLLSAI1CFGR_PLLSAI1N | RCC_PLLSAI1CFGR_PLLSAI1PDIV,
                   (PllSai1->PLLSAI1N << RCC_PLLSAI1CFGR_PLLSAI1N_Pos) |
                   (PllSai1->PLLSAI1P << RCC_PLLSAI1CFGR_PLLSAI1PDIV_Pos));
#else
        MODIFY_REG(RCC->PLLSAI1CFGR,
 80028bc:	4b31      	ldr	r3, [pc, #196]	@ (8002984 <RCCEx_PLLSAI1_Config+0x1e4>)
 80028be:	691b      	ldr	r3, [r3, #16]
 80028c0:	f423 331f 	bic.w	r3, r3, #162816	@ 0x27c00
 80028c4:	f423 7340 	bic.w	r3, r3, #768	@ 0x300
 80028c8:	687a      	ldr	r2, [r7, #4]
 80028ca:	6892      	ldr	r2, [r2, #8]
 80028cc:	0211      	lsls	r1, r2, #8
 80028ce:	687a      	ldr	r2, [r7, #4]
 80028d0:	68d2      	ldr	r2, [r2, #12]
 80028d2:	0912      	lsrs	r2, r2, #4
 80028d4:	0452      	lsls	r2, r2, #17
 80028d6:	430a      	orrs	r2, r1
 80028d8:	492a      	ldr	r1, [pc, #168]	@ (8002984 <RCCEx_PLLSAI1_Config+0x1e4>)
 80028da:	4313      	orrs	r3, r2
 80028dc:	610b      	str	r3, [r1, #16]
 80028de:	e027      	b.n	8002930 <RCCEx_PLLSAI1_Config+0x190>
                   ((PllSai1->PLLSAI1P >> 4U) << RCC_PLLSAI1CFGR_PLLSAI1P_Pos));
#endif /* RCC_PLLSAI1P_DIV_2_31_SUPPORT */

#endif /* RCC_PLLSAI1M_DIV_1_16_SUPPORT */
      }
      else if(Divider == DIVIDER_Q_UPDATE)
 80028e0:	683b      	ldr	r3, [r7, #0]
 80028e2:	2b01      	cmp	r3, #1
 80028e4:	d112      	bne.n	800290c <RCCEx_PLLSAI1_Config+0x16c>
                   (PllSai1->PLLSAI1N << RCC_PLLSAI1CFGR_PLLSAI1N_Pos) |
                   (((PllSai1->PLLSAI1Q >> 1U) - 1U) << RCC_PLLSAI1CFGR_PLLSAI1Q_Pos) |
                   ((PllSai1->PLLSAI1M - 1U) << RCC_PLLSAI1CFGR_PLLSAI1M_Pos));
#else
        /* Configure the PLLSAI1 Division factor Q and Multiplication factor N*/
        MODIFY_REG(RCC->PLLSAI1CFGR,
 80028e6:	4b27      	ldr	r3, [pc, #156]	@ (8002984 <RCCEx_PLLSAI1_Config+0x1e4>)
 80028e8:	691b      	ldr	r3, [r3, #16]
 80028ea:	f423 03c0 	bic.w	r3, r3, #6291456	@ 0x600000
 80028ee:	f423 43fe 	bic.w	r3, r3, #32512	@ 0x7f00
 80028f2:	687a      	ldr	r2, [r7, #4]
 80028f4:	6892      	ldr	r2, [r2, #8]
 80028f6:	0211      	lsls	r1, r2, #8
 80028f8:	687a      	ldr	r2, [r7, #4]
 80028fa:	6912      	ldr	r2, [r2, #16]
 80028fc:	0852      	lsrs	r2, r2, #1
 80028fe:	3a01      	subs	r2, #1
 8002900:	0552      	lsls	r2, r2, #21
 8002902:	430a      	orrs	r2, r1
 8002904:	491f      	ldr	r1, [pc, #124]	@ (8002984 <RCCEx_PLLSAI1_Config+0x1e4>)
 8002906:	4313      	orrs	r3, r2
 8002908:	610b      	str	r3, [r1, #16]
 800290a:	e011      	b.n	8002930 <RCCEx_PLLSAI1_Config+0x190>
                   (PllSai1->PLLSAI1N << RCC_PLLSAI1CFGR_PLLSAI1N_Pos) |
                   (((PllSai1->PLLSAI1R >> 1U) - 1U) << RCC_PLLSAI1CFGR_PLLSAI1R_Pos) |
                   ((PllSai1->PLLSAI1M - 1U) << RCC_PLLSAI1CFGR_PLLSAI1M_Pos));
#else
        /* Configure the PLLSAI1 Division factor R and Multiplication factor N*/
        MODIFY_REG(RCC->PLLSAI1CFGR,
 800290c:	4b1d      	ldr	r3, [pc, #116]	@ (8002984 <RCCEx_PLLSAI1_Config+0x1e4>)
 800290e:	691b      	ldr	r3, [r3, #16]
 8002910:	f023 63c0 	bic.w	r3, r3, #100663296	@ 0x6000000
 8002914:	f423 43fe 	bic.w	r3, r3, #32512	@ 0x7f00
 8002918:	687a      	ldr	r2, [r7, #4]
 800291a:	6892      	ldr	r2, [r2, #8]
 800291c:	0211      	lsls	r1, r2, #8
 800291e:	687a      	ldr	r2, [r7, #4]
 8002920:	6952      	ldr	r2, [r2, #20]
 8002922:	0852      	lsrs	r2, r2, #1
 8002924:	3a01      	subs	r2, #1
 8002926:	0652      	lsls	r2, r2, #25
 8002928:	430a      	orrs	r2, r1
 800292a:	4916      	ldr	r1, [pc, #88]	@ (8002984 <RCCEx_PLLSAI1_Config+0x1e4>)
 800292c:	4313      	orrs	r3, r2
 800292e:	610b      	str	r3, [r1, #16]
                   (((PllSai1->PLLSAI1R >> 1U) - 1U) << RCC_PLLSAI1CFGR_PLLSAI1R_Pos));
#endif /* RCC_PLLSAI1M_DIV_1_16_SUPPORT */
      }

      /* Enable the PLLSAI1 again by setting PLLSAI1ON to 1*/
      __HAL_RCC_PLLSAI1_ENABLE();
 8002930:	4b14      	ldr	r3, [pc, #80]	@ (8002984 <RCCEx_PLLSAI1_Config+0x1e4>)
 8002932:	681b      	ldr	r3, [r3, #0]
 8002934:	4a13      	ldr	r2, [pc, #76]	@ (8002984 <RCCEx_PLLSAI1_Config+0x1e4>)
 8002936:	f043 6380 	orr.w	r3, r3, #67108864	@ 0x4000000
 800293a:	6013      	str	r3, [r2, #0]

      /* Get Start Tick*/
      tickstart = HAL_GetTick();
 800293c:	f7fe faae 	bl	8000e9c <HAL_GetTick>
 8002940:	60b8      	str	r0, [r7, #8]

      /* Wait till PLLSAI1 is ready */
      while(READ_BIT(RCC->CR, RCC_CR_PLLSAI1RDY) == 0U)
 8002942:	e009      	b.n	8002958 <RCCEx_PLLSAI1_Config+0x1b8>
      {
        if((HAL_GetTick() - tickstart) > PLLSAI1_TIMEOUT_VALUE)
 8002944:	f7fe faaa 	bl	8000e9c <HAL_GetTick>
 8002948:	4602      	mov	r2, r0
 800294a:	68bb      	ldr	r3, [r7, #8]
 800294c:	1ad3      	subs	r3, r2, r3
 800294e:	2b02      	cmp	r3, #2
 8002950:	d902      	bls.n	8002958 <RCCEx_PLLSAI1_Config+0x1b8>
        {
          status = HAL_TIMEOUT;
 8002952:	2303      	movs	r3, #3
 8002954:	73fb      	strb	r3, [r7, #15]
          break;
 8002956:	e005      	b.n	8002964 <RCCEx_PLLSAI1_Config+0x1c4>
      while(READ_BIT(RCC->CR, RCC_CR_PLLSAI1RDY) == 0U)
 8002958:	4b0a      	ldr	r3, [pc, #40]	@ (8002984 <RCCEx_PLLSAI1_Config+0x1e4>)
 800295a:	681b      	ldr	r3, [r3, #0]
 800295c:	f003 6300 	and.w	r3, r3, #134217728	@ 0x8000000
 8002960:	2b00      	cmp	r3, #0
 8002962:	d0ef      	beq.n	8002944 <RCCEx_PLLSAI1_Config+0x1a4>
        }
      }

      if(status == HAL_OK)
 8002964:	7bfb      	ldrb	r3, [r7, #15]
 8002966:	2b00      	cmp	r3, #0
 8002968:	d106      	bne.n	8002978 <RCCEx_PLLSAI1_Config+0x1d8>
      {
        /* Configure the PLLSAI1 Clock output(s) */
        __HAL_RCC_PLLSAI1CLKOUT_ENABLE(PllSai1->PLLSAI1ClockOut);
 800296a:	4b06      	ldr	r3, [pc, #24]	@ (8002984 <RCCEx_PLLSAI1_Config+0x1e4>)
 800296c:	691a      	ldr	r2, [r3, #16]
 800296e:	687b      	ldr	r3, [r7, #4]
 8002970:	699b      	ldr	r3, [r3, #24]
 8002972:	4904      	ldr	r1, [pc, #16]	@ (8002984 <RCCEx_PLLSAI1_Config+0x1e4>)
 8002974:	4313      	orrs	r3, r2
 8002976:	610b      	str	r3, [r1, #16]
      }
    }
  }

  return status;
 8002978:	7bfb      	ldrb	r3, [r7, #15]
}
 800297a:	4618      	mov	r0, r3
 800297c:	3710      	adds	r7, #16
 800297e:	46bd      	mov	sp, r7
 8002980:	bd80      	pop	{r7, pc}
 8002982:	bf00      	nop
 8002984:	40021000 	.word	0x40021000

08002988 <RCCEx_PLLSAI2_Config>:
  * @note   PLLSAI2 is temporary disable to apply new parameters
  *
  * @retval HAL status
  */
static HAL_StatusTypeDef RCCEx_PLLSAI2_Config(RCC_PLLSAI2InitTypeDef *PllSai2, uint32_t Divider)
{
 8002988:	b580      	push	{r7, lr}
 800298a:	b084      	sub	sp, #16
 800298c:	af00      	add	r7, sp, #0
 800298e:	6078      	str	r0, [r7, #4]
 8002990:	6039      	str	r1, [r7, #0]
  uint32_t tickstart;
  HAL_StatusTypeDef status = HAL_OK;
 8002992:	2300      	movs	r3, #0
 8002994:	73fb      	strb	r3, [r7, #15]
  assert_param(IS_RCC_PLLSAI2M_VALUE(PllSai2->PLLSAI2M));
  assert_param(IS_RCC_PLLSAI2N_VALUE(PllSai2->PLLSAI2N));
  assert_param(IS_RCC_PLLSAI2CLOCKOUT_VALUE(PllSai2->PLLSAI2ClockOut));

  /* Check that PLLSAI2 clock source and divider M can be applied */
  if(__HAL_RCC_GET_PLL_OSCSOURCE() != RCC_PLLSOURCE_NONE)
 8002996:	4b6a      	ldr	r3, [pc, #424]	@ (8002b40 <RCCEx_PLLSAI2_Config+0x1b8>)
 8002998:	68db      	ldr	r3, [r3, #12]
 800299a:	f003 0303 	and.w	r3, r3, #3
 800299e:	2b00      	cmp	r3, #0
 80029a0:	d018      	beq.n	80029d4 <RCCEx_PLLSAI2_Config+0x4c>
  {
    /* PLL clock source and divider M already set, check that no request for change  */
    if((__HAL_RCC_GET_PLL_OSCSOURCE() != PllSai2->PLLSAI2Source)
 80029a2:	4b67      	ldr	r3, [pc, #412]	@ (8002b40 <RCCEx_PLLSAI2_Config+0x1b8>)
 80029a4:	68db      	ldr	r3, [r3, #12]
 80029a6:	f003 0203 	and.w	r2, r3, #3
 80029aa:	687b      	ldr	r3, [r7, #4]
 80029ac:	681b      	ldr	r3, [r3, #0]
 80029ae:	429a      	cmp	r2, r3
 80029b0:	d10d      	bne.n	80029ce <RCCEx_PLLSAI2_Config+0x46>
       ||
       (PllSai2->PLLSAI2Source == RCC_PLLSOURCE_NONE)
 80029b2:	687b      	ldr	r3, [r7, #4]
 80029b4:	681b      	ldr	r3, [r3, #0]
       ||
 80029b6:	2b00      	cmp	r3, #0
 80029b8:	d009      	beq.n	80029ce <RCCEx_PLLSAI2_Config+0x46>
#if !defined(RCC_PLLSAI2M_DIV_1_16_SUPPORT)
       ||
       (((READ_BIT(RCC->PLLCFGR, RCC_PLLCFGR_PLLM) >> RCC_PLLCFGR_PLLM_Pos) + 1U) != PllSai2->PLLSAI2M)
 80029ba:	4b61      	ldr	r3, [pc, #388]	@ (8002b40 <RCCEx_PLLSAI2_Config+0x1b8>)
 80029bc:	68db      	ldr	r3, [r3, #12]
 80029be:	091b      	lsrs	r3, r3, #4
 80029c0:	f003 0307 	and.w	r3, r3, #7
 80029c4:	1c5a      	adds	r2, r3, #1
 80029c6:	687b      	ldr	r3, [r7, #4]
 80029c8:	685b      	ldr	r3, [r3, #4]
       ||
 80029ca:	429a      	cmp	r2, r3
 80029cc:	d047      	beq.n	8002a5e <RCCEx_PLLSAI2_Config+0xd6>
#endif
      )
    {
      status = HAL_ERROR;
 80029ce:	2301      	movs	r3, #1
 80029d0:	73fb      	strb	r3, [r7, #15]
 80029d2:	e044      	b.n	8002a5e <RCCEx_PLLSAI2_Config+0xd6>
    }
  }
  else
  {
    /* Check PLLSAI2 clock source availability */
    switch(PllSai2->PLLSAI2Source)
 80029d4:	687b      	ldr	r3, [r7, #4]
 80029d6:	681b      	ldr	r3, [r3, #0]
 80029d8:	2b03      	cmp	r3, #3
 80029da:	d018      	beq.n	8002a0e <RCCEx_PLLSAI2_Config+0x86>
 80029dc:	2b03      	cmp	r3, #3
 80029de:	d825      	bhi.n	8002a2c <RCCEx_PLLSAI2_Config+0xa4>
 80029e0:	2b01      	cmp	r3, #1
 80029e2:	d002      	beq.n	80029ea <RCCEx_PLLSAI2_Config+0x62>
 80029e4:	2b02      	cmp	r3, #2
 80029e6:	d009      	beq.n	80029fc <RCCEx_PLLSAI2_Config+0x74>
 80029e8:	e020      	b.n	8002a2c <RCCEx_PLLSAI2_Config+0xa4>
    {
    case RCC_PLLSOURCE_MSI:
      if(HAL_IS_BIT_CLR(RCC->CR, RCC_CR_MSIRDY))
 80029ea:	4b55      	ldr	r3, [pc, #340]	@ (8002b40 <RCCEx_PLLSAI2_Config+0x1b8>)
 80029ec:	681b      	ldr	r3, [r3, #0]
 80029ee:	f003 0302 	and.w	r3, r3, #2
 80029f2:	2b00      	cmp	r3, #0
 80029f4:	d11d      	bne.n	8002a32 <RCCEx_PLLSAI2_Config+0xaa>
      {
        status = HAL_ERROR;
 80029f6:	2301      	movs	r3, #1
 80029f8:	73fb      	strb	r3, [r7, #15]
      }
      break;
 80029fa:	e01a      	b.n	8002a32 <RCCEx_PLLSAI2_Config+0xaa>
    case RCC_PLLSOURCE_HSI:
      if(HAL_IS_BIT_CLR(RCC->CR, RCC_CR_HSIRDY))
 80029fc:	4b50      	ldr	r3, [pc, #320]	@ (8002b40 <RCCEx_PLLSAI2_Config+0x1b8>)
 80029fe:	681b      	ldr	r3, [r3, #0]
 8002a00:	f403 6380 	and.w	r3, r3, #1024	@ 0x400
 8002a04:	2b00      	cmp	r3, #0
 8002a06:	d116      	bne.n	8002a36 <RCCEx_PLLSAI2_Config+0xae>
      {
        status = HAL_ERROR;
 8002a08:	2301      	movs	r3, #1
 8002a0a:	73fb      	strb	r3, [r7, #15]
      }
      break;
 8002a0c:	e013      	b.n	8002a36 <RCCEx_PLLSAI2_Config+0xae>
    case RCC_PLLSOURCE_HSE:
      if(HAL_IS_BIT_CLR(RCC->CR, RCC_CR_HSERDY))
 8002a0e:	4b4c      	ldr	r3, [pc, #304]	@ (8002b40 <RCCEx_PLLSAI2_Config+0x1b8>)
 8002a10:	681b      	ldr	r3, [r3, #0]
 8002a12:	f403 3300 	and.w	r3, r3, #131072	@ 0x20000
 8002a16:	2b00      	cmp	r3, #0
 8002a18:	d10f      	bne.n	8002a3a <RCCEx_PLLSAI2_Config+0xb2>
      {
        if(HAL_IS_BIT_CLR(RCC->CR, RCC_CR_HSEBYP))
 8002a1a:	4b49      	ldr	r3, [pc, #292]	@ (8002b40 <RCCEx_PLLSAI2_Config+0x1b8>)
 8002a1c:	681b      	ldr	r3, [r3, #0]
 8002a1e:	f403 2380 	and.w	r3, r3, #262144	@ 0x40000
 8002a22:	2b00      	cmp	r3, #0
 8002a24:	d109      	bne.n	8002a3a <RCCEx_PLLSAI2_Config+0xb2>
        {
          status = HAL_ERROR;
 8002a26:	2301      	movs	r3, #1
 8002a28:	73fb      	strb	r3, [r7, #15]
        }
      }
      break;
 8002a2a:	e006      	b.n	8002a3a <RCCEx_PLLSAI2_Config+0xb2>
    default:
      status = HAL_ERROR;
 8002a2c:	2301      	movs	r3, #1
 8002a2e:	73fb      	strb	r3, [r7, #15]
      break;
 8002a30:	e004      	b.n	8002a3c <RCCEx_PLLSAI2_Config+0xb4>
      break;
 8002a32:	bf00      	nop
 8002a34:	e002      	b.n	8002a3c <RCCEx_PLLSAI2_Config+0xb4>
      break;
 8002a36:	bf00      	nop
 8002a38:	e000      	b.n	8002a3c <RCCEx_PLLSAI2_Config+0xb4>
      break;
 8002a3a:	bf00      	nop
    }

    if(status == HAL_OK)
 8002a3c:	7bfb      	ldrb	r3, [r7, #15]
 8002a3e:	2b00      	cmp	r3, #0
 8002a40:	d10d      	bne.n	8002a5e <RCCEx_PLLSAI2_Config+0xd6>
#if defined(RCC_PLLSAI2M_DIV_1_16_SUPPORT)
      /* Set PLLSAI2 clock source */
      MODIFY_REG(RCC->PLLCFGR, RCC_PLLCFGR_PLLSRC, PllSai2->PLLSAI2Source);
#else
      /* Set PLLSAI2 clock source and divider M */
      MODIFY_REG(RCC->PLLCFGR, RCC_PLLCFGR_PLLSRC | RCC_PLLCFGR_PLLM, PllSai2->PLLSAI2Source | (PllSai2->PLLSAI2M - 1U) << RCC_PLLCFGR_PLLM_Pos);
 8002a42:	4b3f      	ldr	r3, [pc, #252]	@ (8002b40 <RCCEx_PLLSAI2_Config+0x1b8>)
 8002a44:	68db      	ldr	r3, [r3, #12]
 8002a46:	f023 0273 	bic.w	r2, r3, #115	@ 0x73
 8002a4a:	687b      	ldr	r3, [r7, #4]
 8002a4c:	6819      	ldr	r1, [r3, #0]
 8002a4e:	687b      	ldr	r3, [r7, #4]
 8002a50:	685b      	ldr	r3, [r3, #4]
 8002a52:	3b01      	subs	r3, #1
 8002a54:	011b      	lsls	r3, r3, #4
 8002a56:	430b      	orrs	r3, r1
 8002a58:	4939      	ldr	r1, [pc, #228]	@ (8002b40 <RCCEx_PLLSAI2_Config+0x1b8>)
 8002a5a:	4313      	orrs	r3, r2
 8002a5c:	60cb      	str	r3, [r1, #12]
#endif
    }
  }

  if(status == HAL_OK)
 8002a5e:	7bfb      	ldrb	r3, [r7, #15]
 8002a60:	2b00      	cmp	r3, #0
 8002a62:	d167      	bne.n	8002b34 <RCCEx_PLLSAI2_Config+0x1ac>
  {
    /* Disable the PLLSAI2 */
    __HAL_RCC_PLLSAI2_DISABLE();
 8002a64:	4b36      	ldr	r3, [pc, #216]	@ (8002b40 <RCCEx_PLLSAI2_Config+0x1b8>)
 8002a66:	681b      	ldr	r3, [r3, #0]
 8002a68:	4a35      	ldr	r2, [pc, #212]	@ (8002b40 <RCCEx_PLLSAI2_Config+0x1b8>)
 8002a6a:	f023 5380 	bic.w	r3, r3, #268435456	@ 0x10000000
 8002a6e:	6013      	str	r3, [r2, #0]

    /* Get Start Tick*/
    tickstart = HAL_GetTick();
 8002a70:	f7fe fa14 	bl	8000e9c <HAL_GetTick>
 8002a74:	60b8      	str	r0, [r7, #8]

    /* Wait till PLLSAI2 is ready to be updated */
    while(READ_BIT(RCC->CR, RCC_CR_PLLSAI2RDY) != 0U)
 8002a76:	e009      	b.n	8002a8c <RCCEx_PLLSAI2_Config+0x104>
    {
      if((HAL_GetTick() - tickstart) > PLLSAI2_TIMEOUT_VALUE)
 8002a78:	f7fe fa10 	bl	8000e9c <HAL_GetTick>
 8002a7c:	4602      	mov	r2, r0
 8002a7e:	68bb      	ldr	r3, [r7, #8]
 8002a80:	1ad3      	subs	r3, r2, r3
 8002a82:	2b02      	cmp	r3, #2
 8002a84:	d902      	bls.n	8002a8c <RCCEx_PLLSAI2_Config+0x104>
      {
        status = HAL_TIMEOUT;
 8002a86:	2303      	movs	r3, #3
 8002a88:	73fb      	strb	r3, [r7, #15]
        break;
 8002a8a:	e005      	b.n	8002a98 <RCCEx_PLLSAI2_Config+0x110>
    while(READ_BIT(RCC->CR, RCC_CR_PLLSAI2RDY) != 0U)
 8002a8c:	4b2c      	ldr	r3, [pc, #176]	@ (8002b40 <RCCEx_PLLSAI2_Config+0x1b8>)
 8002a8e:	681b      	ldr	r3, [r3, #0]
 8002a90:	f003 5300 	and.w	r3, r3, #536870912	@ 0x20000000
 8002a94:	2b00      	cmp	r3, #0
 8002a96:	d1ef      	bne.n	8002a78 <RCCEx_PLLSAI2_Config+0xf0>
      }
    }

    if(status == HAL_OK)
 8002a98:	7bfb      	ldrb	r3, [r7, #15]
 8002a9a:	2b00      	cmp	r3, #0
 8002a9c:	d14a      	bne.n	8002b34 <RCCEx_PLLSAI2_Config+0x1ac>
    {
      if(Divider == DIVIDER_P_UPDATE)
 8002a9e:	683b      	ldr	r3, [r7, #0]
 8002aa0:	2b00      	cmp	r3, #0
 8002aa2:	d111      	bne.n	8002ac8 <RCCEx_PLLSAI2_Config+0x140>
        MODIFY_REG(RCC->PLLSAI2CFGR,
                   RCC_PLLSAI2CFGR_PLLSAI2N | RCC_PLLSAI2CFGR_PLLSAI2PDIV,
                   (PllSai2->PLLSAI2N << RCC_PLLSAI2CFGR_PLLSAI2N_Pos) |
                   (PllSai2->PLLSAI2P << RCC_PLLSAI2CFGR_PLLSAI2PDIV_Pos));
#else
        MODIFY_REG(RCC->PLLSAI2CFGR,
 8002aa4:	4b26      	ldr	r3, [pc, #152]	@ (8002b40 <RCCEx_PLLSAI2_Config+0x1b8>)
 8002aa6:	695b      	ldr	r3, [r3, #20]
 8002aa8:	f423 331f 	bic.w	r3, r3, #162816	@ 0x27c00
 8002aac:	f423 7340 	bic.w	r3, r3, #768	@ 0x300
 8002ab0:	687a      	ldr	r2, [r7, #4]
 8002ab2:	6892      	ldr	r2, [r2, #8]
 8002ab4:	0211      	lsls	r1, r2, #8
 8002ab6:	687a      	ldr	r2, [r7, #4]
 8002ab8:	68d2      	ldr	r2, [r2, #12]
 8002aba:	0912      	lsrs	r2, r2, #4
 8002abc:	0452      	lsls	r2, r2, #17
 8002abe:	430a      	orrs	r2, r1
 8002ac0:	491f      	ldr	r1, [pc, #124]	@ (8002b40 <RCCEx_PLLSAI2_Config+0x1b8>)
 8002ac2:	4313      	orrs	r3, r2
 8002ac4:	614b      	str	r3, [r1, #20]
 8002ac6:	e011      	b.n	8002aec <RCCEx_PLLSAI2_Config+0x164>
                   (PllSai2->PLLSAI2N << RCC_PLLSAI2CFGR_PLLSAI2N_Pos) |
                   (((PllSai2->PLLSAI2R >> 1U) - 1U) << RCC_PLLSAI2CFGR_PLLSAI2R_Pos) |
                   ((PllSai2->PLLSAI2M - 1U) << RCC_PLLSAI2CFGR_PLLSAI2M_Pos));
#else
        /* Configure the PLLSAI2 Division factor R and Multiplication factor N*/
        MODIFY_REG(RCC->PLLSAI2CFGR,
 8002ac8:	4b1d      	ldr	r3, [pc, #116]	@ (8002b40 <RCCEx_PLLSAI2_Config+0x1b8>)
 8002aca:	695b      	ldr	r3, [r3, #20]
 8002acc:	f023 63c0 	bic.w	r3, r3, #100663296	@ 0x6000000
 8002ad0:	f423 43fe 	bic.w	r3, r3, #32512	@ 0x7f00
 8002ad4:	687a      	ldr	r2, [r7, #4]
 8002ad6:	6892      	ldr	r2, [r2, #8]
 8002ad8:	0211      	lsls	r1, r2, #8
 8002ada:	687a      	ldr	r2, [r7, #4]
 8002adc:	6912      	ldr	r2, [r2, #16]
 8002ade:	0852      	lsrs	r2, r2, #1
 8002ae0:	3a01      	subs	r2, #1
 8002ae2:	0652      	lsls	r2, r2, #25
 8002ae4:	430a      	orrs	r2, r1
 8002ae6:	4916      	ldr	r1, [pc, #88]	@ (8002b40 <RCCEx_PLLSAI2_Config+0x1b8>)
 8002ae8:	4313      	orrs	r3, r2
 8002aea:	614b      	str	r3, [r1, #20]
                   (((PllSai2->PLLSAI2R >> 1U) - 1U) << RCC_PLLSAI2CFGR_PLLSAI2R_Pos));
#endif /* RCC_PLLSAI2M_DIV_1_16_SUPPORT */
      }

      /* Enable the PLLSAI2 again by setting PLLSAI2ON to 1*/
      __HAL_RCC_PLLSAI2_ENABLE();
 8002aec:	4b14      	ldr	r3, [pc, #80]	@ (8002b40 <RCCEx_PLLSAI2_Config+0x1b8>)
 8002aee:	681b      	ldr	r3, [r3, #0]
 8002af0:	4a13      	ldr	r2, [pc, #76]	@ (8002b40 <RCCEx_PLLSAI2_Config+0x1b8>)
 8002af2:	f043 5380 	orr.w	r3, r3, #268435456	@ 0x10000000
 8002af6:	6013      	str	r3, [r2, #0]

      /* Get Start Tick*/
      tickstart = HAL_GetTick();
 8002af8:	f7fe f9d0 	bl	8000e9c <HAL_GetTick>
 8002afc:	60b8      	str	r0, [r7, #8]

      /* Wait till PLLSAI2 is ready */
      while(READ_BIT(RCC->CR, RCC_CR_PLLSAI2RDY) == 0U)
 8002afe:	e009      	b.n	8002b14 <RCCEx_PLLSAI2_Config+0x18c>
      {
        if((HAL_GetTick() - tickstart) > PLLSAI2_TIMEOUT_VALUE)
 8002b00:	f7fe f9cc 	bl	8000e9c <HAL_GetTick>
 8002b04:	4602      	mov	r2, r0
 8002b06:	68bb      	ldr	r3, [r7, #8]
 8002b08:	1ad3      	subs	r3, r2, r3
 8002b0a:	2b02      	cmp	r3, #2
 8002b0c:	d902      	bls.n	8002b14 <RCCEx_PLLSAI2_Config+0x18c>
        {
          status = HAL_TIMEOUT;
 8002b0e:	2303      	movs	r3, #3
 8002b10:	73fb      	strb	r3, [r7, #15]
          break;
 8002b12:	e005      	b.n	8002b20 <RCCEx_PLLSAI2_Config+0x198>
      while(READ_BIT(RCC->CR, RCC_CR_PLLSAI2RDY) == 0U)
 8002b14:	4b0a      	ldr	r3, [pc, #40]	@ (8002b40 <RCCEx_PLLSAI2_Config+0x1b8>)
 8002b16:	681b      	ldr	r3, [r3, #0]
 8002b18:	f003 5300 	and.w	r3, r3, #536870912	@ 0x20000000
 8002b1c:	2b00      	cmp	r3, #0
 8002b1e:	d0ef      	beq.n	8002b00 <RCCEx_PLLSAI2_Config+0x178>
        }
      }

      if(status == HAL_OK)
 8002b20:	7bfb      	ldrb	r3, [r7, #15]
 8002b22:	2b00      	cmp	r3, #0
 8002b24:	d106      	bne.n	8002b34 <RCCEx_PLLSAI2_Config+0x1ac>
      {
        /* Configure the PLLSAI2 Clock output(s) */
        __HAL_RCC_PLLSAI2CLKOUT_ENABLE(PllSai2->PLLSAI2ClockOut);
 8002b26:	4b06      	ldr	r3, [pc, #24]	@ (8002b40 <RCCEx_PLLSAI2_Config+0x1b8>)
 8002b28:	695a      	ldr	r2, [r3, #20]
 8002b2a:	687b      	ldr	r3, [r7, #4]
 8002b2c:	695b      	ldr	r3, [r3, #20]
 8002b2e:	4904      	ldr	r1, [pc, #16]	@ (8002b40 <RCCEx_PLLSAI2_Config+0x1b8>)
 8002b30:	4313      	orrs	r3, r2
 8002b32:	614b      	str	r3, [r1, #20]
      }
    }
  }

  return status;
 8002b34:	7bfb      	ldrb	r3, [r7, #15]
}
 8002b36:	4618      	mov	r0, r3
 8002b38:	3710      	adds	r7, #16
 8002b3a:	46bd      	mov	sp, r7
 8002b3c:	bd80      	pop	{r7, pc}
 8002b3e:	bf00      	nop
 8002b40:	40021000 	.word	0x40021000

08002b44 <HAL_SPI_Init>:
  * @param  hspi pointer to a SPI_HandleTypeDef structure that contains
  *               the configuration information for SPI module.
  * @retval HAL status
  */
HAL_StatusTypeDef HAL_SPI_Init(SPI_HandleTypeDef *hspi)
{
 8002b44:	b580      	push	{r7, lr}
 8002b46:	b084      	sub	sp, #16
 8002b48:	af00      	add	r7, sp, #0
 8002b4a:	6078      	str	r0, [r7, #4]
  uint32_t frxth;

  /* Check the SPI handle allocation */
  if (hspi == NULL)
 8002b4c:	687b      	ldr	r3, [r7, #4]
 8002b4e:	2b00      	cmp	r3, #0
 8002b50:	d101      	bne.n	8002b56 <HAL_SPI_Init+0x12>
  {
    return HAL_ERROR;
 8002b52:	2301      	movs	r3, #1
 8002b54:	e095      	b.n	8002c82 <HAL_SPI_Init+0x13e>
  assert_param(IS_SPI_NSS(hspi->Init.NSS));
  assert_param(IS_SPI_NSSP(hspi->Init.NSSPMode));
  assert_param(IS_SPI_BAUDRATE_PRESCALER(hspi->Init.BaudRatePrescaler));
  assert_param(IS_SPI_FIRST_BIT(hspi->Init.FirstBit));
  assert_param(IS_SPI_TIMODE(hspi->Init.TIMode));
  if (hspi->Init.TIMode == SPI_TIMODE_DISABLE)
 8002b56:	687b      	ldr	r3, [r7, #4]
 8002b58:	6a5b      	ldr	r3, [r3, #36]	@ 0x24
 8002b5a:	2b00      	cmp	r3, #0
 8002b5c:	d108      	bne.n	8002b70 <HAL_SPI_Init+0x2c>
  {
    assert_param(IS_SPI_CPOL(hspi->Init.CLKPolarity));
    assert_param(IS_SPI_CPHA(hspi->Init.CLKPhase));

    if (hspi->Init.Mode == SPI_MODE_MASTER)
 8002b5e:	687b      	ldr	r3, [r7, #4]
 8002b60:	685b      	ldr	r3, [r3, #4]
 8002b62:	f5b3 7f82 	cmp.w	r3, #260	@ 0x104
 8002b66:	d009      	beq.n	8002b7c <HAL_SPI_Init+0x38>
      assert_param(IS_SPI_BAUDRATE_PRESCALER(hspi->Init.BaudRatePrescaler));
    }
    else
    {
      /* Baudrate prescaler not use in Motoraola Slave mode. force to default value */
      hspi->Init.BaudRatePrescaler = SPI_BAUDRATEPRESCALER_2;
 8002b68:	687b      	ldr	r3, [r7, #4]
 8002b6a:	2200      	movs	r2, #0
 8002b6c:	61da      	str	r2, [r3, #28]
 8002b6e:	e005      	b.n	8002b7c <HAL_SPI_Init+0x38>
  else
  {
    assert_param(IS_SPI_BAUDRATE_PRESCALER(hspi->Init.BaudRatePrescaler));

    /* Force polarity and phase to TI protocaol requirements */
    hspi->Init.CLKPolarity = SPI_POLARITY_LOW;
 8002b70:	687b      	ldr	r3, [r7, #4]
 8002b72:	2200      	movs	r2, #0
 8002b74:	611a      	str	r2, [r3, #16]
    hspi->Init.CLKPhase    = SPI_PHASE_1EDGE;
 8002b76:	687b      	ldr	r3, [r7, #4]
 8002b78:	2200      	movs	r2, #0
 8002b7a:	615a      	str	r2, [r3, #20]
  {
    assert_param(IS_SPI_CRC_POLYNOMIAL(hspi->Init.CRCPolynomial));
    assert_param(IS_SPI_CRC_LENGTH(hspi->Init.CRCLength));
  }
#else
  hspi->Init.CRCCalculation = SPI_CRCCALCULATION_DISABLE;
 8002b7c:	687b      	ldr	r3, [r7, #4]
 8002b7e:	2200      	movs	r2, #0
 8002b80:	629a      	str	r2, [r3, #40]	@ 0x28
#endif /* USE_SPI_CRC */

  if (hspi->State == HAL_SPI_STATE_RESET)
 8002b82:	687b      	ldr	r3, [r7, #4]
 8002b84:	f893 305d 	ldrb.w	r3, [r3, #93]	@ 0x5d
 8002b88:	b2db      	uxtb	r3, r3
 8002b8a:	2b00      	cmp	r3, #0
 8002b8c:	d106      	bne.n	8002b9c <HAL_SPI_Init+0x58>
  {
    /* Allocate lock resource and initialize it */
    hspi->Lock = HAL_UNLOCKED;
 8002b8e:	687b      	ldr	r3, [r7, #4]
 8002b90:	2200      	movs	r2, #0
 8002b92:	f883 205c 	strb.w	r2, [r3, #92]	@ 0x5c

    /* Init the low level hardware : GPIO, CLOCK, NVIC... */
    hspi->MspInitCallback(hspi);
#else
    /* Init the low level hardware : GPIO, CLOCK, NVIC... */
    HAL_SPI_MspInit(hspi);
 8002b96:	6878      	ldr	r0, [r7, #4]
 8002b98:	f7fd ff66 	bl	8000a68 <HAL_SPI_MspInit>
#endif /* USE_HAL_SPI_REGISTER_CALLBACKS */
  }

  hspi->State = HAL_SPI_STATE_BUSY;
 8002b9c:	687b      	ldr	r3, [r7, #4]
 8002b9e:	2202      	movs	r2, #2
 8002ba0:	f883 205d 	strb.w	r2, [r3, #93]	@ 0x5d

  /* Disable the selected SPI peripheral */
  __HAL_SPI_DISABLE(hspi);
 8002ba4:	687b      	ldr	r3, [r7, #4]
 8002ba6:	681b      	ldr	r3, [r3, #0]
 8002ba8:	681a      	ldr	r2, [r3, #0]
 8002baa:	687b      	ldr	r3, [r7, #4]
 8002bac:	681b      	ldr	r3, [r3, #0]
 8002bae:	f022 0240 	bic.w	r2, r2, #64	@ 0x40
 8002bb2:	601a      	str	r2, [r3, #0]

  /* Align by default the rs fifo threshold on the data size */
  if (hspi->Init.DataSize > SPI_DATASIZE_8BIT)
 8002bb4:	687b      	ldr	r3, [r7, #4]
 8002bb6:	68db      	ldr	r3, [r3, #12]
 8002bb8:	f5b3 6fe0 	cmp.w	r3, #1792	@ 0x700
 8002bbc:	d902      	bls.n	8002bc4 <HAL_SPI_Init+0x80>
  {
    frxth = SPI_RXFIFO_THRESHOLD_HF;
 8002bbe:	2300      	movs	r3, #0
 8002bc0:	60fb      	str	r3, [r7, #12]
 8002bc2:	e002      	b.n	8002bca <HAL_SPI_Init+0x86>
  }
  else
  {
    frxth = SPI_RXFIFO_THRESHOLD_QF;
 8002bc4:	f44f 5380 	mov.w	r3, #4096	@ 0x1000
 8002bc8:	60fb      	str	r3, [r7, #12]
  }

  /* CRC calculation is valid only for 16Bit and 8 Bit */
  if ((hspi->Init.DataSize != SPI_DATASIZE_16BIT) && (hspi->Init.DataSize != SPI_DATASIZE_8BIT))
 8002bca:	687b      	ldr	r3, [r7, #4]
 8002bcc:	68db      	ldr	r3, [r3, #12]
 8002bce:	f5b3 6f70 	cmp.w	r3, #3840	@ 0xf00
 8002bd2:	d007      	beq.n	8002be4 <HAL_SPI_Init+0xa0>
 8002bd4:	687b      	ldr	r3, [r7, #4]
 8002bd6:	68db      	ldr	r3, [r3, #12]
 8002bd8:	f5b3 6fe0 	cmp.w	r3, #1792	@ 0x700
 8002bdc:	d002      	beq.n	8002be4 <HAL_SPI_Init+0xa0>
  {
    /* CRC must be disabled */
    hspi->Init.CRCCalculation = SPI_CRCCALCULATION_DISABLE;
 8002bde:	687b      	ldr	r3, [r7, #4]
 8002be0:	2200      	movs	r2, #0
 8002be2:	629a      	str	r2, [r3, #40]	@ 0x28
  }

  /*----------------------- SPIx CR1 & CR2 Configuration ---------------------*/
  /* Configure : SPI Mode, Communication Mode, Clock polarity and phase, NSS management,
  Communication speed, First bit and CRC calculation state */
  WRITE_REG(hspi->Instance->CR1, ((hspi->Init.Mode & (SPI_CR1_MSTR | SPI_CR1_SSI)) |
 8002be4:	687b      	ldr	r3, [r7, #4]
 8002be6:	685b      	ldr	r3, [r3, #4]
 8002be8:	f403 7282 	and.w	r2, r3, #260	@ 0x104
 8002bec:	687b      	ldr	r3, [r7, #4]
 8002bee:	689b      	ldr	r3, [r3, #8]
 8002bf0:	f403 4304 	and.w	r3, r3, #33792	@ 0x8400
 8002bf4:	431a      	orrs	r2, r3
 8002bf6:	687b      	ldr	r3, [r7, #4]
 8002bf8:	691b      	ldr	r3, [r3, #16]
 8002bfa:	f003 0302 	and.w	r3, r3, #2
 8002bfe:	431a      	orrs	r2, r3
 8002c00:	687b      	ldr	r3, [r7, #4]
 8002c02:	695b      	ldr	r3, [r3, #20]
 8002c04:	f003 0301 	and.w	r3, r3, #1
 8002c08:	431a      	orrs	r2, r3
 8002c0a:	687b      	ldr	r3, [r7, #4]
 8002c0c:	699b      	ldr	r3, [r3, #24]
 8002c0e:	f403 7300 	and.w	r3, r3, #512	@ 0x200
 8002c12:	431a      	orrs	r2, r3
 8002c14:	687b      	ldr	r3, [r7, #4]
 8002c16:	69db      	ldr	r3, [r3, #28]
 8002c18:	f003 0338 	and.w	r3, r3, #56	@ 0x38
 8002c1c:	431a      	orrs	r2, r3
 8002c1e:	687b      	ldr	r3, [r7, #4]
 8002c20:	6a1b      	ldr	r3, [r3, #32]
 8002c22:	f003 0380 	and.w	r3, r3, #128	@ 0x80
 8002c26:	ea42 0103 	orr.w	r1, r2, r3
 8002c2a:	687b      	ldr	r3, [r7, #4]
 8002c2c:	6a9b      	ldr	r3, [r3, #40]	@ 0x28
 8002c2e:	f403 5200 	and.w	r2, r3, #8192	@ 0x2000
 8002c32:	687b      	ldr	r3, [r7, #4]
 8002c34:	681b      	ldr	r3, [r3, #0]
 8002c36:	430a      	orrs	r2, r1
 8002c38:	601a      	str	r2, [r3, #0]
    }
  }
#endif /* USE_SPI_CRC */

  /* Configure : NSS management, TI Mode, NSS Pulse, Data size and Rx Fifo threshold */
  WRITE_REG(hspi->Instance->CR2, (((hspi->Init.NSS >> 16U) & SPI_CR2_SSOE) |
 8002c3a:	687b      	ldr	r3, [r7, #4]
 8002c3c:	699b      	ldr	r3, [r3, #24]
 8002c3e:	0c1b      	lsrs	r3, r3, #16
 8002c40:	f003 0204 	and.w	r2, r3, #4
 8002c44:	687b      	ldr	r3, [r7, #4]
 8002c46:	6a5b      	ldr	r3, [r3, #36]	@ 0x24
 8002c48:	f003 0310 	and.w	r3, r3, #16
 8002c4c:	431a      	orrs	r2, r3
 8002c4e:	687b      	ldr	r3, [r7, #4]
 8002c50:	6b5b      	ldr	r3, [r3, #52]	@ 0x34
 8002c52:	f003 0308 	and.w	r3, r3, #8
 8002c56:	431a      	orrs	r2, r3
 8002c58:	687b      	ldr	r3, [r7, #4]
 8002c5a:	68db      	ldr	r3, [r3, #12]
 8002c5c:	f403 6370 	and.w	r3, r3, #3840	@ 0xf00
 8002c60:	ea42 0103 	orr.w	r1, r2, r3
 8002c64:	68fb      	ldr	r3, [r7, #12]
 8002c66:	f403 5280 	and.w	r2, r3, #4096	@ 0x1000
 8002c6a:	687b      	ldr	r3, [r7, #4]
 8002c6c:	681b      	ldr	r3, [r3, #0]
 8002c6e:	430a      	orrs	r2, r1
 8002c70:	605a      	str	r2, [r3, #4]
#if defined(SPI_I2SCFGR_I2SMOD)
  /* Activate the SPI mode (Make sure that I2SMOD bit in I2SCFGR register is reset) */
  CLEAR_BIT(hspi->Instance->I2SCFGR, SPI_I2SCFGR_I2SMOD);
#endif /* SPI_I2SCFGR_I2SMOD */

  hspi->ErrorCode = HAL_SPI_ERROR_NONE;
 8002c72:	687b      	ldr	r3, [r7, #4]
 8002c74:	2200      	movs	r2, #0
 8002c76:	661a      	str	r2, [r3, #96]	@ 0x60
  hspi->State     = HAL_SPI_STATE_READY;
 8002c78:	687b      	ldr	r3, [r7, #4]
 8002c7a:	2201      	movs	r2, #1
 8002c7c:	f883 205d 	strb.w	r2, [r3, #93]	@ 0x5d

  return HAL_OK;
 8002c80:	2300      	movs	r3, #0
}
 8002c82:	4618      	mov	r0, r3
 8002c84:	3710      	adds	r7, #16
 8002c86:	46bd      	mov	sp, r7
 8002c88:	bd80      	pop	{r7, pc}

08002c8a <HAL_SPI_Transmit>:
  * @param  Size amount of data elements (u8 or u16) to be sent
  * @param  Timeout Timeout duration in ms
  * @retval HAL status
  */
HAL_StatusTypeDef HAL_SPI_Transmit(SPI_HandleTypeDef *hspi, const uint8_t *pData, uint16_t Size, uint32_t Timeout)
{
 8002c8a:	b580      	push	{r7, lr}
 8002c8c:	b088      	sub	sp, #32
 8002c8e:	af00      	add	r7, sp, #0
 8002c90:	60f8      	str	r0, [r7, #12]
 8002c92:	60b9      	str	r1, [r7, #8]
 8002c94:	603b      	str	r3, [r7, #0]
 8002c96:	4613      	mov	r3, r2
 8002c98:	80fb      	strh	r3, [r7, #6]

  /* Check Direction parameter */
  assert_param(IS_SPI_DIRECTION_2LINES_OR_1LINE(hspi->Init.Direction));

  /* Init tickstart for timeout management*/
  tickstart = HAL_GetTick();
 8002c9a:	f7fe f8ff 	bl	8000e9c <HAL_GetTick>
 8002c9e:	61f8      	str	r0, [r7, #28]
  initial_TxXferCount = Size;
 8002ca0:	88fb      	ldrh	r3, [r7, #6]
 8002ca2:	837b      	strh	r3, [r7, #26]

  if (hspi->State != HAL_SPI_STATE_READY)
 8002ca4:	68fb      	ldr	r3, [r7, #12]
 8002ca6:	f893 305d 	ldrb.w	r3, [r3, #93]	@ 0x5d
 8002caa:	b2db      	uxtb	r3, r3
 8002cac:	2b01      	cmp	r3, #1
 8002cae:	d001      	beq.n	8002cb4 <HAL_SPI_Transmit+0x2a>
  {
    return HAL_BUSY;
 8002cb0:	2302      	movs	r3, #2
 8002cb2:	e15c      	b.n	8002f6e <HAL_SPI_Transmit+0x2e4>
  }

  if ((pData == NULL) || (Size == 0U))
 8002cb4:	68bb      	ldr	r3, [r7, #8]
 8002cb6:	2b00      	cmp	r3, #0
 8002cb8:	d002      	beq.n	8002cc0 <HAL_SPI_Transmit+0x36>
 8002cba:	88fb      	ldrh	r3, [r7, #6]
 8002cbc:	2b00      	cmp	r3, #0
 8002cbe:	d101      	bne.n	8002cc4 <HAL_SPI_Transmit+0x3a>
  {
    return HAL_ERROR;
 8002cc0:	2301      	movs	r3, #1
 8002cc2:	e154      	b.n	8002f6e <HAL_SPI_Transmit+0x2e4>
  }

  /* Process Locked */
  __HAL_LOCK(hspi);
 8002cc4:	68fb      	ldr	r3, [r7, #12]
 8002cc6:	f893 305c 	ldrb.w	r3, [r3, #92]	@ 0x5c
 8002cca:	2b01      	cmp	r3, #1
 8002ccc:	d101      	bne.n	8002cd2 <HAL_SPI_Transmit+0x48>
 8002cce:	2302      	movs	r3, #2
 8002cd0:	e14d      	b.n	8002f6e <HAL_SPI_Transmit+0x2e4>
 8002cd2:	68fb      	ldr	r3, [r7, #12]
 8002cd4:	2201      	movs	r2, #1
 8002cd6:	f883 205c 	strb.w	r2, [r3, #92]	@ 0x5c

  /* Set the transaction information */
  hspi->State       = HAL_SPI_STATE_BUSY_TX;
 8002cda:	68fb      	ldr	r3, [r7, #12]
 8002cdc:	2203      	movs	r2, #3
 8002cde:	f883 205d 	strb.w	r2, [r3, #93]	@ 0x5d
  hspi->ErrorCode   = HAL_SPI_ERROR_NONE;
 8002ce2:	68fb      	ldr	r3, [r7, #12]
 8002ce4:	2200      	movs	r2, #0
 8002ce6:	661a      	str	r2, [r3, #96]	@ 0x60
  hspi->pTxBuffPtr  = (const uint8_t *)pData;
 8002ce8:	68fb      	ldr	r3, [r7, #12]
 8002cea:	68ba      	ldr	r2, [r7, #8]
 8002cec:	639a      	str	r2, [r3, #56]	@ 0x38
  hspi->TxXferSize  = Size;
 8002cee:	68fb      	ldr	r3, [r7, #12]
 8002cf0:	88fa      	ldrh	r2, [r7, #6]
 8002cf2:	879a      	strh	r2, [r3, #60]	@ 0x3c
  hspi->TxXferCount = Size;
 8002cf4:	68fb      	ldr	r3, [r7, #12]
 8002cf6:	88fa      	ldrh	r2, [r7, #6]
 8002cf8:	87da      	strh	r2, [r3, #62]	@ 0x3e

  /*Init field not used in handle to zero */
  hspi->pRxBuffPtr  = (uint8_t *)NULL;
 8002cfa:	68fb      	ldr	r3, [r7, #12]
 8002cfc:	2200      	movs	r2, #0
 8002cfe:	641a      	str	r2, [r3, #64]	@ 0x40
  hspi->RxXferSize  = 0U;
 8002d00:	68fb      	ldr	r3, [r7, #12]
 8002d02:	2200      	movs	r2, #0
 8002d04:	f8a3 2044 	strh.w	r2, [r3, #68]	@ 0x44
  hspi->RxXferCount = 0U;
 8002d08:	68fb      	ldr	r3, [r7, #12]
 8002d0a:	2200      	movs	r2, #0
 8002d0c:	f8a3 2046 	strh.w	r2, [r3, #70]	@ 0x46
  hspi->TxISR       = NULL;
 8002d10:	68fb      	ldr	r3, [r7, #12]
 8002d12:	2200      	movs	r2, #0
 8002d14:	651a      	str	r2, [r3, #80]	@ 0x50
  hspi->RxISR       = NULL;
 8002d16:	68fb      	ldr	r3, [r7, #12]
 8002d18:	2200      	movs	r2, #0
 8002d1a:	64da      	str	r2, [r3, #76]	@ 0x4c

  /* Configure communication direction : 1Line */
  if (hspi->Init.Direction == SPI_DIRECTION_1LINE)
 8002d1c:	68fb      	ldr	r3, [r7, #12]
 8002d1e:	689b      	ldr	r3, [r3, #8]
 8002d20:	f5b3 4f00 	cmp.w	r3, #32768	@ 0x8000
 8002d24:	d10f      	bne.n	8002d46 <HAL_SPI_Transmit+0xbc>
  {
    /* Disable SPI Peripheral before set 1Line direction (BIDIOE bit) */
    __HAL_SPI_DISABLE(hspi);
 8002d26:	68fb      	ldr	r3, [r7, #12]
 8002d28:	681b      	ldr	r3, [r3, #0]
 8002d2a:	681a      	ldr	r2, [r3, #0]
 8002d2c:	68fb      	ldr	r3, [r7, #12]
 8002d2e:	681b      	ldr	r3, [r3, #0]
 8002d30:	f022 0240 	bic.w	r2, r2, #64	@ 0x40
 8002d34:	601a      	str	r2, [r3, #0]
    SPI_1LINE_TX(hspi);
 8002d36:	68fb      	ldr	r3, [r7, #12]
 8002d38:	681b      	ldr	r3, [r3, #0]
 8002d3a:	681a      	ldr	r2, [r3, #0]
 8002d3c:	68fb      	ldr	r3, [r7, #12]
 8002d3e:	681b      	ldr	r3, [r3, #0]
 8002d40:	f442 4280 	orr.w	r2, r2, #16384	@ 0x4000
 8002d44:	601a      	str	r2, [r3, #0]
    SPI_RESET_CRC(hspi);
  }
#endif /* USE_SPI_CRC */

  /* Check if the SPI is already enabled */
  if ((hspi->Instance->CR1 & SPI_CR1_SPE) != SPI_CR1_SPE)
 8002d46:	68fb      	ldr	r3, [r7, #12]
 8002d48:	681b      	ldr	r3, [r3, #0]
 8002d4a:	681b      	ldr	r3, [r3, #0]
 8002d4c:	f003 0340 	and.w	r3, r3, #64	@ 0x40
 8002d50:	2b40      	cmp	r3, #64	@ 0x40
 8002d52:	d007      	beq.n	8002d64 <HAL_SPI_Transmit+0xda>
  {
    /* Enable SPI peripheral */
    __HAL_SPI_ENABLE(hspi);
 8002d54:	68fb      	ldr	r3, [r7, #12]
 8002d56:	681b      	ldr	r3, [r3, #0]
 8002d58:	681a      	ldr	r2, [r3, #0]
 8002d5a:	68fb      	ldr	r3, [r7, #12]
 8002d5c:	681b      	ldr	r3, [r3, #0]
 8002d5e:	f042 0240 	orr.w	r2, r2, #64	@ 0x40
 8002d62:	601a      	str	r2, [r3, #0]
  }

  /* Transmit data in 16 Bit mode */
  if (hspi->Init.DataSize > SPI_DATASIZE_8BIT)
 8002d64:	68fb      	ldr	r3, [r7, #12]
 8002d66:	68db      	ldr	r3, [r3, #12]
 8002d68:	f5b3 6fe0 	cmp.w	r3, #1792	@ 0x700
 8002d6c:	d952      	bls.n	8002e14 <HAL_SPI_Transmit+0x18a>
  {
    if ((hspi->Init.Mode == SPI_MODE_SLAVE) || (initial_TxXferCount == 0x01U))
 8002d6e:	68fb      	ldr	r3, [r7, #12]
 8002d70:	685b      	ldr	r3, [r3, #4]
 8002d72:	2b00      	cmp	r3, #0
 8002d74:	d002      	beq.n	8002d7c <HAL_SPI_Transmit+0xf2>
 8002d76:	8b7b      	ldrh	r3, [r7, #26]
 8002d78:	2b01      	cmp	r3, #1
 8002d7a:	d145      	bne.n	8002e08 <HAL_SPI_Transmit+0x17e>
    {
      hspi->Instance->DR = *((const uint16_t *)hspi->pTxBuffPtr);
 8002d7c:	68fb      	ldr	r3, [r7, #12]
 8002d7e:	6b9b      	ldr	r3, [r3, #56]	@ 0x38
 8002d80:	881a      	ldrh	r2, [r3, #0]
 8002d82:	68fb      	ldr	r3, [r7, #12]
 8002d84:	681b      	ldr	r3, [r3, #0]
 8002d86:	60da      	str	r2, [r3, #12]
      hspi->pTxBuffPtr += sizeof(uint16_t);
 8002d88:	68fb      	ldr	r3, [r7, #12]
 8002d8a:	6b9b      	ldr	r3, [r3, #56]	@ 0x38
 8002d8c:	1c9a      	adds	r2, r3, #2
 8002d8e:	68fb      	ldr	r3, [r7, #12]
 8002d90:	639a      	str	r2, [r3, #56]	@ 0x38
      hspi->TxXferCount--;
 8002d92:	68fb      	ldr	r3, [r7, #12]
 8002d94:	8fdb      	ldrh	r3, [r3, #62]	@ 0x3e
 8002d96:	b29b      	uxth	r3, r3
 8002d98:	3b01      	subs	r3, #1
 8002d9a:	b29a      	uxth	r2, r3
 8002d9c:	68fb      	ldr	r3, [r7, #12]
 8002d9e:	87da      	strh	r2, [r3, #62]	@ 0x3e
    }
    /* Transmit data in 16 Bit mode */
    while (hspi->TxXferCount > 0U)
 8002da0:	e032      	b.n	8002e08 <HAL_SPI_Transmit+0x17e>
    {
      /* Wait until TXE flag is set to send data */
      if (__HAL_SPI_GET_FLAG(hspi, SPI_FLAG_TXE))
 8002da2:	68fb      	ldr	r3, [r7, #12]
 8002da4:	681b      	ldr	r3, [r3, #0]
 8002da6:	689b      	ldr	r3, [r3, #8]
 8002da8:	f003 0302 	and.w	r3, r3, #2
 8002dac:	2b02      	cmp	r3, #2
 8002dae:	d112      	bne.n	8002dd6 <HAL_SPI_Transmit+0x14c>
      {
        hspi->Instance->DR = *((const uint16_t *)hspi->pTxBuffPtr);
 8002db0:	68fb      	ldr	r3, [r7, #12]
 8002db2:	6b9b      	ldr	r3, [r3, #56]	@ 0x38
 8002db4:	881a      	ldrh	r2, [r3, #0]
 8002db6:	68fb      	ldr	r3, [r7, #12]
 8002db8:	681b      	ldr	r3, [r3, #0]
 8002dba:	60da      	str	r2, [r3, #12]
        hspi->pTxBuffPtr += sizeof(uint16_t);
 8002dbc:	68fb      	ldr	r3, [r7, #12]
 8002dbe:	6b9b      	ldr	r3, [r3, #56]	@ 0x38
 8002dc0:	1c9a      	adds	r2, r3, #2
 8002dc2:	68fb      	ldr	r3, [r7, #12]
 8002dc4:	639a      	str	r2, [r3, #56]	@ 0x38
        hspi->TxXferCount--;
 8002dc6:	68fb      	ldr	r3, [r7, #12]
 8002dc8:	8fdb      	ldrh	r3, [r3, #62]	@ 0x3e
 8002dca:	b29b      	uxth	r3, r3
 8002dcc:	3b01      	subs	r3, #1
 8002dce:	b29a      	uxth	r2, r3
 8002dd0:	68fb      	ldr	r3, [r7, #12]
 8002dd2:	87da      	strh	r2, [r3, #62]	@ 0x3e
 8002dd4:	e018      	b.n	8002e08 <HAL_SPI_Transmit+0x17e>
      }
      else
      {
        /* Timeout management */
        if ((((HAL_GetTick() - tickstart) >=  Timeout) && (Timeout != HAL_MAX_DELAY)) || (Timeout == 0U))
 8002dd6:	f7fe f861 	bl	8000e9c <HAL_GetTick>
 8002dda:	4602      	mov	r2, r0
 8002ddc:	69fb      	ldr	r3, [r7, #28]
 8002dde:	1ad3      	subs	r3, r2, r3
 8002de0:	683a      	ldr	r2, [r7, #0]
 8002de2:	429a      	cmp	r2, r3
 8002de4:	d803      	bhi.n	8002dee <HAL_SPI_Transmit+0x164>
 8002de6:	683b      	ldr	r3, [r7, #0]
 8002de8:	f1b3 3fff 	cmp.w	r3, #4294967295
 8002dec:	d102      	bne.n	8002df4 <HAL_SPI_Transmit+0x16a>
 8002dee:	683b      	ldr	r3, [r7, #0]
 8002df0:	2b00      	cmp	r3, #0
 8002df2:	d109      	bne.n	8002e08 <HAL_SPI_Transmit+0x17e>
        {
          hspi->State = HAL_SPI_STATE_READY;
 8002df4:	68fb      	ldr	r3, [r7, #12]
 8002df6:	2201      	movs	r2, #1
 8002df8:	f883 205d 	strb.w	r2, [r3, #93]	@ 0x5d
          __HAL_UNLOCK(hspi);
 8002dfc:	68fb      	ldr	r3, [r7, #12]
 8002dfe:	2200      	movs	r2, #0
 8002e00:	f883 205c 	strb.w	r2, [r3, #92]	@ 0x5c
          return HAL_TIMEOUT;
 8002e04:	2303      	movs	r3, #3
 8002e06:	e0b2      	b.n	8002f6e <HAL_SPI_Transmit+0x2e4>
    while (hspi->TxXferCount > 0U)
 8002e08:	68fb      	ldr	r3, [r7, #12]
 8002e0a:	8fdb      	ldrh	r3, [r3, #62]	@ 0x3e
 8002e0c:	b29b      	uxth	r3, r3
 8002e0e:	2b00      	cmp	r3, #0
 8002e10:	d1c7      	bne.n	8002da2 <HAL_SPI_Transmit+0x118>
 8002e12:	e083      	b.n	8002f1c <HAL_SPI_Transmit+0x292>
    }
  }
  /* Transmit data in 8 Bit mode */
  else
  {
    if ((hspi->Init.Mode == SPI_MODE_SLAVE) || (initial_TxXferCount == 0x01U))
 8002e14:	68fb      	ldr	r3, [r7, #12]
 8002e16:	685b      	ldr	r3, [r3, #4]
 8002e18:	2b00      	cmp	r3, #0
 8002e1a:	d002      	beq.n	8002e22 <HAL_SPI_Transmit+0x198>
 8002e1c:	8b7b      	ldrh	r3, [r7, #26]
 8002e1e:	2b01      	cmp	r3, #1
 8002e20:	d177      	bne.n	8002f12 <HAL_SPI_Transmit+0x288>
    {
      if (hspi->TxXferCount > 1U)
 8002e22:	68fb      	ldr	r3, [r7, #12]
 8002e24:	8fdb      	ldrh	r3, [r3, #62]	@ 0x3e
 8002e26:	b29b      	uxth	r3, r3
 8002e28:	2b01      	cmp	r3, #1
 8002e2a:	d912      	bls.n	8002e52 <HAL_SPI_Transmit+0x1c8>
      {
        /* write on the data register in packing mode */
        hspi->Instance->DR = *((const uint16_t *)hspi->pTxBuffPtr);
 8002e2c:	68fb      	ldr	r3, [r7, #12]
 8002e2e:	6b9b      	ldr	r3, [r3, #56]	@ 0x38
 8002e30:	881a      	ldrh	r2, [r3, #0]
 8002e32:	68fb      	ldr	r3, [r7, #12]
 8002e34:	681b      	ldr	r3, [r3, #0]
 8002e36:	60da      	str	r2, [r3, #12]
        hspi->pTxBuffPtr += sizeof(uint16_t);
 8002e38:	68fb      	ldr	r3, [r7, #12]
 8002e3a:	6b9b      	ldr	r3, [r3, #56]	@ 0x38
 8002e3c:	1c9a      	adds	r2, r3, #2
 8002e3e:	68fb      	ldr	r3, [r7, #12]
 8002e40:	639a      	str	r2, [r3, #56]	@ 0x38
        hspi->TxXferCount -= 2U;
 8002e42:	68fb      	ldr	r3, [r7, #12]
 8002e44:	8fdb      	ldrh	r3, [r3, #62]	@ 0x3e
 8002e46:	b29b      	uxth	r3, r3
 8002e48:	3b02      	subs	r3, #2
 8002e4a:	b29a      	uxth	r2, r3
 8002e4c:	68fb      	ldr	r3, [r7, #12]
 8002e4e:	87da      	strh	r2, [r3, #62]	@ 0x3e
 8002e50:	e05f      	b.n	8002f12 <HAL_SPI_Transmit+0x288>
      }
      else
      {
        *((__IO uint8_t *)&hspi->Instance->DR) = *((const uint8_t *)hspi->pTxBuffPtr);
 8002e52:	68fb      	ldr	r3, [r7, #12]
 8002e54:	6b9a      	ldr	r2, [r3, #56]	@ 0x38
 8002e56:	68fb      	ldr	r3, [r7, #12]
 8002e58:	681b      	ldr	r3, [r3, #0]
 8002e5a:	330c      	adds	r3, #12
 8002e5c:	7812      	ldrb	r2, [r2, #0]
 8002e5e:	701a      	strb	r2, [r3, #0]
        hspi->pTxBuffPtr ++;
 8002e60:	68fb      	ldr	r3, [r7, #12]
 8002e62:	6b9b      	ldr	r3, [r3, #56]	@ 0x38
 8002e64:	1c5a      	adds	r2, r3, #1
 8002e66:	68fb      	ldr	r3, [r7, #12]
 8002e68:	639a      	str	r2, [r3, #56]	@ 0x38
        hspi->TxXferCount--;
 8002e6a:	68fb      	ldr	r3, [r7, #12]
 8002e6c:	8fdb      	ldrh	r3, [r3, #62]	@ 0x3e
 8002e6e:	b29b      	uxth	r3, r3
 8002e70:	3b01      	subs	r3, #1
 8002e72:	b29a      	uxth	r2, r3
 8002e74:	68fb      	ldr	r3, [r7, #12]
 8002e76:	87da      	strh	r2, [r3, #62]	@ 0x3e
      }
    }
    while (hspi->TxXferCount > 0U)
 8002e78:	e04b      	b.n	8002f12 <HAL_SPI_Transmit+0x288>
    {
      /* Wait until TXE flag is set to send data */
      if (__HAL_SPI_GET_FLAG(hspi, SPI_FLAG_TXE))
 8002e7a:	68fb      	ldr	r3, [r7, #12]
 8002e7c:	681b      	ldr	r3, [r3, #0]
 8002e7e:	689b      	ldr	r3, [r3, #8]
 8002e80:	f003 0302 	and.w	r3, r3, #2
 8002e84:	2b02      	cmp	r3, #2
 8002e86:	d12b      	bne.n	8002ee0 <HAL_SPI_Transmit+0x256>
      {
        if (hspi->TxXferCount > 1U)
 8002e88:	68fb      	ldr	r3, [r7, #12]
 8002e8a:	8fdb      	ldrh	r3, [r3, #62]	@ 0x3e
 8002e8c:	b29b      	uxth	r3, r3
 8002e8e:	2b01      	cmp	r3, #1
 8002e90:	d912      	bls.n	8002eb8 <HAL_SPI_Transmit+0x22e>
        {
          /* write on the data register in packing mode */
          hspi->Instance->DR = *((const uint16_t *)hspi->pTxBuffPtr);
 8002e92:	68fb      	ldr	r3, [r7, #12]
 8002e94:	6b9b      	ldr	r3, [r3, #56]	@ 0x38
 8002e96:	881a      	ldrh	r2, [r3, #0]
 8002e98:	68fb      	ldr	r3, [r7, #12]
 8002e9a:	681b      	ldr	r3, [r3, #0]
 8002e9c:	60da      	str	r2, [r3, #12]
          hspi->pTxBuffPtr += sizeof(uint16_t);
 8002e9e:	68fb      	ldr	r3, [r7, #12]
 8002ea0:	6b9b      	ldr	r3, [r3, #56]	@ 0x38
 8002ea2:	1c9a      	adds	r2, r3, #2
 8002ea4:	68fb      	ldr	r3, [r7, #12]
 8002ea6:	639a      	str	r2, [r3, #56]	@ 0x38
          hspi->TxXferCount -= 2U;
 8002ea8:	68fb      	ldr	r3, [r7, #12]
 8002eaa:	8fdb      	ldrh	r3, [r3, #62]	@ 0x3e
 8002eac:	b29b      	uxth	r3, r3
 8002eae:	3b02      	subs	r3, #2
 8002eb0:	b29a      	uxth	r2, r3
 8002eb2:	68fb      	ldr	r3, [r7, #12]
 8002eb4:	87da      	strh	r2, [r3, #62]	@ 0x3e
 8002eb6:	e02c      	b.n	8002f12 <HAL_SPI_Transmit+0x288>
        }
        else
        {
          *((__IO uint8_t *)&hspi->Instance->DR) = *((const uint8_t *)hspi->pTxBuffPtr);
 8002eb8:	68fb      	ldr	r3, [r7, #12]
 8002eba:	6b9a      	ldr	r2, [r3, #56]	@ 0x38
 8002ebc:	68fb      	ldr	r3, [r7, #12]
 8002ebe:	681b      	ldr	r3, [r3, #0]
 8002ec0:	330c      	adds	r3, #12
 8002ec2:	7812      	ldrb	r2, [r2, #0]
 8002ec4:	701a      	strb	r2, [r3, #0]
          hspi->pTxBuffPtr++;
 8002ec6:	68fb      	ldr	r3, [r7, #12]
 8002ec8:	6b9b      	ldr	r3, [r3, #56]	@ 0x38
 8002eca:	1c5a      	adds	r2, r3, #1
 8002ecc:	68fb      	ldr	r3, [r7, #12]
 8002ece:	639a      	str	r2, [r3, #56]	@ 0x38
          hspi->TxXferCount--;
 8002ed0:	68fb      	ldr	r3, [r7, #12]
 8002ed2:	8fdb      	ldrh	r3, [r3, #62]	@ 0x3e
 8002ed4:	b29b      	uxth	r3, r3
 8002ed6:	3b01      	subs	r3, #1
 8002ed8:	b29a      	uxth	r2, r3
 8002eda:	68fb      	ldr	r3, [r7, #12]
 8002edc:	87da      	strh	r2, [r3, #62]	@ 0x3e
 8002ede:	e018      	b.n	8002f12 <HAL_SPI_Transmit+0x288>
        }
      }
      else
      {
        /* Timeout management */
        if ((((HAL_GetTick() - tickstart) >=  Timeout) && (Timeout != HAL_MAX_DELAY)) || (Timeout == 0U))
 8002ee0:	f7fd ffdc 	bl	8000e9c <HAL_GetTick>
 8002ee4:	4602      	mov	r2, r0
 8002ee6:	69fb      	ldr	r3, [r7, #28]
 8002ee8:	1ad3      	subs	r3, r2, r3
 8002eea:	683a      	ldr	r2, [r7, #0]
 8002eec:	429a      	cmp	r2, r3
 8002eee:	d803      	bhi.n	8002ef8 <HAL_SPI_Transmit+0x26e>
 8002ef0:	683b      	ldr	r3, [r7, #0]
 8002ef2:	f1b3 3fff 	cmp.w	r3, #4294967295
 8002ef6:	d102      	bne.n	8002efe <HAL_SPI_Transmit+0x274>
 8002ef8:	683b      	ldr	r3, [r7, #0]
 8002efa:	2b00      	cmp	r3, #0
 8002efc:	d109      	bne.n	8002f12 <HAL_SPI_Transmit+0x288>
        {
          hspi->State = HAL_SPI_STATE_READY;
 8002efe:	68fb      	ldr	r3, [r7, #12]
 8002f00:	2201      	movs	r2, #1
 8002f02:	f883 205d 	strb.w	r2, [r3, #93]	@ 0x5d
          __HAL_UNLOCK(hspi);
 8002f06:	68fb      	ldr	r3, [r7, #12]
 8002f08:	2200      	movs	r2, #0
 8002f0a:	f883 205c 	strb.w	r2, [r3, #92]	@ 0x5c
          return HAL_TIMEOUT;
 8002f0e:	2303      	movs	r3, #3
 8002f10:	e02d      	b.n	8002f6e <HAL_SPI_Transmit+0x2e4>
    while (hspi->TxXferCount > 0U)
 8002f12:	68fb      	ldr	r3, [r7, #12]
 8002f14:	8fdb      	ldrh	r3, [r3, #62]	@ 0x3e
 8002f16:	b29b      	uxth	r3, r3
 8002f18:	2b00      	cmp	r3, #0
 8002f1a:	d1ae      	bne.n	8002e7a <HAL_SPI_Transmit+0x1f0>
    SET_BIT(hspi->Instance->CR1, SPI_CR1_CRCNEXT);
  }
#endif /* USE_SPI_CRC */

  /* Check the end of the transaction */
  if (SPI_EndRxTxTransaction(hspi, Timeout, tickstart) != HAL_OK)
 8002f1c:	69fa      	ldr	r2, [r7, #28]
 8002f1e:	6839      	ldr	r1, [r7, #0]
 8002f20:	68f8      	ldr	r0, [r7, #12]
 8002f22:	f000 f947 	bl	80031b4 <SPI_EndRxTxTransaction>
 8002f26:	4603      	mov	r3, r0
 8002f28:	2b00      	cmp	r3, #0
 8002f2a:	d002      	beq.n	8002f32 <HAL_SPI_Transmit+0x2a8>
  {
    hspi->ErrorCode = HAL_SPI_ERROR_FLAG;
 8002f2c:	68fb      	ldr	r3, [r7, #12]
 8002f2e:	2220      	movs	r2, #32
 8002f30:	661a      	str	r2, [r3, #96]	@ 0x60
  }

  /* Clear overrun flag in 2 Lines communication mode because received is not read */
  if (hspi->Init.Direction == SPI_DIRECTION_2LINES)
 8002f32:	68fb      	ldr	r3, [r7, #12]
 8002f34:	689b      	ldr	r3, [r3, #8]
 8002f36:	2b00      	cmp	r3, #0
 8002f38:	d10a      	bne.n	8002f50 <HAL_SPI_Transmit+0x2c6>
  {
    __HAL_SPI_CLEAR_OVRFLAG(hspi);
 8002f3a:	2300      	movs	r3, #0
 8002f3c:	617b      	str	r3, [r7, #20]
 8002f3e:	68fb      	ldr	r3, [r7, #12]
 8002f40:	681b      	ldr	r3, [r3, #0]
 8002f42:	68db      	ldr	r3, [r3, #12]
 8002f44:	617b      	str	r3, [r7, #20]
 8002f46:	68fb      	ldr	r3, [r7, #12]
 8002f48:	681b      	ldr	r3, [r3, #0]
 8002f4a:	689b      	ldr	r3, [r3, #8]
 8002f4c:	617b      	str	r3, [r7, #20]
 8002f4e:	697b      	ldr	r3, [r7, #20]
  }

  hspi->State = HAL_SPI_STATE_READY;
 8002f50:	68fb      	ldr	r3, [r7, #12]
 8002f52:	2201      	movs	r2, #1
 8002f54:	f883 205d 	strb.w	r2, [r3, #93]	@ 0x5d
  /* Process Unlocked */
  __HAL_UNLOCK(hspi);
 8002f58:	68fb      	ldr	r3, [r7, #12]
 8002f5a:	2200      	movs	r2, #0
 8002f5c:	f883 205c 	strb.w	r2, [r3, #92]	@ 0x5c

  if (hspi->ErrorCode != HAL_SPI_ERROR_NONE)
 8002f60:	68fb      	ldr	r3, [r7, #12]
 8002f62:	6e1b      	ldr	r3, [r3, #96]	@ 0x60
 8002f64:	2b00      	cmp	r3, #0
 8002f66:	d001      	beq.n	8002f6c <HAL_SPI_Transmit+0x2e2>
  {
    return HAL_ERROR;
 8002f68:	2301      	movs	r3, #1
 8002f6a:	e000      	b.n	8002f6e <HAL_SPI_Transmit+0x2e4>
  }
  else
  {
    return HAL_OK;
 8002f6c:	2300      	movs	r3, #0
  }
}
 8002f6e:	4618      	mov	r0, r3
 8002f70:	3720      	adds	r7, #32
 8002f72:	46bd      	mov	sp, r7
 8002f74:	bd80      	pop	{r7, pc}
	...

08002f78 <SPI_WaitFlagStateUntilTimeout>:
  * @param  Tickstart tick start value
  * @retval HAL status
  */
static HAL_StatusTypeDef SPI_WaitFlagStateUntilTimeout(SPI_HandleTypeDef *hspi, uint32_t Flag, FlagStatus State,
                                                       uint32_t Timeout, uint32_t Tickstart)
{
 8002f78:	b580      	push	{r7, lr}
 8002f7a:	b088      	sub	sp, #32
 8002f7c:	af00      	add	r7, sp, #0
 8002f7e:	60f8      	str	r0, [r7, #12]
 8002f80:	60b9      	str	r1, [r7, #8]
 8002f82:	603b      	str	r3, [r7, #0]
 8002f84:	4613      	mov	r3, r2
 8002f86:	71fb      	strb	r3, [r7, #7]
  __IO uint32_t count;
  uint32_t tmp_timeout;
  uint32_t tmp_tickstart;

  /* Adjust Timeout value  in case of end of transfer */
  tmp_timeout   = Timeout - (HAL_GetTick() - Tickstart);
 8002f88:	f7fd ff88 	bl	8000e9c <HAL_GetTick>
 8002f8c:	4602      	mov	r2, r0
 8002f8e:	6abb      	ldr	r3, [r7, #40]	@ 0x28
 8002f90:	1a9b      	subs	r3, r3, r2
 8002f92:	683a      	ldr	r2, [r7, #0]
 8002f94:	4413      	add	r3, r2
 8002f96:	61fb      	str	r3, [r7, #28]
  tmp_tickstart = HAL_GetTick();
 8002f98:	f7fd ff80 	bl	8000e9c <HAL_GetTick>
 8002f9c:	61b8      	str	r0, [r7, #24]

  /* Calculate Timeout based on a software loop to avoid blocking issue if Systick is disabled */
  count = tmp_timeout * ((SystemCoreClock * 32U) >> 20U);
 8002f9e:	4b39      	ldr	r3, [pc, #228]	@ (8003084 <SPI_WaitFlagStateUntilTimeout+0x10c>)
 8002fa0:	681b      	ldr	r3, [r3, #0]
 8002fa2:	015b      	lsls	r3, r3, #5
 8002fa4:	0d1b      	lsrs	r3, r3, #20
 8002fa6:	69fa      	ldr	r2, [r7, #28]
 8002fa8:	fb02 f303 	mul.w	r3, r2, r3
 8002fac:	617b      	str	r3, [r7, #20]

  while ((__HAL_SPI_GET_FLAG(hspi, Flag) ? SET : RESET) != State)
 8002fae:	e055      	b.n	800305c <SPI_WaitFlagStateUntilTimeout+0xe4>
  {
    if (Timeout != HAL_MAX_DELAY)
 8002fb0:	683b      	ldr	r3, [r7, #0]
 8002fb2:	f1b3 3fff 	cmp.w	r3, #4294967295
 8002fb6:	d051      	beq.n	800305c <SPI_WaitFlagStateUntilTimeout+0xe4>
    {
      if (((HAL_GetTick() - tmp_tickstart) >= tmp_timeout) || (tmp_timeout == 0U))
 8002fb8:	f7fd ff70 	bl	8000e9c <HAL_GetTick>
 8002fbc:	4602      	mov	r2, r0
 8002fbe:	69bb      	ldr	r3, [r7, #24]
 8002fc0:	1ad3      	subs	r3, r2, r3
 8002fc2:	69fa      	ldr	r2, [r7, #28]
 8002fc4:	429a      	cmp	r2, r3
 8002fc6:	d902      	bls.n	8002fce <SPI_WaitFlagStateUntilTimeout+0x56>
 8002fc8:	69fb      	ldr	r3, [r7, #28]
 8002fca:	2b00      	cmp	r3, #0
 8002fcc:	d13d      	bne.n	800304a <SPI_WaitFlagStateUntilTimeout+0xd2>
        /* Disable the SPI and reset the CRC: the CRC value should be cleared
           on both master and slave sides in order to resynchronize the master
           and slave for their respective CRC calculation */

        /* Disable TXE, RXNE and ERR interrupts for the interrupt process */
        __HAL_SPI_DISABLE_IT(hspi, (SPI_IT_TXE | SPI_IT_RXNE | SPI_IT_ERR));
 8002fce:	68fb      	ldr	r3, [r7, #12]
 8002fd0:	681b      	ldr	r3, [r3, #0]
 8002fd2:	685a      	ldr	r2, [r3, #4]
 8002fd4:	68fb      	ldr	r3, [r7, #12]
 8002fd6:	681b      	ldr	r3, [r3, #0]
 8002fd8:	f022 02e0 	bic.w	r2, r2, #224	@ 0xe0
 8002fdc:	605a      	str	r2, [r3, #4]

        if ((hspi->Init.Mode == SPI_MODE_MASTER) && ((hspi->Init.Direction == SPI_DIRECTION_1LINE)
 8002fde:	68fb      	ldr	r3, [r7, #12]
 8002fe0:	685b      	ldr	r3, [r3, #4]
 8002fe2:	f5b3 7f82 	cmp.w	r3, #260	@ 0x104
 8002fe6:	d111      	bne.n	800300c <SPI_WaitFlagStateUntilTimeout+0x94>
 8002fe8:	68fb      	ldr	r3, [r7, #12]
 8002fea:	689b      	ldr	r3, [r3, #8]
 8002fec:	f5b3 4f00 	cmp.w	r3, #32768	@ 0x8000
 8002ff0:	d004      	beq.n	8002ffc <SPI_WaitFlagStateUntilTimeout+0x84>
                                                     || (hspi->Init.Direction == SPI_DIRECTION_2LINES_RXONLY)))
 8002ff2:	68fb      	ldr	r3, [r7, #12]
 8002ff4:	689b      	ldr	r3, [r3, #8]
 8002ff6:	f5b3 6f80 	cmp.w	r3, #1024	@ 0x400
 8002ffa:	d107      	bne.n	800300c <SPI_WaitFlagStateUntilTimeout+0x94>
        {
          /* Disable SPI peripheral */
          __HAL_SPI_DISABLE(hspi);
 8002ffc:	68fb      	ldr	r3, [r7, #12]
 8002ffe:	681b      	ldr	r3, [r3, #0]
 8003000:	681a      	ldr	r2, [r3, #0]
 8003002:	68fb      	ldr	r3, [r7, #12]
 8003004:	681b      	ldr	r3, [r3, #0]
 8003006:	f022 0240 	bic.w	r2, r2, #64	@ 0x40
 800300a:	601a      	str	r2, [r3, #0]
        }

        /* Reset CRC Calculation */
        if (hspi->Init.CRCCalculation == SPI_CRCCALCULATION_ENABLE)
 800300c:	68fb      	ldr	r3, [r7, #12]
 800300e:	6a9b      	ldr	r3, [r3, #40]	@ 0x28
 8003010:	f5b3 5f00 	cmp.w	r3, #8192	@ 0x2000
 8003014:	d10f      	bne.n	8003036 <SPI_WaitFlagStateUntilTimeout+0xbe>
        {
          SPI_RESET_CRC(hspi);
 8003016:	68fb      	ldr	r3, [r7, #12]
 8003018:	681b      	ldr	r3, [r3, #0]
 800301a:	681a      	ldr	r2, [r3, #0]
 800301c:	68fb      	ldr	r3, [r7, #12]
 800301e:	681b      	ldr	r3, [r3, #0]
 8003020:	f422 5200 	bic.w	r2, r2, #8192	@ 0x2000
 8003024:	601a      	str	r2, [r3, #0]
 8003026:	68fb      	ldr	r3, [r7, #12]
 8003028:	681b      	ldr	r3, [r3, #0]
 800302a:	681a      	ldr	r2, [r3, #0]
 800302c:	68fb      	ldr	r3, [r7, #12]
 800302e:	681b      	ldr	r3, [r3, #0]
 8003030:	f442 5200 	orr.w	r2, r2, #8192	@ 0x2000
 8003034:	601a      	str	r2, [r3, #0]
        }

        hspi->State = HAL_SPI_STATE_READY;
 8003036:	68fb      	ldr	r3, [r7, #12]
 8003038:	2201      	movs	r2, #1
 800303a:	f883 205d 	strb.w	r2, [r3, #93]	@ 0x5d

        /* Process Unlocked */
        __HAL_UNLOCK(hspi);
 800303e:	68fb      	ldr	r3, [r7, #12]
 8003040:	2200      	movs	r2, #0
 8003042:	f883 205c 	strb.w	r2, [r3, #92]	@ 0x5c

        return HAL_TIMEOUT;
 8003046:	2303      	movs	r3, #3
 8003048:	e018      	b.n	800307c <SPI_WaitFlagStateUntilTimeout+0x104>
      }
      /* If Systick is disabled or not incremented, deactivate timeout to go in disable loop procedure */
      if (count == 0U)
 800304a:	697b      	ldr	r3, [r7, #20]
 800304c:	2b00      	cmp	r3, #0
 800304e:	d102      	bne.n	8003056 <SPI_WaitFlagStateUntilTimeout+0xde>
      {
        tmp_timeout = 0U;
 8003050:	2300      	movs	r3, #0
 8003052:	61fb      	str	r3, [r7, #28]
 8003054:	e002      	b.n	800305c <SPI_WaitFlagStateUntilTimeout+0xe4>
      }
      else
      {
        count--;
 8003056:	697b      	ldr	r3, [r7, #20]
 8003058:	3b01      	subs	r3, #1
 800305a:	617b      	str	r3, [r7, #20]
  while ((__HAL_SPI_GET_FLAG(hspi, Flag) ? SET : RESET) != State)
 800305c:	68fb      	ldr	r3, [r7, #12]
 800305e:	681b      	ldr	r3, [r3, #0]
 8003060:	689a      	ldr	r2, [r3, #8]
 8003062:	68bb      	ldr	r3, [r7, #8]
 8003064:	4013      	ands	r3, r2
 8003066:	68ba      	ldr	r2, [r7, #8]
 8003068:	429a      	cmp	r2, r3
 800306a:	bf0c      	ite	eq
 800306c:	2301      	moveq	r3, #1
 800306e:	2300      	movne	r3, #0
 8003070:	b2db      	uxtb	r3, r3
 8003072:	461a      	mov	r2, r3
 8003074:	79fb      	ldrb	r3, [r7, #7]
 8003076:	429a      	cmp	r2, r3
 8003078:	d19a      	bne.n	8002fb0 <SPI_WaitFlagStateUntilTimeout+0x38>
      }
    }
  }

  return HAL_OK;
 800307a:	2300      	movs	r3, #0
}
 800307c:	4618      	mov	r0, r3
 800307e:	3720      	adds	r7, #32
 8003080:	46bd      	mov	sp, r7
 8003082:	bd80      	pop	{r7, pc}
 8003084:	20000028 	.word	0x20000028

08003088 <SPI_WaitFifoStateUntilTimeout>:
  * @param  Tickstart tick start value
  * @retval HAL status
  */
static HAL_StatusTypeDef SPI_WaitFifoStateUntilTimeout(SPI_HandleTypeDef *hspi, uint32_t Fifo, uint32_t State,
                                                       uint32_t Timeout, uint32_t Tickstart)
{
 8003088:	b580      	push	{r7, lr}
 800308a:	b08a      	sub	sp, #40	@ 0x28
 800308c:	af00      	add	r7, sp, #0
 800308e:	60f8      	str	r0, [r7, #12]
 8003090:	60b9      	str	r1, [r7, #8]
 8003092:	607a      	str	r2, [r7, #4]
 8003094:	603b      	str	r3, [r7, #0]
  __IO uint32_t count;
  uint32_t tmp_timeout;
  uint32_t tmp_tickstart;
  __IO const uint8_t  *ptmpreg8;
  __IO uint8_t  tmpreg8 = 0;
 8003096:	2300      	movs	r3, #0
 8003098:	75fb      	strb	r3, [r7, #23]

  /* Adjust Timeout value  in case of end of transfer */
  tmp_timeout = Timeout - (HAL_GetTick() - Tickstart);
 800309a:	f7fd feff 	bl	8000e9c <HAL_GetTick>
 800309e:	4602      	mov	r2, r0
 80030a0:	6b3b      	ldr	r3, [r7, #48]	@ 0x30
 80030a2:	1a9b      	subs	r3, r3, r2
 80030a4:	683a      	ldr	r2, [r7, #0]
 80030a6:	4413      	add	r3, r2
 80030a8:	627b      	str	r3, [r7, #36]	@ 0x24
  tmp_tickstart = HAL_GetTick();
 80030aa:	f7fd fef7 	bl	8000e9c <HAL_GetTick>
 80030ae:	6238      	str	r0, [r7, #32]

  /* Initialize the 8bit temporary pointer */
  ptmpreg8 = (__IO uint8_t *)&hspi->Instance->DR;
 80030b0:	68fb      	ldr	r3, [r7, #12]
 80030b2:	681b      	ldr	r3, [r3, #0]
 80030b4:	330c      	adds	r3, #12
 80030b6:	61fb      	str	r3, [r7, #28]

  /* Calculate Timeout based on a software loop to avoid blocking issue if Systick is disabled */
  count = tmp_timeout * ((SystemCoreClock * 35U) >> 20U);
 80030b8:	4b3d      	ldr	r3, [pc, #244]	@ (80031b0 <SPI_WaitFifoStateUntilTimeout+0x128>)
 80030ba:	681a      	ldr	r2, [r3, #0]
 80030bc:	4613      	mov	r3, r2
 80030be:	009b      	lsls	r3, r3, #2
 80030c0:	4413      	add	r3, r2
 80030c2:	00da      	lsls	r2, r3, #3
 80030c4:	1ad3      	subs	r3, r2, r3
 80030c6:	0d1b      	lsrs	r3, r3, #20
 80030c8:	6a7a      	ldr	r2, [r7, #36]	@ 0x24
 80030ca:	fb02 f303 	mul.w	r3, r2, r3
 80030ce:	61bb      	str	r3, [r7, #24]

  while ((hspi->Instance->SR & Fifo) != State)
 80030d0:	e061      	b.n	8003196 <SPI_WaitFifoStateUntilTimeout+0x10e>
  {
    if ((Fifo == SPI_SR_FRLVL) && (State == SPI_FRLVL_EMPTY))
 80030d2:	68bb      	ldr	r3, [r7, #8]
 80030d4:	f5b3 6fc0 	cmp.w	r3, #1536	@ 0x600
 80030d8:	d107      	bne.n	80030ea <SPI_WaitFifoStateUntilTimeout+0x62>
 80030da:	687b      	ldr	r3, [r7, #4]
 80030dc:	2b00      	cmp	r3, #0
 80030de:	d104      	bne.n	80030ea <SPI_WaitFifoStateUntilTimeout+0x62>
    {
      /* Flush Data Register by a blank read */
      tmpreg8 = *ptmpreg8;
 80030e0:	69fb      	ldr	r3, [r7, #28]
 80030e2:	781b      	ldrb	r3, [r3, #0]
 80030e4:	b2db      	uxtb	r3, r3
 80030e6:	75fb      	strb	r3, [r7, #23]
      /* To avoid GCC warning */
      UNUSED(tmpreg8);
 80030e8:	7dfb      	ldrb	r3, [r7, #23]
    }

    if (Timeout != HAL_MAX_DELAY)
 80030ea:	683b      	ldr	r3, [r7, #0]
 80030ec:	f1b3 3fff 	cmp.w	r3, #4294967295
 80030f0:	d051      	beq.n	8003196 <SPI_WaitFifoStateUntilTimeout+0x10e>
    {
      if (((HAL_GetTick() - tmp_tickstart) >= tmp_timeout) || (tmp_timeout == 0U))
 80030f2:	f7fd fed3 	bl	8000e9c <HAL_GetTick>
 80030f6:	4602      	mov	r2, r0
 80030f8:	6a3b      	ldr	r3, [r7, #32]
 80030fa:	1ad3      	subs	r3, r2, r3
 80030fc:	6a7a      	ldr	r2, [r7, #36]	@ 0x24
 80030fe:	429a      	cmp	r2, r3
 8003100:	d902      	bls.n	8003108 <SPI_WaitFifoStateUntilTimeout+0x80>
 8003102:	6a7b      	ldr	r3, [r7, #36]	@ 0x24
 8003104:	2b00      	cmp	r3, #0
 8003106:	d13d      	bne.n	8003184 <SPI_WaitFifoStateUntilTimeout+0xfc>
        /* Disable the SPI and reset the CRC: the CRC value should be cleared
           on both master and slave sides in order to resynchronize the master
           and slave for their respective CRC calculation */

        /* Disable TXE, RXNE and ERR interrupts for the interrupt process */
        __HAL_SPI_DISABLE_IT(hspi, (SPI_IT_TXE | SPI_IT_RXNE | SPI_IT_ERR));
 8003108:	68fb      	ldr	r3, [r7, #12]
 800310a:	681b      	ldr	r3, [r3, #0]
 800310c:	685a      	ldr	r2, [r3, #4]
 800310e:	68fb      	ldr	r3, [r7, #12]
 8003110:	681b      	ldr	r3, [r3, #0]
 8003112:	f022 02e0 	bic.w	r2, r2, #224	@ 0xe0
 8003116:	605a      	str	r2, [r3, #4]

        if ((hspi->Init.Mode == SPI_MODE_MASTER) && ((hspi->Init.Direction == SPI_DIRECTION_1LINE)
 8003118:	68fb      	ldr	r3, [r7, #12]
 800311a:	685b      	ldr	r3, [r3, #4]
 800311c:	f5b3 7f82 	cmp.w	r3, #260	@ 0x104
 8003120:	d111      	bne.n	8003146 <SPI_WaitFifoStateUntilTimeout+0xbe>
 8003122:	68fb      	ldr	r3, [r7, #12]
 8003124:	689b      	ldr	r3, [r3, #8]
 8003126:	f5b3 4f00 	cmp.w	r3, #32768	@ 0x8000
 800312a:	d004      	beq.n	8003136 <SPI_WaitFifoStateUntilTimeout+0xae>
                                                     || (hspi->Init.Direction == SPI_DIRECTION_2LINES_RXONLY)))
 800312c:	68fb      	ldr	r3, [r7, #12]
 800312e:	689b      	ldr	r3, [r3, #8]
 8003130:	f5b3 6f80 	cmp.w	r3, #1024	@ 0x400
 8003134:	d107      	bne.n	8003146 <SPI_WaitFifoStateUntilTimeout+0xbe>
        {
          /* Disable SPI peripheral */
          __HAL_SPI_DISABLE(hspi);
 8003136:	68fb      	ldr	r3, [r7, #12]
 8003138:	681b      	ldr	r3, [r3, #0]
 800313a:	681a      	ldr	r2, [r3, #0]
 800313c:	68fb      	ldr	r3, [r7, #12]
 800313e:	681b      	ldr	r3, [r3, #0]
 8003140:	f022 0240 	bic.w	r2, r2, #64	@ 0x40
 8003144:	601a      	str	r2, [r3, #0]
        }

        /* Reset CRC Calculation */
        if (hspi->Init.CRCCalculation == SPI_CRCCALCULATION_ENABLE)
 8003146:	68fb      	ldr	r3, [r7, #12]
 8003148:	6a9b      	ldr	r3, [r3, #40]	@ 0x28
 800314a:	f5b3 5f00 	cmp.w	r3, #8192	@ 0x2000
 800314e:	d10f      	bne.n	8003170 <SPI_WaitFifoStateUntilTimeout+0xe8>
        {
          SPI_RESET_CRC(hspi);
 8003150:	68fb      	ldr	r3, [r7, #12]
 8003152:	681b      	ldr	r3, [r3, #0]
 8003154:	681a      	ldr	r2, [r3, #0]
 8003156:	68fb      	ldr	r3, [r7, #12]
 8003158:	681b      	ldr	r3, [r3, #0]
 800315a:	f422 5200 	bic.w	r2, r2, #8192	@ 0x2000
 800315e:	601a      	str	r2, [r3, #0]
 8003160:	68fb      	ldr	r3, [r7, #12]
 8003162:	681b      	ldr	r3, [r3, #0]
 8003164:	681a      	ldr	r2, [r3, #0]
 8003166:	68fb      	ldr	r3, [r7, #12]
 8003168:	681b      	ldr	r3, [r3, #0]
 800316a:	f442 5200 	orr.w	r2, r2, #8192	@ 0x2000
 800316e:	601a      	str	r2, [r3, #0]
        }

        hspi->State = HAL_SPI_STATE_READY;
 8003170:	68fb      	ldr	r3, [r7, #12]
 8003172:	2201      	movs	r2, #1
 8003174:	f883 205d 	strb.w	r2, [r3, #93]	@ 0x5d

        /* Process Unlocked */
        __HAL_UNLOCK(hspi);
 8003178:	68fb      	ldr	r3, [r7, #12]
 800317a:	2200      	movs	r2, #0
 800317c:	f883 205c 	strb.w	r2, [r3, #92]	@ 0x5c

        return HAL_TIMEOUT;
 8003180:	2303      	movs	r3, #3
 8003182:	e011      	b.n	80031a8 <SPI_WaitFifoStateUntilTimeout+0x120>
      }
      /* If Systick is disabled or not incremented, deactivate timeout to go in disable loop procedure */
      if (count == 0U)
 8003184:	69bb      	ldr	r3, [r7, #24]
 8003186:	2b00      	cmp	r3, #0
 8003188:	d102      	bne.n	8003190 <SPI_WaitFifoStateUntilTimeout+0x108>
      {
        tmp_timeout = 0U;
 800318a:	2300      	movs	r3, #0
 800318c:	627b      	str	r3, [r7, #36]	@ 0x24
 800318e:	e002      	b.n	8003196 <SPI_WaitFifoStateUntilTimeout+0x10e>
      }
      else
      {
        count--;
 8003190:	69bb      	ldr	r3, [r7, #24]
 8003192:	3b01      	subs	r3, #1
 8003194:	61bb      	str	r3, [r7, #24]
  while ((hspi->Instance->SR & Fifo) != State)
 8003196:	68fb      	ldr	r3, [r7, #12]
 8003198:	681b      	ldr	r3, [r3, #0]
 800319a:	689a      	ldr	r2, [r3, #8]
 800319c:	68bb      	ldr	r3, [r7, #8]
 800319e:	4013      	ands	r3, r2
 80031a0:	687a      	ldr	r2, [r7, #4]
 80031a2:	429a      	cmp	r2, r3
 80031a4:	d195      	bne.n	80030d2 <SPI_WaitFifoStateUntilTimeout+0x4a>
      }
    }
  }

  return HAL_OK;
 80031a6:	2300      	movs	r3, #0
}
 80031a8:	4618      	mov	r0, r3
 80031aa:	3728      	adds	r7, #40	@ 0x28
 80031ac:	46bd      	mov	sp, r7
 80031ae:	bd80      	pop	{r7, pc}
 80031b0:	20000028 	.word	0x20000028

080031b4 <SPI_EndRxTxTransaction>:
  * @param  Timeout Timeout duration
  * @param  Tickstart tick start value
  * @retval HAL status
  */
static HAL_StatusTypeDef SPI_EndRxTxTransaction(SPI_HandleTypeDef *hspi, uint32_t Timeout, uint32_t Tickstart)
{
 80031b4:	b580      	push	{r7, lr}
 80031b6:	b086      	sub	sp, #24
 80031b8:	af02      	add	r7, sp, #8
 80031ba:	60f8      	str	r0, [r7, #12]
 80031bc:	60b9      	str	r1, [r7, #8]
 80031be:	607a      	str	r2, [r7, #4]
  /* Control if the TX fifo is empty */
  if (SPI_WaitFifoStateUntilTimeout(hspi, SPI_FLAG_FTLVL, SPI_FTLVL_EMPTY, Timeout, Tickstart) != HAL_OK)
 80031c0:	687b      	ldr	r3, [r7, #4]
 80031c2:	9300      	str	r3, [sp, #0]
 80031c4:	68bb      	ldr	r3, [r7, #8]
 80031c6:	2200      	movs	r2, #0
 80031c8:	f44f 51c0 	mov.w	r1, #6144	@ 0x1800
 80031cc:	68f8      	ldr	r0, [r7, #12]
 80031ce:	f7ff ff5b 	bl	8003088 <SPI_WaitFifoStateUntilTimeout>
 80031d2:	4603      	mov	r3, r0
 80031d4:	2b00      	cmp	r3, #0
 80031d6:	d007      	beq.n	80031e8 <SPI_EndRxTxTransaction+0x34>
  {
    SET_BIT(hspi->ErrorCode, HAL_SPI_ERROR_FLAG);
 80031d8:	68fb      	ldr	r3, [r7, #12]
 80031da:	6e1b      	ldr	r3, [r3, #96]	@ 0x60
 80031dc:	f043 0220 	orr.w	r2, r3, #32
 80031e0:	68fb      	ldr	r3, [r7, #12]
 80031e2:	661a      	str	r2, [r3, #96]	@ 0x60
    return HAL_TIMEOUT;
 80031e4:	2303      	movs	r3, #3
 80031e6:	e027      	b.n	8003238 <SPI_EndRxTxTransaction+0x84>
  }

  /* Control the BSY flag */
  if (SPI_WaitFlagStateUntilTimeout(hspi, SPI_FLAG_BSY, RESET, Timeout, Tickstart) != HAL_OK)
 80031e8:	687b      	ldr	r3, [r7, #4]
 80031ea:	9300      	str	r3, [sp, #0]
 80031ec:	68bb      	ldr	r3, [r7, #8]
 80031ee:	2200      	movs	r2, #0
 80031f0:	2180      	movs	r1, #128	@ 0x80
 80031f2:	68f8      	ldr	r0, [r7, #12]
 80031f4:	f7ff fec0 	bl	8002f78 <SPI_WaitFlagStateUntilTimeout>
 80031f8:	4603      	mov	r3, r0
 80031fa:	2b00      	cmp	r3, #0
 80031fc:	d007      	beq.n	800320e <SPI_EndRxTxTransaction+0x5a>
  {
    SET_BIT(hspi->ErrorCode, HAL_SPI_ERROR_FLAG);
 80031fe:	68fb      	ldr	r3, [r7, #12]
 8003200:	6e1b      	ldr	r3, [r3, #96]	@ 0x60
 8003202:	f043 0220 	orr.w	r2, r3, #32
 8003206:	68fb      	ldr	r3, [r7, #12]
 8003208:	661a      	str	r2, [r3, #96]	@ 0x60
    return HAL_TIMEOUT;
 800320a:	2303      	movs	r3, #3
 800320c:	e014      	b.n	8003238 <SPI_EndRxTxTransaction+0x84>
  }

  /* Control if the RX fifo is empty */
  if (SPI_WaitFifoStateUntilTimeout(hspi, SPI_FLAG_FRLVL, SPI_FRLVL_EMPTY, Timeout, Tickstart) != HAL_OK)
 800320e:	687b      	ldr	r3, [r7, #4]
 8003210:	9300      	str	r3, [sp, #0]
 8003212:	68bb      	ldr	r3, [r7, #8]
 8003214:	2200      	movs	r2, #0
 8003216:	f44f 61c0 	mov.w	r1, #1536	@ 0x600
 800321a:	68f8      	ldr	r0, [r7, #12]
 800321c:	f7ff ff34 	bl	8003088 <SPI_WaitFifoStateUntilTimeout>
 8003220:	4603      	mov	r3, r0
 8003222:	2b00      	cmp	r3, #0
 8003224:	d007      	beq.n	8003236 <SPI_EndRxTxTransaction+0x82>
  {
    SET_BIT(hspi->ErrorCode, HAL_SPI_ERROR_FLAG);
 8003226:	68fb      	ldr	r3, [r7, #12]
 8003228:	6e1b      	ldr	r3, [r3, #96]	@ 0x60
 800322a:	f043 0220 	orr.w	r2, r3, #32
 800322e:	68fb      	ldr	r3, [r7, #12]
 8003230:	661a      	str	r2, [r3, #96]	@ 0x60
    return HAL_TIMEOUT;
 8003232:	2303      	movs	r3, #3
 8003234:	e000      	b.n	8003238 <SPI_EndRxTxTransaction+0x84>
  }

  return HAL_OK;
 8003236:	2300      	movs	r3, #0
}
 8003238:	4618      	mov	r0, r3
 800323a:	3710      	adds	r7, #16
 800323c:	46bd      	mov	sp, r7
 800323e:	bd80      	pop	{r7, pc}

08003240 <HAL_UART_Init>:
  *        parameters in the UART_InitTypeDef and initialize the associated handle.
  * @param huart UART handle.
  * @retval HAL status
  */
HAL_StatusTypeDef HAL_UART_Init(UART_HandleTypeDef *huart)
{
 8003240:	b580      	push	{r7, lr}
 8003242:	b082      	sub	sp, #8
 8003244:	af00      	add	r7, sp, #0
 8003246:	6078      	str	r0, [r7, #4]
  /* Check the UART handle allocation */
  if (huart == NULL)
 8003248:	687b      	ldr	r3, [r7, #4]
 800324a:	2b00      	cmp	r3, #0
 800324c:	d101      	bne.n	8003252 <HAL_UART_Init+0x12>
  {
    return HAL_ERROR;
 800324e:	2301      	movs	r3, #1
 8003250:	e040      	b.n	80032d4 <HAL_UART_Init+0x94>
  {
    /* Check the parameters */
    assert_param((IS_UART_INSTANCE(huart->Instance)) || (IS_LPUART_INSTANCE(huart->Instance)));
  }

  if (huart->gState == HAL_UART_STATE_RESET)
 8003252:	687b      	ldr	r3, [r7, #4]
 8003254:	6fdb      	ldr	r3, [r3, #124]	@ 0x7c
 8003256:	2b00      	cmp	r3, #0
 8003258:	d106      	bne.n	8003268 <HAL_UART_Init+0x28>
  {
    /* Allocate lock resource and initialize it */
    huart->Lock = HAL_UNLOCKED;
 800325a:	687b      	ldr	r3, [r7, #4]
 800325c:	2200      	movs	r2, #0
 800325e:	f883 2078 	strb.w	r2, [r3, #120]	@ 0x78

    /* Init the low level hardware */
    huart->MspInitCallback(huart);
#else
    /* Init the low level hardware : GPIO, CLOCK */
    HAL_UART_MspInit(huart);
 8003262:	6878      	ldr	r0, [r7, #4]
 8003264:	f7fd fc62 	bl	8000b2c <HAL_UART_MspInit>
#endif /* (USE_HAL_UART_REGISTER_CALLBACKS) */
  }

  huart->gState = HAL_UART_STATE_BUSY;
 8003268:	687b      	ldr	r3, [r7, #4]
 800326a:	2224      	movs	r2, #36	@ 0x24
 800326c:	67da      	str	r2, [r3, #124]	@ 0x7c

  __HAL_UART_DISABLE(huart);
 800326e:	687b      	ldr	r3, [r7, #4]
 8003270:	681b      	ldr	r3, [r3, #0]
 8003272:	681a      	ldr	r2, [r3, #0]
 8003274:	687b      	ldr	r3, [r7, #4]
 8003276:	681b      	ldr	r3, [r3, #0]
 8003278:	f022 0201 	bic.w	r2, r2, #1
 800327c:	601a      	str	r2, [r3, #0]

  /* Perform advanced settings configuration */
  /* For some items, configuration requires to be done prior TE and RE bits are set */
  if (huart->AdvancedInit.AdvFeatureInit != UART_ADVFEATURE_NO_INIT)
 800327e:	687b      	ldr	r3, [r7, #4]
 8003280:	6a5b      	ldr	r3, [r3, #36]	@ 0x24
 8003282:	2b00      	cmp	r3, #0
 8003284:	d002      	beq.n	800328c <HAL_UART_Init+0x4c>
  {
    UART_AdvFeatureConfig(huart);
 8003286:	6878      	ldr	r0, [r7, #4]
 8003288:	f000 fae0 	bl	800384c <UART_AdvFeatureConfig>
  }

  /* Set the UART Communication parameters */
  if (UART_SetConfig(huart) == HAL_ERROR)
 800328c:	6878      	ldr	r0, [r7, #4]
 800328e:	f000 f825 	bl	80032dc <UART_SetConfig>
 8003292:	4603      	mov	r3, r0
 8003294:	2b01      	cmp	r3, #1
 8003296:	d101      	bne.n	800329c <HAL_UART_Init+0x5c>
  {
    return HAL_ERROR;
 8003298:	2301      	movs	r3, #1
 800329a:	e01b      	b.n	80032d4 <HAL_UART_Init+0x94>
  }

  /* In asynchronous mode, the following bits must be kept cleared:
  - LINEN and CLKEN bits in the USART_CR2 register,
  - SCEN, HDSEL and IREN  bits in the USART_CR3 register.*/
  CLEAR_BIT(huart->Instance->CR2, (USART_CR2_LINEN | USART_CR2_CLKEN));
 800329c:	687b      	ldr	r3, [r7, #4]
 800329e:	681b      	ldr	r3, [r3, #0]
 80032a0:	685a      	ldr	r2, [r3, #4]
 80032a2:	687b      	ldr	r3, [r7, #4]
 80032a4:	681b      	ldr	r3, [r3, #0]
 80032a6:	f422 4290 	bic.w	r2, r2, #18432	@ 0x4800
 80032aa:	605a      	str	r2, [r3, #4]
  CLEAR_BIT(huart->Instance->CR3, (USART_CR3_SCEN | USART_CR3_HDSEL | USART_CR3_IREN));
 80032ac:	687b      	ldr	r3, [r7, #4]
 80032ae:	681b      	ldr	r3, [r3, #0]
 80032b0:	689a      	ldr	r2, [r3, #8]
 80032b2:	687b      	ldr	r3, [r7, #4]
 80032b4:	681b      	ldr	r3, [r3, #0]
 80032b6:	f022 022a 	bic.w	r2, r2, #42	@ 0x2a
 80032ba:	609a      	str	r2, [r3, #8]

  __HAL_UART_ENABLE(huart);
 80032bc:	687b      	ldr	r3, [r7, #4]
 80032be:	681b      	ldr	r3, [r3, #0]
 80032c0:	681a      	ldr	r2, [r3, #0]
 80032c2:	687b      	ldr	r3, [r7, #4]
 80032c4:	681b      	ldr	r3, [r3, #0]
 80032c6:	f042 0201 	orr.w	r2, r2, #1
 80032ca:	601a      	str	r2, [r3, #0]

  /* TEACK and/or REACK to check before moving huart->gState and huart->RxState to Ready */
  return (UART_CheckIdleState(huart));
 80032cc:	6878      	ldr	r0, [r7, #4]
 80032ce:	f000 fb5f 	bl	8003990 <UART_CheckIdleState>
 80032d2:	4603      	mov	r3, r0
}
 80032d4:	4618      	mov	r0, r3
 80032d6:	3708      	adds	r7, #8
 80032d8:	46bd      	mov	sp, r7
 80032da:	bd80      	pop	{r7, pc}

080032dc <UART_SetConfig>:
  * @brief Configure the UART peripheral.
  * @param huart UART handle.
  * @retval HAL status
  */
HAL_StatusTypeDef UART_SetConfig(UART_HandleTypeDef *huart)
{
 80032dc:	e92d 4fb0 	stmdb	sp!, {r4, r5, r7, r8, r9, sl, fp, lr}
 80032e0:	b08a      	sub	sp, #40	@ 0x28
 80032e2:	af00      	add	r7, sp, #0
 80032e4:	60f8      	str	r0, [r7, #12]
  uint32_t tmpreg;
  uint16_t brrtemp;
  UART_ClockSourceTypeDef clocksource;
  uint32_t usartdiv;
  HAL_StatusTypeDef ret               = HAL_OK;
 80032e6:	2300      	movs	r3, #0
 80032e8:	f887 3022 	strb.w	r3, [r7, #34]	@ 0x22
  *  the UART Word Length, Parity, Mode and oversampling:
  *  set the M bits according to huart->Init.WordLength value
  *  set PCE and PS bits according to huart->Init.Parity value
  *  set TE and RE bits according to huart->Init.Mode value
  *  set OVER8 bit according to huart->Init.OverSampling value */
  tmpreg = (uint32_t)huart->Init.WordLength | huart->Init.Parity | huart->Init.Mode | huart->Init.OverSampling ;
 80032ec:	68fb      	ldr	r3, [r7, #12]
 80032ee:	689a      	ldr	r2, [r3, #8]
 80032f0:	68fb      	ldr	r3, [r7, #12]
 80032f2:	691b      	ldr	r3, [r3, #16]
 80032f4:	431a      	orrs	r2, r3
 80032f6:	68fb      	ldr	r3, [r7, #12]
 80032f8:	695b      	ldr	r3, [r3, #20]
 80032fa:	431a      	orrs	r2, r3
 80032fc:	68fb      	ldr	r3, [r7, #12]
 80032fe:	69db      	ldr	r3, [r3, #28]
 8003300:	4313      	orrs	r3, r2
 8003302:	627b      	str	r3, [r7, #36]	@ 0x24
  MODIFY_REG(huart->Instance->CR1, USART_CR1_FIELDS, tmpreg);
 8003304:	68fb      	ldr	r3, [r7, #12]
 8003306:	681b      	ldr	r3, [r3, #0]
 8003308:	681a      	ldr	r2, [r3, #0]
 800330a:	4ba4      	ldr	r3, [pc, #656]	@ (800359c <UART_SetConfig+0x2c0>)
 800330c:	4013      	ands	r3, r2
 800330e:	68fa      	ldr	r2, [r7, #12]
 8003310:	6812      	ldr	r2, [r2, #0]
 8003312:	6a79      	ldr	r1, [r7, #36]	@ 0x24
 8003314:	430b      	orrs	r3, r1
 8003316:	6013      	str	r3, [r2, #0]

  /*-------------------------- USART CR2 Configuration -----------------------*/
  /* Configure the UART Stop Bits: Set STOP[13:12] bits according
  * to huart->Init.StopBits value */
  MODIFY_REG(huart->Instance->CR2, USART_CR2_STOP, huart->Init.StopBits);
 8003318:	68fb      	ldr	r3, [r7, #12]
 800331a:	681b      	ldr	r3, [r3, #0]
 800331c:	685b      	ldr	r3, [r3, #4]
 800331e:	f423 5140 	bic.w	r1, r3, #12288	@ 0x3000
 8003322:	68fb      	ldr	r3, [r7, #12]
 8003324:	68da      	ldr	r2, [r3, #12]
 8003326:	68fb      	ldr	r3, [r7, #12]
 8003328:	681b      	ldr	r3, [r3, #0]
 800332a:	430a      	orrs	r2, r1
 800332c:	605a      	str	r2, [r3, #4]
  /* Configure
  * - UART HardWare Flow Control: set CTSE and RTSE bits according
  *   to huart->Init.HwFlowCtl value
  * - one-bit sampling method versus three samples' majority rule according
  *   to huart->Init.OneBitSampling (not applicable to LPUART) */
  tmpreg = (uint32_t)huart->Init.HwFlowCtl;
 800332e:	68fb      	ldr	r3, [r7, #12]
 8003330:	699b      	ldr	r3, [r3, #24]
 8003332:	627b      	str	r3, [r7, #36]	@ 0x24

  if (!(UART_INSTANCE_LOWPOWER(huart)))
 8003334:	68fb      	ldr	r3, [r7, #12]
 8003336:	681b      	ldr	r3, [r3, #0]
 8003338:	4a99      	ldr	r2, [pc, #612]	@ (80035a0 <UART_SetConfig+0x2c4>)
 800333a:	4293      	cmp	r3, r2
 800333c:	d004      	beq.n	8003348 <UART_SetConfig+0x6c>
  {
    tmpreg |= huart->Init.OneBitSampling;
 800333e:	68fb      	ldr	r3, [r7, #12]
 8003340:	6a1b      	ldr	r3, [r3, #32]
 8003342:	6a7a      	ldr	r2, [r7, #36]	@ 0x24
 8003344:	4313      	orrs	r3, r2
 8003346:	627b      	str	r3, [r7, #36]	@ 0x24
  }
  MODIFY_REG(huart->Instance->CR3, USART_CR3_FIELDS, tmpreg);
 8003348:	68fb      	ldr	r3, [r7, #12]
 800334a:	681b      	ldr	r3, [r3, #0]
 800334c:	689b      	ldr	r3, [r3, #8]
 800334e:	f423 6130 	bic.w	r1, r3, #2816	@ 0xb00
 8003352:	68fb      	ldr	r3, [r7, #12]
 8003354:	681b      	ldr	r3, [r3, #0]
 8003356:	6a7a      	ldr	r2, [r7, #36]	@ 0x24
 8003358:	430a      	orrs	r2, r1
 800335a:	609a      	str	r2, [r3, #8]
  * - UART Clock Prescaler : set PRESCALER according to huart->Init.ClockPrescaler value */
  MODIFY_REG(huart->Instance->PRESC, USART_PRESC_PRESCALER, huart->Init.ClockPrescaler);
#endif /* USART_PRESC_PRESCALER */

  /*-------------------------- USART BRR Configuration -----------------------*/
  UART_GETCLOCKSOURCE(huart, clocksource);
 800335c:	68fb      	ldr	r3, [r7, #12]
 800335e:	681b      	ldr	r3, [r3, #0]
 8003360:	4a90      	ldr	r2, [pc, #576]	@ (80035a4 <UART_SetConfig+0x2c8>)
 8003362:	4293      	cmp	r3, r2
 8003364:	d126      	bne.n	80033b4 <UART_SetConfig+0xd8>
 8003366:	4b90      	ldr	r3, [pc, #576]	@ (80035a8 <UART_SetConfig+0x2cc>)
 8003368:	f8d3 3088 	ldr.w	r3, [r3, #136]	@ 0x88
 800336c:	f003 0303 	and.w	r3, r3, #3
 8003370:	2b03      	cmp	r3, #3
 8003372:	d81b      	bhi.n	80033ac <UART_SetConfig+0xd0>
 8003374:	a201      	add	r2, pc, #4	@ (adr r2, 800337c <UART_SetConfig+0xa0>)
 8003376:	f852 f023 	ldr.w	pc, [r2, r3, lsl #2]
 800337a:	bf00      	nop
 800337c:	0800338d 	.word	0x0800338d
 8003380:	0800339d 	.word	0x0800339d
 8003384:	08003395 	.word	0x08003395
 8003388:	080033a5 	.word	0x080033a5
 800338c:	2301      	movs	r3, #1
 800338e:	f887 3023 	strb.w	r3, [r7, #35]	@ 0x23
 8003392:	e116      	b.n	80035c2 <UART_SetConfig+0x2e6>
 8003394:	2302      	movs	r3, #2
 8003396:	f887 3023 	strb.w	r3, [r7, #35]	@ 0x23
 800339a:	e112      	b.n	80035c2 <UART_SetConfig+0x2e6>
 800339c:	2304      	movs	r3, #4
 800339e:	f887 3023 	strb.w	r3, [r7, #35]	@ 0x23
 80033a2:	e10e      	b.n	80035c2 <UART_SetConfig+0x2e6>
 80033a4:	2308      	movs	r3, #8
 80033a6:	f887 3023 	strb.w	r3, [r7, #35]	@ 0x23
 80033aa:	e10a      	b.n	80035c2 <UART_SetConfig+0x2e6>
 80033ac:	2310      	movs	r3, #16
 80033ae:	f887 3023 	strb.w	r3, [r7, #35]	@ 0x23
 80033b2:	e106      	b.n	80035c2 <UART_SetConfig+0x2e6>
 80033b4:	68fb      	ldr	r3, [r7, #12]
 80033b6:	681b      	ldr	r3, [r3, #0]
 80033b8:	4a7c      	ldr	r2, [pc, #496]	@ (80035ac <UART_SetConfig+0x2d0>)
 80033ba:	4293      	cmp	r3, r2
 80033bc:	d138      	bne.n	8003430 <UART_SetConfig+0x154>
 80033be:	4b7a      	ldr	r3, [pc, #488]	@ (80035a8 <UART_SetConfig+0x2cc>)
 80033c0:	f8d3 3088 	ldr.w	r3, [r3, #136]	@ 0x88
 80033c4:	f003 030c 	and.w	r3, r3, #12
 80033c8:	2b0c      	cmp	r3, #12
 80033ca:	d82d      	bhi.n	8003428 <UART_SetConfig+0x14c>
 80033cc:	a201      	add	r2, pc, #4	@ (adr r2, 80033d4 <UART_SetConfig+0xf8>)
 80033ce:	f852 f023 	ldr.w	pc, [r2, r3, lsl #2]
 80033d2:	bf00      	nop
 80033d4:	08003409 	.word	0x08003409
 80033d8:	08003429 	.word	0x08003429
 80033dc:	08003429 	.word	0x08003429
 80033e0:	08003429 	.word	0x08003429
 80033e4:	08003419 	.word	0x08003419
 80033e8:	08003429 	.word	0x08003429
 80033ec:	08003429 	.word	0x08003429
 80033f0:	08003429 	.word	0x08003429
 80033f4:	08003411 	.word	0x08003411
 80033f8:	08003429 	.word	0x08003429
 80033fc:	08003429 	.word	0x08003429
 8003400:	08003429 	.word	0x08003429
 8003404:	08003421 	.word	0x08003421
 8003408:	2300      	movs	r3, #0
 800340a:	f887 3023 	strb.w	r3, [r7, #35]	@ 0x23
 800340e:	e0d8      	b.n	80035c2 <UART_SetConfig+0x2e6>
 8003410:	2302      	movs	r3, #2
 8003412:	f887 3023 	strb.w	r3, [r7, #35]	@ 0x23
 8003416:	e0d4      	b.n	80035c2 <UART_SetConfig+0x2e6>
 8003418:	2304      	movs	r3, #4
 800341a:	f887 3023 	strb.w	r3, [r7, #35]	@ 0x23
 800341e:	e0d0      	b.n	80035c2 <UART_SetConfig+0x2e6>
 8003420:	2308      	movs	r3, #8
 8003422:	f887 3023 	strb.w	r3, [r7, #35]	@ 0x23
 8003426:	e0cc      	b.n	80035c2 <UART_SetConfig+0x2e6>
 8003428:	2310      	movs	r3, #16
 800342a:	f887 3023 	strb.w	r3, [r7, #35]	@ 0x23
 800342e:	e0c8      	b.n	80035c2 <UART_SetConfig+0x2e6>
 8003430:	68fb      	ldr	r3, [r7, #12]
 8003432:	681b      	ldr	r3, [r3, #0]
 8003434:	4a5e      	ldr	r2, [pc, #376]	@ (80035b0 <UART_SetConfig+0x2d4>)
 8003436:	4293      	cmp	r3, r2
 8003438:	d125      	bne.n	8003486 <UART_SetConfig+0x1aa>
 800343a:	4b5b      	ldr	r3, [pc, #364]	@ (80035a8 <UART_SetConfig+0x2cc>)
 800343c:	f8d3 3088 	ldr.w	r3, [r3, #136]	@ 0x88
 8003440:	f003 0330 	and.w	r3, r3, #48	@ 0x30
 8003444:	2b30      	cmp	r3, #48	@ 0x30
 8003446:	d016      	beq.n	8003476 <UART_SetConfig+0x19a>
 8003448:	2b30      	cmp	r3, #48	@ 0x30
 800344a:	d818      	bhi.n	800347e <UART_SetConfig+0x1a2>
 800344c:	2b20      	cmp	r3, #32
 800344e:	d00a      	beq.n	8003466 <UART_SetConfig+0x18a>
 8003450:	2b20      	cmp	r3, #32
 8003452:	d814      	bhi.n	800347e <UART_SetConfig+0x1a2>
 8003454:	2b00      	cmp	r3, #0
 8003456:	d002      	beq.n	800345e <UART_SetConfig+0x182>
 8003458:	2b10      	cmp	r3, #16
 800345a:	d008      	beq.n	800346e <UART_SetConfig+0x192>
 800345c:	e00f      	b.n	800347e <UART_SetConfig+0x1a2>
 800345e:	2300      	movs	r3, #0
 8003460:	f887 3023 	strb.w	r3, [r7, #35]	@ 0x23
 8003464:	e0ad      	b.n	80035c2 <UART_SetConfig+0x2e6>
 8003466:	2302      	movs	r3, #2
 8003468:	f887 3023 	strb.w	r3, [r7, #35]	@ 0x23
 800346c:	e0a9      	b.n	80035c2 <UART_SetConfig+0x2e6>
 800346e:	2304      	movs	r3, #4
 8003470:	f887 3023 	strb.w	r3, [r7, #35]	@ 0x23
 8003474:	e0a5      	b.n	80035c2 <UART_SetConfig+0x2e6>
 8003476:	2308      	movs	r3, #8
 8003478:	f887 3023 	strb.w	r3, [r7, #35]	@ 0x23
 800347c:	e0a1      	b.n	80035c2 <UART_SetConfig+0x2e6>
 800347e:	2310      	movs	r3, #16
 8003480:	f887 3023 	strb.w	r3, [r7, #35]	@ 0x23
 8003484:	e09d      	b.n	80035c2 <UART_SetConfig+0x2e6>
 8003486:	68fb      	ldr	r3, [r7, #12]
 8003488:	681b      	ldr	r3, [r3, #0]
 800348a:	4a4a      	ldr	r2, [pc, #296]	@ (80035b4 <UART_SetConfig+0x2d8>)
 800348c:	4293      	cmp	r3, r2
 800348e:	d125      	bne.n	80034dc <UART_SetConfig+0x200>
 8003490:	4b45      	ldr	r3, [pc, #276]	@ (80035a8 <UART_SetConfig+0x2cc>)
 8003492:	f8d3 3088 	ldr.w	r3, [r3, #136]	@ 0x88
 8003496:	f003 03c0 	and.w	r3, r3, #192	@ 0xc0
 800349a:	2bc0      	cmp	r3, #192	@ 0xc0
 800349c:	d016      	beq.n	80034cc <UART_SetConfig+0x1f0>
 800349e:	2bc0      	cmp	r3, #192	@ 0xc0
 80034a0:	d818      	bhi.n	80034d4 <UART_SetConfig+0x1f8>
 80034a2:	2b80      	cmp	r3, #128	@ 0x80
 80034a4:	d00a      	beq.n	80034bc <UART_SetConfig+0x1e0>
 80034a6:	2b80      	cmp	r3, #128	@ 0x80
 80034a8:	d814      	bhi.n	80034d4 <UART_SetConfig+0x1f8>
 80034aa:	2b00      	cmp	r3, #0
 80034ac:	d002      	beq.n	80034b4 <UART_SetConfig+0x1d8>
 80034ae:	2b40      	cmp	r3, #64	@ 0x40
 80034b0:	d008      	beq.n	80034c4 <UART_SetConfig+0x1e8>
 80034b2:	e00f      	b.n	80034d4 <UART_SetConfig+0x1f8>
 80034b4:	2300      	movs	r3, #0
 80034b6:	f887 3023 	strb.w	r3, [r7, #35]	@ 0x23
 80034ba:	e082      	b.n	80035c2 <UART_SetConfig+0x2e6>
 80034bc:	2302      	movs	r3, #2
 80034be:	f887 3023 	strb.w	r3, [r7, #35]	@ 0x23
 80034c2:	e07e      	b.n	80035c2 <UART_SetConfig+0x2e6>
 80034c4:	2304      	movs	r3, #4
 80034c6:	f887 3023 	strb.w	r3, [r7, #35]	@ 0x23
 80034ca:	e07a      	b.n	80035c2 <UART_SetConfig+0x2e6>
 80034cc:	2308      	movs	r3, #8
 80034ce:	f887 3023 	strb.w	r3, [r7, #35]	@ 0x23
 80034d2:	e076      	b.n	80035c2 <UART_SetConfig+0x2e6>
 80034d4:	2310      	movs	r3, #16
 80034d6:	f887 3023 	strb.w	r3, [r7, #35]	@ 0x23
 80034da:	e072      	b.n	80035c2 <UART_SetConfig+0x2e6>
 80034dc:	68fb      	ldr	r3, [r7, #12]
 80034de:	681b      	ldr	r3, [r3, #0]
 80034e0:	4a35      	ldr	r2, [pc, #212]	@ (80035b8 <UART_SetConfig+0x2dc>)
 80034e2:	4293      	cmp	r3, r2
 80034e4:	d12a      	bne.n	800353c <UART_SetConfig+0x260>
 80034e6:	4b30      	ldr	r3, [pc, #192]	@ (80035a8 <UART_SetConfig+0x2cc>)
 80034e8:	f8d3 3088 	ldr.w	r3, [r3, #136]	@ 0x88
 80034ec:	f403 7340 	and.w	r3, r3, #768	@ 0x300
 80034f0:	f5b3 7f40 	cmp.w	r3, #768	@ 0x300
 80034f4:	d01a      	beq.n	800352c <UART_SetConfig+0x250>
 80034f6:	f5b3 7f40 	cmp.w	r3, #768	@ 0x300
 80034fa:	d81b      	bhi.n	8003534 <UART_SetConfig+0x258>
 80034fc:	f5b3 7f00 	cmp.w	r3, #512	@ 0x200
 8003500:	d00c      	beq.n	800351c <UART_SetConfig+0x240>
 8003502:	f5b3 7f00 	cmp.w	r3, #512	@ 0x200
 8003506:	d815      	bhi.n	8003534 <UART_SetConfig+0x258>
 8003508:	2b00      	cmp	r3, #0
 800350a:	d003      	beq.n	8003514 <UART_SetConfig+0x238>
 800350c:	f5b3 7f80 	cmp.w	r3, #256	@ 0x100
 8003510:	d008      	beq.n	8003524 <UART_SetConfig+0x248>
 8003512:	e00f      	b.n	8003534 <UART_SetConfig+0x258>
 8003514:	2300      	movs	r3, #0
 8003516:	f887 3023 	strb.w	r3, [r7, #35]	@ 0x23
 800351a:	e052      	b.n	80035c2 <UART_SetConfig+0x2e6>
 800351c:	2302      	movs	r3, #2
 800351e:	f887 3023 	strb.w	r3, [r7, #35]	@ 0x23
 8003522:	e04e      	b.n	80035c2 <UART_SetConfig+0x2e6>
 8003524:	2304      	movs	r3, #4
 8003526:	f887 3023 	strb.w	r3, [r7, #35]	@ 0x23
 800352a:	e04a      	b.n	80035c2 <UART_SetConfig+0x2e6>
 800352c:	2308      	movs	r3, #8
 800352e:	f887 3023 	strb.w	r3, [r7, #35]	@ 0x23
 8003532:	e046      	b.n	80035c2 <UART_SetConfig+0x2e6>
 8003534:	2310      	movs	r3, #16
 8003536:	f887 3023 	strb.w	r3, [r7, #35]	@ 0x23
 800353a:	e042      	b.n	80035c2 <UART_SetConfig+0x2e6>
 800353c:	68fb      	ldr	r3, [r7, #12]
 800353e:	681b      	ldr	r3, [r3, #0]
 8003540:	4a17      	ldr	r2, [pc, #92]	@ (80035a0 <UART_SetConfig+0x2c4>)
 8003542:	4293      	cmp	r3, r2
 8003544:	d13a      	bne.n	80035bc <UART_SetConfig+0x2e0>
 8003546:	4b18      	ldr	r3, [pc, #96]	@ (80035a8 <UART_SetConfig+0x2cc>)
 8003548:	f8d3 3088 	ldr.w	r3, [r3, #136]	@ 0x88
 800354c:	f403 6340 	and.w	r3, r3, #3072	@ 0xc00
 8003550:	f5b3 6f40 	cmp.w	r3, #3072	@ 0xc00
 8003554:	d01a      	beq.n	800358c <UART_SetConfig+0x2b0>
 8003556:	f5b3 6f40 	cmp.w	r3, #3072	@ 0xc00
 800355a:	d81b      	bhi.n	8003594 <UART_SetConfig+0x2b8>
 800355c:	f5b3 6f00 	cmp.w	r3, #2048	@ 0x800
 8003560:	d00c      	beq.n	800357c <UART_SetConfig+0x2a0>
 8003562:	f5b3 6f00 	cmp.w	r3, #2048	@ 0x800
 8003566:	d815      	bhi.n	8003594 <UART_SetConfig+0x2b8>
 8003568:	2b00      	cmp	r3, #0
 800356a:	d003      	beq.n	8003574 <UART_SetConfig+0x298>
 800356c:	f5b3 6f80 	cmp.w	r3, #1024	@ 0x400
 8003570:	d008      	beq.n	8003584 <UART_SetConfig+0x2a8>
 8003572:	e00f      	b.n	8003594 <UART_SetConfig+0x2b8>
 8003574:	2300      	movs	r3, #0
 8003576:	f887 3023 	strb.w	r3, [r7, #35]	@ 0x23
 800357a:	e022      	b.n	80035c2 <UART_SetConfig+0x2e6>
 800357c:	2302      	movs	r3, #2
 800357e:	f887 3023 	strb.w	r3, [r7, #35]	@ 0x23
 8003582:	e01e      	b.n	80035c2 <UART_SetConfig+0x2e6>
 8003584:	2304      	movs	r3, #4
 8003586:	f887 3023 	strb.w	r3, [r7, #35]	@ 0x23
 800358a:	e01a      	b.n	80035c2 <UART_SetConfig+0x2e6>
 800358c:	2308      	movs	r3, #8
 800358e:	f887 3023 	strb.w	r3, [r7, #35]	@ 0x23
 8003592:	e016      	b.n	80035c2 <UART_SetConfig+0x2e6>
 8003594:	2310      	movs	r3, #16
 8003596:	f887 3023 	strb.w	r3, [r7, #35]	@ 0x23
 800359a:	e012      	b.n	80035c2 <UART_SetConfig+0x2e6>
 800359c:	efff69f3 	.word	0xefff69f3
 80035a0:	40008000 	.word	0x40008000
 80035a4:	40013800 	.word	0x40013800
 80035a8:	40021000 	.word	0x40021000
 80035ac:	40004400 	.word	0x40004400
 80035b0:	40004800 	.word	0x40004800
 80035b4:	40004c00 	.word	0x40004c00
 80035b8:	40005000 	.word	0x40005000
 80035bc:	2310      	movs	r3, #16
 80035be:	f887 3023 	strb.w	r3, [r7, #35]	@ 0x23

  /* Check LPUART instance */
  if (UART_INSTANCE_LOWPOWER(huart))
 80035c2:	68fb      	ldr	r3, [r7, #12]
 80035c4:	681b      	ldr	r3, [r3, #0]
 80035c6:	4a9f      	ldr	r2, [pc, #636]	@ (8003844 <UART_SetConfig+0x568>)
 80035c8:	4293      	cmp	r3, r2
 80035ca:	d17a      	bne.n	80036c2 <UART_SetConfig+0x3e6>
  {
    /* Retrieve frequency clock */
    switch (clocksource)
 80035cc:	f897 3023 	ldrb.w	r3, [r7, #35]	@ 0x23
 80035d0:	2b08      	cmp	r3, #8
 80035d2:	d824      	bhi.n	800361e <UART_SetConfig+0x342>
 80035d4:	a201      	add	r2, pc, #4	@ (adr r2, 80035dc <UART_SetConfig+0x300>)
 80035d6:	f852 f023 	ldr.w	pc, [r2, r3, lsl #2]
 80035da:	bf00      	nop
 80035dc:	08003601 	.word	0x08003601
 80035e0:	0800361f 	.word	0x0800361f
 80035e4:	08003609 	.word	0x08003609
 80035e8:	0800361f 	.word	0x0800361f
 80035ec:	0800360f 	.word	0x0800360f
 80035f0:	0800361f 	.word	0x0800361f
 80035f4:	0800361f 	.word	0x0800361f
 80035f8:	0800361f 	.word	0x0800361f
 80035fc:	08003617 	.word	0x08003617
    {
      case UART_CLOCKSOURCE_PCLK1:
        pclk = HAL_RCC_GetPCLK1Freq();
 8003600:	f7fe fd58 	bl	80020b4 <HAL_RCC_GetPCLK1Freq>
 8003604:	61f8      	str	r0, [r7, #28]
        break;
 8003606:	e010      	b.n	800362a <UART_SetConfig+0x34e>
      case UART_CLOCKSOURCE_HSI:
        pclk = (uint32_t) HSI_VALUE;
 8003608:	4b8f      	ldr	r3, [pc, #572]	@ (8003848 <UART_SetConfig+0x56c>)
 800360a:	61fb      	str	r3, [r7, #28]
        break;
 800360c:	e00d      	b.n	800362a <UART_SetConfig+0x34e>
      case UART_CLOCKSOURCE_SYSCLK:
        pclk = HAL_RCC_GetSysClockFreq();
 800360e:	f7fe fcb9 	bl	8001f84 <HAL_RCC_GetSysClockFreq>
 8003612:	61f8      	str	r0, [r7, #28]
        break;
 8003614:	e009      	b.n	800362a <UART_SetConfig+0x34e>
      case UART_CLOCKSOURCE_LSE:
        pclk = (uint32_t) LSE_VALUE;
 8003616:	f44f 4300 	mov.w	r3, #32768	@ 0x8000
 800361a:	61fb      	str	r3, [r7, #28]
        break;
 800361c:	e005      	b.n	800362a <UART_SetConfig+0x34e>
      default:
        pclk = 0U;
 800361e:	2300      	movs	r3, #0
 8003620:	61fb      	str	r3, [r7, #28]
        ret = HAL_ERROR;
 8003622:	2301      	movs	r3, #1
 8003624:	f887 3022 	strb.w	r3, [r7, #34]	@ 0x22
        break;
 8003628:	bf00      	nop
    }

    /* If proper clock source reported */
    if (pclk != 0U)
 800362a:	69fb      	ldr	r3, [r7, #28]
 800362c:	2b00      	cmp	r3, #0
 800362e:	f000 80fb 	beq.w	8003828 <UART_SetConfig+0x54c>
      } /* if ( (lpuart_ker_ck_pres < (3 * huart->Init.BaudRate) ) ||
                (lpuart_ker_ck_pres > (4096 * huart->Init.BaudRate) )) */
#else
      /* No Prescaler applicable */
      /* Ensure that Frequency clock is in the range [3 * baudrate, 4096 * baudrate] */
      if ((pclk < (3U * huart->Init.BaudRate)) ||
 8003632:	68fb      	ldr	r3, [r7, #12]
 8003634:	685a      	ldr	r2, [r3, #4]
 8003636:	4613      	mov	r3, r2
 8003638:	005b      	lsls	r3, r3, #1
 800363a:	4413      	add	r3, r2
 800363c:	69fa      	ldr	r2, [r7, #28]
 800363e:	429a      	cmp	r2, r3
 8003640:	d305      	bcc.n	800364e <UART_SetConfig+0x372>
          (pclk > (4096U * huart->Init.BaudRate)))
 8003642:	68fb      	ldr	r3, [r7, #12]
 8003644:	685b      	ldr	r3, [r3, #4]
 8003646:	031b      	lsls	r3, r3, #12
      if ((pclk < (3U * huart->Init.BaudRate)) ||
 8003648:	69fa      	ldr	r2, [r7, #28]
 800364a:	429a      	cmp	r2, r3
 800364c:	d903      	bls.n	8003656 <UART_SetConfig+0x37a>
      {
        ret = HAL_ERROR;
 800364e:	2301      	movs	r3, #1
 8003650:	f887 3022 	strb.w	r3, [r7, #34]	@ 0x22
 8003654:	e0e8      	b.n	8003828 <UART_SetConfig+0x54c>
      }
      else
      {
        usartdiv = (uint32_t)(UART_DIV_LPUART(pclk, huart->Init.BaudRate));
 8003656:	69fb      	ldr	r3, [r7, #28]
 8003658:	2200      	movs	r2, #0
 800365a:	461c      	mov	r4, r3
 800365c:	4615      	mov	r5, r2
 800365e:	f04f 0200 	mov.w	r2, #0
 8003662:	f04f 0300 	mov.w	r3, #0
 8003666:	022b      	lsls	r3, r5, #8
 8003668:	ea43 6314 	orr.w	r3, r3, r4, lsr #24
 800366c:	0222      	lsls	r2, r4, #8
 800366e:	68f9      	ldr	r1, [r7, #12]
 8003670:	6849      	ldr	r1, [r1, #4]
 8003672:	0849      	lsrs	r1, r1, #1
 8003674:	2000      	movs	r0, #0
 8003676:	4688      	mov	r8, r1
 8003678:	4681      	mov	r9, r0
 800367a:	eb12 0a08 	adds.w	sl, r2, r8
 800367e:	eb43 0b09 	adc.w	fp, r3, r9
 8003682:	68fb      	ldr	r3, [r7, #12]
 8003684:	685b      	ldr	r3, [r3, #4]
 8003686:	2200      	movs	r2, #0
 8003688:	603b      	str	r3, [r7, #0]
 800368a:	607a      	str	r2, [r7, #4]
 800368c:	e9d7 2300 	ldrd	r2, r3, [r7]
 8003690:	4650      	mov	r0, sl
 8003692:	4659      	mov	r1, fp
 8003694:	f7fc fd98 	bl	80001c8 <__aeabi_uldivmod>
 8003698:	4602      	mov	r2, r0
 800369a:	460b      	mov	r3, r1
 800369c:	4613      	mov	r3, r2
 800369e:	61bb      	str	r3, [r7, #24]
        if ((usartdiv >= LPUART_BRR_MIN) && (usartdiv <= LPUART_BRR_MAX))
 80036a0:	69bb      	ldr	r3, [r7, #24]
 80036a2:	f5b3 7f40 	cmp.w	r3, #768	@ 0x300
 80036a6:	d308      	bcc.n	80036ba <UART_SetConfig+0x3de>
 80036a8:	69bb      	ldr	r3, [r7, #24]
 80036aa:	f5b3 1f80 	cmp.w	r3, #1048576	@ 0x100000
 80036ae:	d204      	bcs.n	80036ba <UART_SetConfig+0x3de>
        {
          huart->Instance->BRR = usartdiv;
 80036b0:	68fb      	ldr	r3, [r7, #12]
 80036b2:	681b      	ldr	r3, [r3, #0]
 80036b4:	69ba      	ldr	r2, [r7, #24]
 80036b6:	60da      	str	r2, [r3, #12]
 80036b8:	e0b6      	b.n	8003828 <UART_SetConfig+0x54c>
        }
        else
        {
          ret = HAL_ERROR;
 80036ba:	2301      	movs	r3, #1
 80036bc:	f887 3022 	strb.w	r3, [r7, #34]	@ 0x22
 80036c0:	e0b2      	b.n	8003828 <UART_SetConfig+0x54c>
      } /* if ( (pclk < (3 * huart->Init.BaudRate) ) || (pclk > (4096 * huart->Init.BaudRate) )) */
#endif /* USART_PRESC_PRESCALER */
    } /* if (pclk != 0) */
  }
  /* Check UART Over Sampling to set Baud Rate Register */
  else if (huart->Init.OverSampling == UART_OVERSAMPLING_8)
 80036c2:	68fb      	ldr	r3, [r7, #12]
 80036c4:	69db      	ldr	r3, [r3, #28]
 80036c6:	f5b3 4f00 	cmp.w	r3, #32768	@ 0x8000
 80036ca:	d15e      	bne.n	800378a <UART_SetConfig+0x4ae>
  {
    switch (clocksource)
 80036cc:	f897 3023 	ldrb.w	r3, [r7, #35]	@ 0x23
 80036d0:	2b08      	cmp	r3, #8
 80036d2:	d828      	bhi.n	8003726 <UART_SetConfig+0x44a>
 80036d4:	a201      	add	r2, pc, #4	@ (adr r2, 80036dc <UART_SetConfig+0x400>)
 80036d6:	f852 f023 	ldr.w	pc, [r2, r3, lsl #2]
 80036da:	bf00      	nop
 80036dc:	08003701 	.word	0x08003701
 80036e0:	08003709 	.word	0x08003709
 80036e4:	08003711 	.word	0x08003711
 80036e8:	08003727 	.word	0x08003727
 80036ec:	08003717 	.word	0x08003717
 80036f0:	08003727 	.word	0x08003727
 80036f4:	08003727 	.word	0x08003727
 80036f8:	08003727 	.word	0x08003727
 80036fc:	0800371f 	.word	0x0800371f
    {
      case UART_CLOCKSOURCE_PCLK1:
        pclk = HAL_RCC_GetPCLK1Freq();
 8003700:	f7fe fcd8 	bl	80020b4 <HAL_RCC_GetPCLK1Freq>
 8003704:	61f8      	str	r0, [r7, #28]
        break;
 8003706:	e014      	b.n	8003732 <UART_SetConfig+0x456>
      case UART_CLOCKSOURCE_PCLK2:
        pclk = HAL_RCC_GetPCLK2Freq();
 8003708:	f7fe fcea 	bl	80020e0 <HAL_RCC_GetPCLK2Freq>
 800370c:	61f8      	str	r0, [r7, #28]
        break;
 800370e:	e010      	b.n	8003732 <UART_SetConfig+0x456>
      case UART_CLOCKSOURCE_HSI:
        pclk = (uint32_t) HSI_VALUE;
 8003710:	4b4d      	ldr	r3, [pc, #308]	@ (8003848 <UART_SetConfig+0x56c>)
 8003712:	61fb      	str	r3, [r7, #28]
        break;
 8003714:	e00d      	b.n	8003732 <UART_SetConfig+0x456>
      case UART_CLOCKSOURCE_SYSCLK:
        pclk = HAL_RCC_GetSysClockFreq();
 8003716:	f7fe fc35 	bl	8001f84 <HAL_RCC_GetSysClockFreq>
 800371a:	61f8      	str	r0, [r7, #28]
        break;
 800371c:	e009      	b.n	8003732 <UART_SetConfig+0x456>
      case UART_CLOCKSOURCE_LSE:
        pclk = (uint32_t) LSE_VALUE;
 800371e:	f44f 4300 	mov.w	r3, #32768	@ 0x8000
 8003722:	61fb      	str	r3, [r7, #28]
        break;
 8003724:	e005      	b.n	8003732 <UART_SetConfig+0x456>
      default:
        pclk = 0U;
 8003726:	2300      	movs	r3, #0
 8003728:	61fb      	str	r3, [r7, #28]
        ret = HAL_ERROR;
 800372a:	2301      	movs	r3, #1
 800372c:	f887 3022 	strb.w	r3, [r7, #34]	@ 0x22
        break;
 8003730:	bf00      	nop
    }

    /* USARTDIV must be greater than or equal to 0d16 */
    if (pclk != 0U)
 8003732:	69fb      	ldr	r3, [r7, #28]
 8003734:	2b00      	cmp	r3, #0
 8003736:	d077      	beq.n	8003828 <UART_SetConfig+0x54c>
    {
#if defined(USART_PRESC_PRESCALER)
      usartdiv = (uint32_t)(UART_DIV_SAMPLING8(pclk, huart->Init.BaudRate, huart->Init.ClockPrescaler));
#else
      usartdiv = (uint32_t)(UART_DIV_SAMPLING8(pclk, huart->Init.BaudRate));
 8003738:	69fb      	ldr	r3, [r7, #28]
 800373a:	005a      	lsls	r2, r3, #1
 800373c:	68fb      	ldr	r3, [r7, #12]
 800373e:	685b      	ldr	r3, [r3, #4]
 8003740:	085b      	lsrs	r3, r3, #1
 8003742:	441a      	add	r2, r3
 8003744:	68fb      	ldr	r3, [r7, #12]
 8003746:	685b      	ldr	r3, [r3, #4]
 8003748:	fbb2 f3f3 	udiv	r3, r2, r3
 800374c:	61bb      	str	r3, [r7, #24]
#endif /* USART_PRESC_PRESCALER */
      if ((usartdiv >= UART_BRR_MIN) && (usartdiv <= UART_BRR_MAX))
 800374e:	69bb      	ldr	r3, [r7, #24]
 8003750:	2b0f      	cmp	r3, #15
 8003752:	d916      	bls.n	8003782 <UART_SetConfig+0x4a6>
 8003754:	69bb      	ldr	r3, [r7, #24]
 8003756:	f5b3 3f80 	cmp.w	r3, #65536	@ 0x10000
 800375a:	d212      	bcs.n	8003782 <UART_SetConfig+0x4a6>
      {
        brrtemp = (uint16_t)(usartdiv & 0xFFF0U);
 800375c:	69bb      	ldr	r3, [r7, #24]
 800375e:	b29b      	uxth	r3, r3
 8003760:	f023 030f 	bic.w	r3, r3, #15
 8003764:	82fb      	strh	r3, [r7, #22]
        brrtemp |= (uint16_t)((usartdiv & (uint16_t)0x000FU) >> 1U);
 8003766:	69bb      	ldr	r3, [r7, #24]
 8003768:	085b      	lsrs	r3, r3, #1
 800376a:	b29b      	uxth	r3, r3
 800376c:	f003 0307 	and.w	r3, r3, #7
 8003770:	b29a      	uxth	r2, r3
 8003772:	8afb      	ldrh	r3, [r7, #22]
 8003774:	4313      	orrs	r3, r2
 8003776:	82fb      	strh	r3, [r7, #22]
        huart->Instance->BRR = brrtemp;
 8003778:	68fb      	ldr	r3, [r7, #12]
 800377a:	681b      	ldr	r3, [r3, #0]
 800377c:	8afa      	ldrh	r2, [r7, #22]
 800377e:	60da      	str	r2, [r3, #12]
 8003780:	e052      	b.n	8003828 <UART_SetConfig+0x54c>
      }
      else
      {
        ret = HAL_ERROR;
 8003782:	2301      	movs	r3, #1
 8003784:	f887 3022 	strb.w	r3, [r7, #34]	@ 0x22
 8003788:	e04e      	b.n	8003828 <UART_SetConfig+0x54c>
      }
    }
  }
  else
  {
    switch (clocksource)
 800378a:	f897 3023 	ldrb.w	r3, [r7, #35]	@ 0x23
 800378e:	2b08      	cmp	r3, #8
 8003790:	d827      	bhi.n	80037e2 <UART_SetConfig+0x506>
 8003792:	a201      	add	r2, pc, #4	@ (adr r2, 8003798 <UART_SetConfig+0x4bc>)
 8003794:	f852 f023 	ldr.w	pc, [r2, r3, lsl #2]
 8003798:	080037bd 	.word	0x080037bd
 800379c:	080037c5 	.word	0x080037c5
 80037a0:	080037cd 	.word	0x080037cd
 80037a4:	080037e3 	.word	0x080037e3
 80037a8:	080037d3 	.word	0x080037d3
 80037ac:	080037e3 	.word	0x080037e3
 80037b0:	080037e3 	.word	0x080037e3
 80037b4:	080037e3 	.word	0x080037e3
 80037b8:	080037db 	.word	0x080037db
    {
      case UART_CLOCKSOURCE_PCLK1:
        pclk = HAL_RCC_GetPCLK1Freq();
 80037bc:	f7fe fc7a 	bl	80020b4 <HAL_RCC_GetPCLK1Freq>
 80037c0:	61f8      	str	r0, [r7, #28]
        break;
 80037c2:	e014      	b.n	80037ee <UART_SetConfig+0x512>
      case UART_CLOCKSOURCE_PCLK2:
        pclk = HAL_RCC_GetPCLK2Freq();
 80037c4:	f7fe fc8c 	bl	80020e0 <HAL_RCC_GetPCLK2Freq>
 80037c8:	61f8      	str	r0, [r7, #28]
        break;
 80037ca:	e010      	b.n	80037ee <UART_SetConfig+0x512>
      case UART_CLOCKSOURCE_HSI:
        pclk = (uint32_t) HSI_VALUE;
 80037cc:	4b1e      	ldr	r3, [pc, #120]	@ (8003848 <UART_SetConfig+0x56c>)
 80037ce:	61fb      	str	r3, [r7, #28]
        break;
 80037d0:	e00d      	b.n	80037ee <UART_SetConfig+0x512>
      case UART_CLOCKSOURCE_SYSCLK:
        pclk = HAL_RCC_GetSysClockFreq();
 80037d2:	f7fe fbd7 	bl	8001f84 <HAL_RCC_GetSysClockFreq>
 80037d6:	61f8      	str	r0, [r7, #28]
        break;
 80037d8:	e009      	b.n	80037ee <UART_SetConfig+0x512>
      case UART_CLOCKSOURCE_LSE:
        pclk = (uint32_t) LSE_VALUE;
 80037da:	f44f 4300 	mov.w	r3, #32768	@ 0x8000
 80037de:	61fb      	str	r3, [r7, #28]
        break;
 80037e0:	e005      	b.n	80037ee <UART_SetConfig+0x512>
      default:
        pclk = 0U;
 80037e2:	2300      	movs	r3, #0
 80037e4:	61fb      	str	r3, [r7, #28]
        ret = HAL_ERROR;
 80037e6:	2301      	movs	r3, #1
 80037e8:	f887 3022 	strb.w	r3, [r7, #34]	@ 0x22
        break;
 80037ec:	bf00      	nop
    }

    if (pclk != 0U)
 80037ee:	69fb      	ldr	r3, [r7, #28]
 80037f0:	2b00      	cmp	r3, #0
 80037f2:	d019      	beq.n	8003828 <UART_SetConfig+0x54c>
    {
      /* USARTDIV must be greater than or equal to 0d16 */
#if defined(USART_PRESC_PRESCALER)
      usartdiv = (uint32_t)(UART_DIV_SAMPLING16(pclk, huart->Init.BaudRate, huart->Init.ClockPrescaler));
#else
      usartdiv = (uint32_t)(UART_DIV_SAMPLING16(pclk, huart->Init.BaudRate));
 80037f4:	68fb      	ldr	r3, [r7, #12]
 80037f6:	685b      	ldr	r3, [r3, #4]
 80037f8:	085a      	lsrs	r2, r3, #1
 80037fa:	69fb      	ldr	r3, [r7, #28]
 80037fc:	441a      	add	r2, r3
 80037fe:	68fb      	ldr	r3, [r7, #12]
 8003800:	685b      	ldr	r3, [r3, #4]
 8003802:	fbb2 f3f3 	udiv	r3, r2, r3
 8003806:	61bb      	str	r3, [r7, #24]
#endif /* USART_PRESC_PRESCALER */
      if ((usartdiv >= UART_BRR_MIN) && (usartdiv <= UART_BRR_MAX))
 8003808:	69bb      	ldr	r3, [r7, #24]
 800380a:	2b0f      	cmp	r3, #15
 800380c:	d909      	bls.n	8003822 <UART_SetConfig+0x546>
 800380e:	69bb      	ldr	r3, [r7, #24]
 8003810:	f5b3 3f80 	cmp.w	r3, #65536	@ 0x10000
 8003814:	d205      	bcs.n	8003822 <UART_SetConfig+0x546>
      {
        huart->Instance->BRR = (uint16_t)usartdiv;
 8003816:	69bb      	ldr	r3, [r7, #24]
 8003818:	b29a      	uxth	r2, r3
 800381a:	68fb      	ldr	r3, [r7, #12]
 800381c:	681b      	ldr	r3, [r3, #0]
 800381e:	60da      	str	r2, [r3, #12]
 8003820:	e002      	b.n	8003828 <UART_SetConfig+0x54c>
      }
      else
      {
        ret = HAL_ERROR;
 8003822:	2301      	movs	r3, #1
 8003824:	f887 3022 	strb.w	r3, [r7, #34]	@ 0x22
  huart->NbTxDataToProcess = 1;
  huart->NbRxDataToProcess = 1;
#endif /* USART_CR1_FIFOEN */

  /* Clear ISR function pointers */
  huart->RxISR = NULL;
 8003828:	68fb      	ldr	r3, [r7, #12]
 800382a:	2200      	movs	r2, #0
 800382c:	669a      	str	r2, [r3, #104]	@ 0x68
  huart->TxISR = NULL;
 800382e:	68fb      	ldr	r3, [r7, #12]
 8003830:	2200      	movs	r2, #0
 8003832:	66da      	str	r2, [r3, #108]	@ 0x6c

  return ret;
 8003834:	f897 3022 	ldrb.w	r3, [r7, #34]	@ 0x22
}
 8003838:	4618      	mov	r0, r3
 800383a:	3728      	adds	r7, #40	@ 0x28
 800383c:	46bd      	mov	sp, r7
 800383e:	e8bd 8fb0 	ldmia.w	sp!, {r4, r5, r7, r8, r9, sl, fp, pc}
 8003842:	bf00      	nop
 8003844:	40008000 	.word	0x40008000
 8003848:	00f42400 	.word	0x00f42400

0800384c <UART_AdvFeatureConfig>:
  * @brief Configure the UART peripheral advanced features.
  * @param huart UART handle.
  * @retval None
  */
void UART_AdvFeatureConfig(UART_HandleTypeDef *huart)
{
 800384c:	b480      	push	{r7}
 800384e:	b083      	sub	sp, #12
 8003850:	af00      	add	r7, sp, #0
 8003852:	6078      	str	r0, [r7, #4]
  /* Check whether the set of advanced features to configure is properly set */
  assert_param(IS_UART_ADVFEATURE_INIT(huart->AdvancedInit.AdvFeatureInit));

  /* if required, configure RX/TX pins swap */
  if (HAL_IS_BIT_SET(huart->AdvancedInit.AdvFeatureInit, UART_ADVFEATURE_SWAP_INIT))
 8003854:	687b      	ldr	r3, [r7, #4]
 8003856:	6a5b      	ldr	r3, [r3, #36]	@ 0x24
 8003858:	f003 0308 	and.w	r3, r3, #8
 800385c:	2b00      	cmp	r3, #0
 800385e:	d00a      	beq.n	8003876 <UART_AdvFeatureConfig+0x2a>
  {
    assert_param(IS_UART_ADVFEATURE_SWAP(huart->AdvancedInit.Swap));
    MODIFY_REG(huart->Instance->CR2, USART_CR2_SWAP, huart->AdvancedInit.Swap);
 8003860:	687b      	ldr	r3, [r7, #4]
 8003862:	681b      	ldr	r3, [r3, #0]
 8003864:	685b      	ldr	r3, [r3, #4]
 8003866:	f423 4100 	bic.w	r1, r3, #32768	@ 0x8000
 800386a:	687b      	ldr	r3, [r7, #4]
 800386c:	6b5a      	ldr	r2, [r3, #52]	@ 0x34
 800386e:	687b      	ldr	r3, [r7, #4]
 8003870:	681b      	ldr	r3, [r3, #0]
 8003872:	430a      	orrs	r2, r1
 8003874:	605a      	str	r2, [r3, #4]
  }

  /* if required, configure TX pin active level inversion */
  if (HAL_IS_BIT_SET(huart->AdvancedInit.AdvFeatureInit, UART_ADVFEATURE_TXINVERT_INIT))
 8003876:	687b      	ldr	r3, [r7, #4]
 8003878:	6a5b      	ldr	r3, [r3, #36]	@ 0x24
 800387a:	f003 0301 	and.w	r3, r3, #1
 800387e:	2b00      	cmp	r3, #0
 8003880:	d00a      	beq.n	8003898 <UART_AdvFeatureConfig+0x4c>
  {
    assert_param(IS_UART_ADVFEATURE_TXINV(huart->AdvancedInit.TxPinLevelInvert));
    MODIFY_REG(huart->Instance->CR2, USART_CR2_TXINV, huart->AdvancedInit.TxPinLevelInvert);
 8003882:	687b      	ldr	r3, [r7, #4]
 8003884:	681b      	ldr	r3, [r3, #0]
 8003886:	685b      	ldr	r3, [r3, #4]
 8003888:	f423 3100 	bic.w	r1, r3, #131072	@ 0x20000
 800388c:	687b      	ldr	r3, [r7, #4]
 800388e:	6a9a      	ldr	r2, [r3, #40]	@ 0x28
 8003890:	687b      	ldr	r3, [r7, #4]
 8003892:	681b      	ldr	r3, [r3, #0]
 8003894:	430a      	orrs	r2, r1
 8003896:	605a      	str	r2, [r3, #4]
  }

  /* if required, configure RX pin active level inversion */
  if (HAL_IS_BIT_SET(huart->AdvancedInit.AdvFeatureInit, UART_ADVFEATURE_RXINVERT_INIT))
 8003898:	687b      	ldr	r3, [r7, #4]
 800389a:	6a5b      	ldr	r3, [r3, #36]	@ 0x24
 800389c:	f003 0302 	and.w	r3, r3, #2
 80038a0:	2b00      	cmp	r3, #0
 80038a2:	d00a      	beq.n	80038ba <UART_AdvFeatureConfig+0x6e>
  {
    assert_param(IS_UART_ADVFEATURE_RXINV(huart->AdvancedInit.RxPinLevelInvert));
    MODIFY_REG(huart->Instance->CR2, USART_CR2_RXINV, huart->AdvancedInit.RxPinLevelInvert);
 80038a4:	687b      	ldr	r3, [r7, #4]
 80038a6:	681b      	ldr	r3, [r3, #0]
 80038a8:	685b      	ldr	r3, [r3, #4]
 80038aa:	f423 3180 	bic.w	r1, r3, #65536	@ 0x10000
 80038ae:	687b      	ldr	r3, [r7, #4]
 80038b0:	6ada      	ldr	r2, [r3, #44]	@ 0x2c
 80038b2:	687b      	ldr	r3, [r7, #4]
 80038b4:	681b      	ldr	r3, [r3, #0]
 80038b6:	430a      	orrs	r2, r1
 80038b8:	605a      	str	r2, [r3, #4]
  }

  /* if required, configure data inversion */
  if (HAL_IS_BIT_SET(huart->AdvancedInit.AdvFeatureInit, UART_ADVFEATURE_DATAINVERT_INIT))
 80038ba:	687b      	ldr	r3, [r7, #4]
 80038bc:	6a5b      	ldr	r3, [r3, #36]	@ 0x24
 80038be:	f003 0304 	and.w	r3, r3, #4
 80038c2:	2b00      	cmp	r3, #0
 80038c4:	d00a      	beq.n	80038dc <UART_AdvFeatureConfig+0x90>
  {
    assert_param(IS_UART_ADVFEATURE_DATAINV(huart->AdvancedInit.DataInvert));
    MODIFY_REG(huart->Instance->CR2, USART_CR2_DATAINV, huart->AdvancedInit.DataInvert);
 80038c6:	687b      	ldr	r3, [r7, #4]
 80038c8:	681b      	ldr	r3, [r3, #0]
 80038ca:	685b      	ldr	r3, [r3, #4]
 80038cc:	f423 2180 	bic.w	r1, r3, #262144	@ 0x40000
 80038d0:	687b      	ldr	r3, [r7, #4]
 80038d2:	6b1a      	ldr	r2, [r3, #48]	@ 0x30
 80038d4:	687b      	ldr	r3, [r7, #4]
 80038d6:	681b      	ldr	r3, [r3, #0]
 80038d8:	430a      	orrs	r2, r1
 80038da:	605a      	str	r2, [r3, #4]
  }

  /* if required, configure RX overrun detection disabling */
  if (HAL_IS_BIT_SET(huart->AdvancedInit.AdvFeatureInit, UART_ADVFEATURE_RXOVERRUNDISABLE_INIT))
 80038dc:	687b      	ldr	r3, [r7, #4]
 80038de:	6a5b      	ldr	r3, [r3, #36]	@ 0x24
 80038e0:	f003 0310 	and.w	r3, r3, #16
 80038e4:	2b00      	cmp	r3, #0
 80038e6:	d00a      	beq.n	80038fe <UART_AdvFeatureConfig+0xb2>
  {
    assert_param(IS_UART_OVERRUN(huart->AdvancedInit.OverrunDisable));
    MODIFY_REG(huart->Instance->CR3, USART_CR3_OVRDIS, huart->AdvancedInit.OverrunDisable);
 80038e8:	687b      	ldr	r3, [r7, #4]
 80038ea:	681b      	ldr	r3, [r3, #0]
 80038ec:	689b      	ldr	r3, [r3, #8]
 80038ee:	f423 5180 	bic.w	r1, r3, #4096	@ 0x1000
 80038f2:	687b      	ldr	r3, [r7, #4]
 80038f4:	6b9a      	ldr	r2, [r3, #56]	@ 0x38
 80038f6:	687b      	ldr	r3, [r7, #4]
 80038f8:	681b      	ldr	r3, [r3, #0]
 80038fa:	430a      	orrs	r2, r1
 80038fc:	609a      	str	r2, [r3, #8]
  }

  /* if required, configure DMA disabling on reception error */
  if (HAL_IS_BIT_SET(huart->AdvancedInit.AdvFeatureInit, UART_ADVFEATURE_DMADISABLEONERROR_INIT))
 80038fe:	687b      	ldr	r3, [r7, #4]
 8003900:	6a5b      	ldr	r3, [r3, #36]	@ 0x24
 8003902:	f003 0320 	and.w	r3, r3, #32
 8003906:	2b00      	cmp	r3, #0
 8003908:	d00a      	beq.n	8003920 <UART_AdvFeatureConfig+0xd4>
  {
    assert_param(IS_UART_ADVFEATURE_DMAONRXERROR(huart->AdvancedInit.DMADisableonRxError));
    MODIFY_REG(huart->Instance->CR3, USART_CR3_DDRE, huart->AdvancedInit.DMADisableonRxError);
 800390a:	687b      	ldr	r3, [r7, #4]
 800390c:	681b      	ldr	r3, [r3, #0]
 800390e:	689b      	ldr	r3, [r3, #8]
 8003910:	f423 5100 	bic.w	r1, r3, #8192	@ 0x2000
 8003914:	687b      	ldr	r3, [r7, #4]
 8003916:	6bda      	ldr	r2, [r3, #60]	@ 0x3c
 8003918:	687b      	ldr	r3, [r7, #4]
 800391a:	681b      	ldr	r3, [r3, #0]
 800391c:	430a      	orrs	r2, r1
 800391e:	609a      	str	r2, [r3, #8]
  }

  /* if required, configure auto Baud rate detection scheme */
  if (HAL_IS_BIT_SET(huart->AdvancedInit.AdvFeatureInit, UART_ADVFEATURE_AUTOBAUDRATE_INIT))
 8003920:	687b      	ldr	r3, [r7, #4]
 8003922:	6a5b      	ldr	r3, [r3, #36]	@ 0x24
 8003924:	f003 0340 	and.w	r3, r3, #64	@ 0x40
 8003928:	2b00      	cmp	r3, #0
 800392a:	d01a      	beq.n	8003962 <UART_AdvFeatureConfig+0x116>
  {
    assert_param(IS_USART_AUTOBAUDRATE_DETECTION_INSTANCE(huart->Instance));
    assert_param(IS_UART_ADVFEATURE_AUTOBAUDRATE(huart->AdvancedInit.AutoBaudRateEnable));
    MODIFY_REG(huart->Instance->CR2, USART_CR2_ABREN, huart->AdvancedInit.AutoBaudRateEnable);
 800392c:	687b      	ldr	r3, [r7, #4]
 800392e:	681b      	ldr	r3, [r3, #0]
 8003930:	685b      	ldr	r3, [r3, #4]
 8003932:	f423 1180 	bic.w	r1, r3, #1048576	@ 0x100000
 8003936:	687b      	ldr	r3, [r7, #4]
 8003938:	6c1a      	ldr	r2, [r3, #64]	@ 0x40
 800393a:	687b      	ldr	r3, [r7, #4]
 800393c:	681b      	ldr	r3, [r3, #0]
 800393e:	430a      	orrs	r2, r1
 8003940:	605a      	str	r2, [r3, #4]
    /* set auto Baudrate detection parameters if detection is enabled */
    if (huart->AdvancedInit.AutoBaudRateEnable == UART_ADVFEATURE_AUTOBAUDRATE_ENABLE)
 8003942:	687b      	ldr	r3, [r7, #4]
 8003944:	6c1b      	ldr	r3, [r3, #64]	@ 0x40
 8003946:	f5b3 1f80 	cmp.w	r3, #1048576	@ 0x100000
 800394a:	d10a      	bne.n	8003962 <UART_AdvFeatureConfig+0x116>
    {
      assert_param(IS_UART_ADVFEATURE_AUTOBAUDRATEMODE(huart->AdvancedInit.AutoBaudRateMode));
      MODIFY_REG(huart->Instance->CR2, USART_CR2_ABRMODE, huart->AdvancedInit.AutoBaudRateMode);
 800394c:	687b      	ldr	r3, [r7, #4]
 800394e:	681b      	ldr	r3, [r3, #0]
 8003950:	685b      	ldr	r3, [r3, #4]
 8003952:	f423 01c0 	bic.w	r1, r3, #6291456	@ 0x600000
 8003956:	687b      	ldr	r3, [r7, #4]
 8003958:	6c5a      	ldr	r2, [r3, #68]	@ 0x44
 800395a:	687b      	ldr	r3, [r7, #4]
 800395c:	681b      	ldr	r3, [r3, #0]
 800395e:	430a      	orrs	r2, r1
 8003960:	605a      	str	r2, [r3, #4]
    }
  }

  /* if required, configure MSB first on communication line */
  if (HAL_IS_BIT_SET(huart->AdvancedInit.AdvFeatureInit, UART_ADVFEATURE_MSBFIRST_INIT))
 8003962:	687b      	ldr	r3, [r7, #4]
 8003964:	6a5b      	ldr	r3, [r3, #36]	@ 0x24
 8003966:	f003 0380 	and.w	r3, r3, #128	@ 0x80
 800396a:	2b00      	cmp	r3, #0
 800396c:	d00a      	beq.n	8003984 <UART_AdvFeatureConfig+0x138>
  {
    assert_param(IS_UART_ADVFEATURE_MSBFIRST(huart->AdvancedInit.MSBFirst));
    MODIFY_REG(huart->Instance->CR2, USART_CR2_MSBFIRST, huart->AdvancedInit.MSBFirst);
 800396e:	687b      	ldr	r3, [r7, #4]
 8003970:	681b      	ldr	r3, [r3, #0]
 8003972:	685b      	ldr	r3, [r3, #4]
 8003974:	f423 2100 	bic.w	r1, r3, #524288	@ 0x80000
 8003978:	687b      	ldr	r3, [r7, #4]
 800397a:	6c9a      	ldr	r2, [r3, #72]	@ 0x48
 800397c:	687b      	ldr	r3, [r7, #4]
 800397e:	681b      	ldr	r3, [r3, #0]
 8003980:	430a      	orrs	r2, r1
 8003982:	605a      	str	r2, [r3, #4]
  }
}
 8003984:	bf00      	nop
 8003986:	370c      	adds	r7, #12
 8003988:	46bd      	mov	sp, r7
 800398a:	f85d 7b04 	ldr.w	r7, [sp], #4
 800398e:	4770      	bx	lr

08003990 <UART_CheckIdleState>:
  * @brief Check the UART Idle State.
  * @param huart UART handle.
  * @retval HAL status
  */
HAL_StatusTypeDef UART_CheckIdleState(UART_HandleTypeDef *huart)
{
 8003990:	b580      	push	{r7, lr}
 8003992:	b098      	sub	sp, #96	@ 0x60
 8003994:	af02      	add	r7, sp, #8
 8003996:	6078      	str	r0, [r7, #4]
  uint32_t tickstart;

  /* Initialize the UART ErrorCode */
  huart->ErrorCode = HAL_UART_ERROR_NONE;
 8003998:	687b      	ldr	r3, [r7, #4]
 800399a:	2200      	movs	r2, #0
 800399c:	f8c3 2084 	str.w	r2, [r3, #132]	@ 0x84

  /* Init tickstart for timeout management */
  tickstart = HAL_GetTick();
 80039a0:	f7fd fa7c 	bl	8000e9c <HAL_GetTick>
 80039a4:	6578      	str	r0, [r7, #84]	@ 0x54

  /* Check if the Transmitter is enabled */
  if ((huart->Instance->CR1 & USART_CR1_TE) == USART_CR1_TE)
 80039a6:	687b      	ldr	r3, [r7, #4]
 80039a8:	681b      	ldr	r3, [r3, #0]
 80039aa:	681b      	ldr	r3, [r3, #0]
 80039ac:	f003 0308 	and.w	r3, r3, #8
 80039b0:	2b08      	cmp	r3, #8
 80039b2:	d12e      	bne.n	8003a12 <UART_CheckIdleState+0x82>
  {
    /* Wait until TEACK flag is set */
    if (UART_WaitOnFlagUntilTimeout(huart, USART_ISR_TEACK, RESET, tickstart, HAL_UART_TIMEOUT_VALUE) != HAL_OK)
 80039b4:	f06f 437e 	mvn.w	r3, #4261412864	@ 0xfe000000
 80039b8:	9300      	str	r3, [sp, #0]
 80039ba:	6d7b      	ldr	r3, [r7, #84]	@ 0x54
 80039bc:	2200      	movs	r2, #0
 80039be:	f44f 1100 	mov.w	r1, #2097152	@ 0x200000
 80039c2:	6878      	ldr	r0, [r7, #4]
 80039c4:	f000 f88c 	bl	8003ae0 <UART_WaitOnFlagUntilTimeout>
 80039c8:	4603      	mov	r3, r0
 80039ca:	2b00      	cmp	r3, #0
 80039cc:	d021      	beq.n	8003a12 <UART_CheckIdleState+0x82>
    {
      /* Disable TXE interrupt for the interrupt process */
#if defined(USART_CR1_FIFOEN)
      ATOMIC_CLEAR_BIT(huart->Instance->CR1, (USART_CR1_TXEIE_TXFNFIE));
#else
      ATOMIC_CLEAR_BIT(huart->Instance->CR1, (USART_CR1_TXEIE));
 80039ce:	687b      	ldr	r3, [r7, #4]
 80039d0:	681b      	ldr	r3, [r3, #0]
 80039d2:	63bb      	str	r3, [r7, #56]	@ 0x38
 */
__STATIC_FORCEINLINE uint32_t __LDREXW(volatile uint32_t *addr)
{
    uint32_t result;

   __ASM volatile ("ldrex %0, %1" : "=r" (result) : "Q" (*addr) );
 80039d4:	6bbb      	ldr	r3, [r7, #56]	@ 0x38
 80039d6:	e853 3f00 	ldrex	r3, [r3]
 80039da:	637b      	str	r3, [r7, #52]	@ 0x34
   return(result);
 80039dc:	6b7b      	ldr	r3, [r7, #52]	@ 0x34
 80039de:	f023 0380 	bic.w	r3, r3, #128	@ 0x80
 80039e2:	653b      	str	r3, [r7, #80]	@ 0x50
 80039e4:	687b      	ldr	r3, [r7, #4]
 80039e6:	681b      	ldr	r3, [r3, #0]
 80039e8:	461a      	mov	r2, r3
 80039ea:	6d3b      	ldr	r3, [r7, #80]	@ 0x50
 80039ec:	647b      	str	r3, [r7, #68]	@ 0x44
 80039ee:	643a      	str	r2, [r7, #64]	@ 0x40
 */
__STATIC_FORCEINLINE uint32_t __STREXW(uint32_t value, volatile uint32_t *addr)
{
   uint32_t result;

   __ASM volatile ("strex %0, %2, %1" : "=&r" (result), "=Q" (*addr) : "r" (value) );
 80039f0:	6c39      	ldr	r1, [r7, #64]	@ 0x40
 80039f2:	6c7a      	ldr	r2, [r7, #68]	@ 0x44
 80039f4:	e841 2300 	strex	r3, r2, [r1]
 80039f8:	63fb      	str	r3, [r7, #60]	@ 0x3c
   return(result);
 80039fa:	6bfb      	ldr	r3, [r7, #60]	@ 0x3c
 80039fc:	2b00      	cmp	r3, #0
 80039fe:	d1e6      	bne.n	80039ce <UART_CheckIdleState+0x3e>
#endif /* USART_CR1_FIFOEN */

      huart->gState = HAL_UART_STATE_READY;
 8003a00:	687b      	ldr	r3, [r7, #4]
 8003a02:	2220      	movs	r2, #32
 8003a04:	67da      	str	r2, [r3, #124]	@ 0x7c

      __HAL_UNLOCK(huart);
 8003a06:	687b      	ldr	r3, [r7, #4]
 8003a08:	2200      	movs	r2, #0
 8003a0a:	f883 2078 	strb.w	r2, [r3, #120]	@ 0x78

      /* Timeout occurred */
      return HAL_TIMEOUT;
 8003a0e:	2303      	movs	r3, #3
 8003a10:	e062      	b.n	8003ad8 <UART_CheckIdleState+0x148>
    }
  }

  /* Check if the Receiver is enabled */
  if ((huart->Instance->CR1 & USART_CR1_RE) == USART_CR1_RE)
 8003a12:	687b      	ldr	r3, [r7, #4]
 8003a14:	681b      	ldr	r3, [r3, #0]
 8003a16:	681b      	ldr	r3, [r3, #0]
 8003a18:	f003 0304 	and.w	r3, r3, #4
 8003a1c:	2b04      	cmp	r3, #4
 8003a1e:	d149      	bne.n	8003ab4 <UART_CheckIdleState+0x124>
  {
    /* Wait until REACK flag is set */
    if (UART_WaitOnFlagUntilTimeout(huart, USART_ISR_REACK, RESET, tickstart, HAL_UART_TIMEOUT_VALUE) != HAL_OK)
 8003a20:	f06f 437e 	mvn.w	r3, #4261412864	@ 0xfe000000
 8003a24:	9300      	str	r3, [sp, #0]
 8003a26:	6d7b      	ldr	r3, [r7, #84]	@ 0x54
 8003a28:	2200      	movs	r2, #0
 8003a2a:	f44f 0180 	mov.w	r1, #4194304	@ 0x400000
 8003a2e:	6878      	ldr	r0, [r7, #4]
 8003a30:	f000 f856 	bl	8003ae0 <UART_WaitOnFlagUntilTimeout>
 8003a34:	4603      	mov	r3, r0
 8003a36:	2b00      	cmp	r3, #0
 8003a38:	d03c      	beq.n	8003ab4 <UART_CheckIdleState+0x124>
      /* Disable RXNE, PE and ERR (Frame error, noise error, overrun error)
      interrupts for the interrupt process */
#if defined(USART_CR1_FIFOEN)
      ATOMIC_CLEAR_BIT(huart->Instance->CR1, (USART_CR1_RXNEIE_RXFNEIE | USART_CR1_PEIE));
#else
      ATOMIC_CLEAR_BIT(huart->Instance->CR1, (USART_CR1_RXNEIE | USART_CR1_PEIE));
 8003a3a:	687b      	ldr	r3, [r7, #4]
 8003a3c:	681b      	ldr	r3, [r3, #0]
 8003a3e:	627b      	str	r3, [r7, #36]	@ 0x24
   __ASM volatile ("ldrex %0, %1" : "=r" (result) : "Q" (*addr) );
 8003a40:	6a7b      	ldr	r3, [r7, #36]	@ 0x24
 8003a42:	e853 3f00 	ldrex	r3, [r3]
 8003a46:	623b      	str	r3, [r7, #32]
   return(result);
 8003a48:	6a3b      	ldr	r3, [r7, #32]
 8003a4a:	f423 7390 	bic.w	r3, r3, #288	@ 0x120
 8003a4e:	64fb      	str	r3, [r7, #76]	@ 0x4c
 8003a50:	687b      	ldr	r3, [r7, #4]
 8003a52:	681b      	ldr	r3, [r3, #0]
 8003a54:	461a      	mov	r2, r3
 8003a56:	6cfb      	ldr	r3, [r7, #76]	@ 0x4c
 8003a58:	633b      	str	r3, [r7, #48]	@ 0x30
 8003a5a:	62fa      	str	r2, [r7, #44]	@ 0x2c
   __ASM volatile ("strex %0, %2, %1" : "=&r" (result), "=Q" (*addr) : "r" (value) );
 8003a5c:	6af9      	ldr	r1, [r7, #44]	@ 0x2c
 8003a5e:	6b3a      	ldr	r2, [r7, #48]	@ 0x30
 8003a60:	e841 2300 	strex	r3, r2, [r1]
 8003a64:	62bb      	str	r3, [r7, #40]	@ 0x28
   return(result);
 8003a66:	6abb      	ldr	r3, [r7, #40]	@ 0x28
 8003a68:	2b00      	cmp	r3, #0
 8003a6a:	d1e6      	bne.n	8003a3a <UART_CheckIdleState+0xaa>
#endif /* USART_CR1_FIFOEN */
      ATOMIC_CLEAR_BIT(huart->Instance->CR3, USART_CR3_EIE);
 8003a6c:	687b      	ldr	r3, [r7, #4]
 8003a6e:	681b      	ldr	r3, [r3, #0]
 8003a70:	3308      	adds	r3, #8
 8003a72:	613b      	str	r3, [r7, #16]
   __ASM volatile ("ldrex %0, %1" : "=r" (result) : "Q" (*addr) );
 8003a74:	693b      	ldr	r3, [r7, #16]
 8003a76:	e853 3f00 	ldrex	r3, [r3]
 8003a7a:	60fb      	str	r3, [r7, #12]
   return(result);
 8003a7c:	68fb      	ldr	r3, [r7, #12]
 8003a7e:	f023 0301 	bic.w	r3, r3, #1
 8003a82:	64bb      	str	r3, [r7, #72]	@ 0x48
 8003a84:	687b      	ldr	r3, [r7, #4]
 8003a86:	681b      	ldr	r3, [r3, #0]
 8003a88:	3308      	adds	r3, #8
 8003a8a:	6cba      	ldr	r2, [r7, #72]	@ 0x48
 8003a8c:	61fa      	str	r2, [r7, #28]
 8003a8e:	61bb      	str	r3, [r7, #24]
   __ASM volatile ("strex %0, %2, %1" : "=&r" (result), "=Q" (*addr) : "r" (value) );
 8003a90:	69b9      	ldr	r1, [r7, #24]
 8003a92:	69fa      	ldr	r2, [r7, #28]
 8003a94:	e841 2300 	strex	r3, r2, [r1]
 8003a98:	617b      	str	r3, [r7, #20]
   return(result);
 8003a9a:	697b      	ldr	r3, [r7, #20]
 8003a9c:	2b00      	cmp	r3, #0
 8003a9e:	d1e5      	bne.n	8003a6c <UART_CheckIdleState+0xdc>

      huart->RxState = HAL_UART_STATE_READY;
 8003aa0:	687b      	ldr	r3, [r7, #4]
 8003aa2:	2220      	movs	r2, #32
 8003aa4:	f8c3 2080 	str.w	r2, [r3, #128]	@ 0x80

      __HAL_UNLOCK(huart);
 8003aa8:	687b      	ldr	r3, [r7, #4]
 8003aaa:	2200      	movs	r2, #0
 8003aac:	f883 2078 	strb.w	r2, [r3, #120]	@ 0x78

      /* Timeout occurred */
      return HAL_TIMEOUT;
 8003ab0:	2303      	movs	r3, #3
 8003ab2:	e011      	b.n	8003ad8 <UART_CheckIdleState+0x148>
    }
  }

  /* Initialize the UART State */
  huart->gState = HAL_UART_STATE_READY;
 8003ab4:	687b      	ldr	r3, [r7, #4]
 8003ab6:	2220      	movs	r2, #32
 8003ab8:	67da      	str	r2, [r3, #124]	@ 0x7c
  huart->RxState = HAL_UART_STATE_READY;
 8003aba:	687b      	ldr	r3, [r7, #4]
 8003abc:	2220      	movs	r2, #32
 8003abe:	f8c3 2080 	str.w	r2, [r3, #128]	@ 0x80
  huart->ReceptionType = HAL_UART_RECEPTION_STANDARD;
 8003ac2:	687b      	ldr	r3, [r7, #4]
 8003ac4:	2200      	movs	r2, #0
 8003ac6:	661a      	str	r2, [r3, #96]	@ 0x60
  huart->RxEventType = HAL_UART_RXEVENT_TC;
 8003ac8:	687b      	ldr	r3, [r7, #4]
 8003aca:	2200      	movs	r2, #0
 8003acc:	665a      	str	r2, [r3, #100]	@ 0x64

  __HAL_UNLOCK(huart);
 8003ace:	687b      	ldr	r3, [r7, #4]
 8003ad0:	2200      	movs	r2, #0
 8003ad2:	f883 2078 	strb.w	r2, [r3, #120]	@ 0x78

  return HAL_OK;
 8003ad6:	2300      	movs	r3, #0
}
 8003ad8:	4618      	mov	r0, r3
 8003ada:	3758      	adds	r7, #88	@ 0x58
 8003adc:	46bd      	mov	sp, r7
 8003ade:	bd80      	pop	{r7, pc}

08003ae0 <UART_WaitOnFlagUntilTimeout>:
  * @param Timeout   Timeout duration
  * @retval HAL status
  */
HAL_StatusTypeDef UART_WaitOnFlagUntilTimeout(UART_HandleTypeDef *huart, uint32_t Flag, FlagStatus Status,
                                              uint32_t Tickstart, uint32_t Timeout)
{
 8003ae0:	b580      	push	{r7, lr}
 8003ae2:	b084      	sub	sp, #16
 8003ae4:	af00      	add	r7, sp, #0
 8003ae6:	60f8      	str	r0, [r7, #12]
 8003ae8:	60b9      	str	r1, [r7, #8]
 8003aea:	603b      	str	r3, [r7, #0]
 8003aec:	4613      	mov	r3, r2
 8003aee:	71fb      	strb	r3, [r7, #7]
  /* Wait until flag is set */
  while ((__HAL_UART_GET_FLAG(huart, Flag) ? SET : RESET) == Status)
 8003af0:	e04f      	b.n	8003b92 <UART_WaitOnFlagUntilTimeout+0xb2>
  {
    /* Check for the Timeout */
    if (Timeout != HAL_MAX_DELAY)
 8003af2:	69bb      	ldr	r3, [r7, #24]
 8003af4:	f1b3 3fff 	cmp.w	r3, #4294967295
 8003af8:	d04b      	beq.n	8003b92 <UART_WaitOnFlagUntilTimeout+0xb2>
    {
      if (((HAL_GetTick() - Tickstart) > Timeout) || (Timeout == 0U))
 8003afa:	f7fd f9cf 	bl	8000e9c <HAL_GetTick>
 8003afe:	4602      	mov	r2, r0
 8003b00:	683b      	ldr	r3, [r7, #0]
 8003b02:	1ad3      	subs	r3, r2, r3
 8003b04:	69ba      	ldr	r2, [r7, #24]
 8003b06:	429a      	cmp	r2, r3
 8003b08:	d302      	bcc.n	8003b10 <UART_WaitOnFlagUntilTimeout+0x30>
 8003b0a:	69bb      	ldr	r3, [r7, #24]
 8003b0c:	2b00      	cmp	r3, #0
 8003b0e:	d101      	bne.n	8003b14 <UART_WaitOnFlagUntilTimeout+0x34>
      {

        return HAL_TIMEOUT;
 8003b10:	2303      	movs	r3, #3
 8003b12:	e04e      	b.n	8003bb2 <UART_WaitOnFlagUntilTimeout+0xd2>
      }

      if ((READ_BIT(huart->Instance->CR1, USART_CR1_RE) != 0U) && (Flag != UART_FLAG_TXE) && (Flag != UART_FLAG_TC))
 8003b14:	68fb      	ldr	r3, [r7, #12]
 8003b16:	681b      	ldr	r3, [r3, #0]
 8003b18:	681b      	ldr	r3, [r3, #0]
 8003b1a:	f003 0304 	and.w	r3, r3, #4
 8003b1e:	2b00      	cmp	r3, #0
 8003b20:	d037      	beq.n	8003b92 <UART_WaitOnFlagUntilTimeout+0xb2>
 8003b22:	68bb      	ldr	r3, [r7, #8]
 8003b24:	2b80      	cmp	r3, #128	@ 0x80
 8003b26:	d034      	beq.n	8003b92 <UART_WaitOnFlagUntilTimeout+0xb2>
 8003b28:	68bb      	ldr	r3, [r7, #8]
 8003b2a:	2b40      	cmp	r3, #64	@ 0x40
 8003b2c:	d031      	beq.n	8003b92 <UART_WaitOnFlagUntilTimeout+0xb2>
      {
        if (__HAL_UART_GET_FLAG(huart, UART_FLAG_ORE) == SET)
 8003b2e:	68fb      	ldr	r3, [r7, #12]
 8003b30:	681b      	ldr	r3, [r3, #0]
 8003b32:	69db      	ldr	r3, [r3, #28]
 8003b34:	f003 0308 	and.w	r3, r3, #8
 8003b38:	2b08      	cmp	r3, #8
 8003b3a:	d110      	bne.n	8003b5e <UART_WaitOnFlagUntilTimeout+0x7e>
        {
          /* Clear Overrun Error flag*/
          __HAL_UART_CLEAR_FLAG(huart, UART_CLEAR_OREF);
 8003b3c:	68fb      	ldr	r3, [r7, #12]
 8003b3e:	681b      	ldr	r3, [r3, #0]
 8003b40:	2208      	movs	r2, #8
 8003b42:	621a      	str	r2, [r3, #32]

          /* Blocking error : transfer is aborted
          Set the UART state ready to be able to start again the process,
          Disable Rx Interrupts if ongoing */
          UART_EndRxTransfer(huart);
 8003b44:	68f8      	ldr	r0, [r7, #12]
 8003b46:	f000 f838 	bl	8003bba <UART_EndRxTransfer>

          huart->ErrorCode = HAL_UART_ERROR_ORE;
 8003b4a:	68fb      	ldr	r3, [r7, #12]
 8003b4c:	2208      	movs	r2, #8
 8003b4e:	f8c3 2084 	str.w	r2, [r3, #132]	@ 0x84

          /* Process Unlocked */
          __HAL_UNLOCK(huart);
 8003b52:	68fb      	ldr	r3, [r7, #12]
 8003b54:	2200      	movs	r2, #0
 8003b56:	f883 2078 	strb.w	r2, [r3, #120]	@ 0x78

          return HAL_ERROR;
 8003b5a:	2301      	movs	r3, #1
 8003b5c:	e029      	b.n	8003bb2 <UART_WaitOnFlagUntilTimeout+0xd2>
        }
        if (__HAL_UART_GET_FLAG(huart, UART_FLAG_RTOF) == SET)
 8003b5e:	68fb      	ldr	r3, [r7, #12]
 8003b60:	681b      	ldr	r3, [r3, #0]
 8003b62:	69db      	ldr	r3, [r3, #28]
 8003b64:	f403 6300 	and.w	r3, r3, #2048	@ 0x800
 8003b68:	f5b3 6f00 	cmp.w	r3, #2048	@ 0x800
 8003b6c:	d111      	bne.n	8003b92 <UART_WaitOnFlagUntilTimeout+0xb2>
        {
          /* Clear Receiver Timeout flag*/
          __HAL_UART_CLEAR_FLAG(huart, UART_CLEAR_RTOF);
 8003b6e:	68fb      	ldr	r3, [r7, #12]
 8003b70:	681b      	ldr	r3, [r3, #0]
 8003b72:	f44f 6200 	mov.w	r2, #2048	@ 0x800
 8003b76:	621a      	str	r2, [r3, #32]

          /* Blocking error : transfer is aborted
          Set the UART state ready to be able to start again the process,
          Disable Rx Interrupts if ongoing */
          UART_EndRxTransfer(huart);
 8003b78:	68f8      	ldr	r0, [r7, #12]
 8003b7a:	f000 f81e 	bl	8003bba <UART_EndRxTransfer>

          huart->ErrorCode = HAL_UART_ERROR_RTO;
 8003b7e:	68fb      	ldr	r3, [r7, #12]
 8003b80:	2220      	movs	r2, #32
 8003b82:	f8c3 2084 	str.w	r2, [r3, #132]	@ 0x84

          /* Process Unlocked */
          __HAL_UNLOCK(huart);
 8003b86:	68fb      	ldr	r3, [r7, #12]
 8003b88:	2200      	movs	r2, #0
 8003b8a:	f883 2078 	strb.w	r2, [r3, #120]	@ 0x78

          return HAL_TIMEOUT;
 8003b8e:	2303      	movs	r3, #3
 8003b90:	e00f      	b.n	8003bb2 <UART_WaitOnFlagUntilTimeout+0xd2>
  while ((__HAL_UART_GET_FLAG(huart, Flag) ? SET : RESET) == Status)
 8003b92:	68fb      	ldr	r3, [r7, #12]
 8003b94:	681b      	ldr	r3, [r3, #0]
 8003b96:	69da      	ldr	r2, [r3, #28]
 8003b98:	68bb      	ldr	r3, [r7, #8]
 8003b9a:	4013      	ands	r3, r2
 8003b9c:	68ba      	ldr	r2, [r7, #8]
 8003b9e:	429a      	cmp	r2, r3
 8003ba0:	bf0c      	ite	eq
 8003ba2:	2301      	moveq	r3, #1
 8003ba4:	2300      	movne	r3, #0
 8003ba6:	b2db      	uxtb	r3, r3
 8003ba8:	461a      	mov	r2, r3
 8003baa:	79fb      	ldrb	r3, [r7, #7]
 8003bac:	429a      	cmp	r2, r3
 8003bae:	d0a0      	beq.n	8003af2 <UART_WaitOnFlagUntilTimeout+0x12>
        }
      }
    }
  }
  return HAL_OK;
 8003bb0:	2300      	movs	r3, #0
}
 8003bb2:	4618      	mov	r0, r3
 8003bb4:	3710      	adds	r7, #16
 8003bb6:	46bd      	mov	sp, r7
 8003bb8:	bd80      	pop	{r7, pc}

08003bba <UART_EndRxTransfer>:
  * @brief  End ongoing Rx transfer on UART peripheral (following error detection or Reception completion).
  * @param  huart UART handle.
  * @retval None
  */
static void UART_EndRxTransfer(UART_HandleTypeDef *huart)
{
 8003bba:	b480      	push	{r7}
 8003bbc:	b095      	sub	sp, #84	@ 0x54
 8003bbe:	af00      	add	r7, sp, #0
 8003bc0:	6078      	str	r0, [r7, #4]
  /* Disable RXNE, PE and ERR (Frame error, noise error, overrun error) interrupts */
#if defined(USART_CR1_FIFOEN)
  ATOMIC_CLEAR_BIT(huart->Instance->CR1, (USART_CR1_RXNEIE_RXFNEIE | USART_CR1_PEIE));
  ATOMIC_CLEAR_BIT(huart->Instance->CR3, (USART_CR3_EIE | USART_CR3_RXFTIE));
#else
  ATOMIC_CLEAR_BIT(huart->Instance->CR1, (USART_CR1_RXNEIE | USART_CR1_PEIE));
 8003bc2:	687b      	ldr	r3, [r7, #4]
 8003bc4:	681b      	ldr	r3, [r3, #0]
 8003bc6:	637b      	str	r3, [r7, #52]	@ 0x34
   __ASM volatile ("ldrex %0, %1" : "=r" (result) : "Q" (*addr) );
 8003bc8:	6b7b      	ldr	r3, [r7, #52]	@ 0x34
 8003bca:	e853 3f00 	ldrex	r3, [r3]
 8003bce:	633b      	str	r3, [r7, #48]	@ 0x30
   return(result);
 8003bd0:	6b3b      	ldr	r3, [r7, #48]	@ 0x30
 8003bd2:	f423 7390 	bic.w	r3, r3, #288	@ 0x120
 8003bd6:	64fb      	str	r3, [r7, #76]	@ 0x4c
 8003bd8:	687b      	ldr	r3, [r7, #4]
 8003bda:	681b      	ldr	r3, [r3, #0]
 8003bdc:	461a      	mov	r2, r3
 8003bde:	6cfb      	ldr	r3, [r7, #76]	@ 0x4c
 8003be0:	643b      	str	r3, [r7, #64]	@ 0x40
 8003be2:	63fa      	str	r2, [r7, #60]	@ 0x3c
   __ASM volatile ("strex %0, %2, %1" : "=&r" (result), "=Q" (*addr) : "r" (value) );
 8003be4:	6bf9      	ldr	r1, [r7, #60]	@ 0x3c
 8003be6:	6c3a      	ldr	r2, [r7, #64]	@ 0x40
 8003be8:	e841 2300 	strex	r3, r2, [r1]
 8003bec:	63bb      	str	r3, [r7, #56]	@ 0x38
   return(result);
 8003bee:	6bbb      	ldr	r3, [r7, #56]	@ 0x38
 8003bf0:	2b00      	cmp	r3, #0
 8003bf2:	d1e6      	bne.n	8003bc2 <UART_EndRxTransfer+0x8>
  ATOMIC_CLEAR_BIT(huart->Instance->CR3, USART_CR3_EIE);
 8003bf4:	687b      	ldr	r3, [r7, #4]
 8003bf6:	681b      	ldr	r3, [r3, #0]
 8003bf8:	3308      	adds	r3, #8
 8003bfa:	623b      	str	r3, [r7, #32]
   __ASM volatile ("ldrex %0, %1" : "=r" (result) : "Q" (*addr) );
 8003bfc:	6a3b      	ldr	r3, [r7, #32]
 8003bfe:	e853 3f00 	ldrex	r3, [r3]
 8003c02:	61fb      	str	r3, [r7, #28]
   return(result);
 8003c04:	69fb      	ldr	r3, [r7, #28]
 8003c06:	f023 0301 	bic.w	r3, r3, #1
 8003c0a:	64bb      	str	r3, [r7, #72]	@ 0x48
 8003c0c:	687b      	ldr	r3, [r7, #4]
 8003c0e:	681b      	ldr	r3, [r3, #0]
 8003c10:	3308      	adds	r3, #8
 8003c12:	6cba      	ldr	r2, [r7, #72]	@ 0x48
 8003c14:	62fa      	str	r2, [r7, #44]	@ 0x2c
 8003c16:	62bb      	str	r3, [r7, #40]	@ 0x28
   __ASM volatile ("strex %0, %2, %1" : "=&r" (result), "=Q" (*addr) : "r" (value) );
 8003c18:	6ab9      	ldr	r1, [r7, #40]	@ 0x28
 8003c1a:	6afa      	ldr	r2, [r7, #44]	@ 0x2c
 8003c1c:	e841 2300 	strex	r3, r2, [r1]
 8003c20:	627b      	str	r3, [r7, #36]	@ 0x24
   return(result);
 8003c22:	6a7b      	ldr	r3, [r7, #36]	@ 0x24
 8003c24:	2b00      	cmp	r3, #0
 8003c26:	d1e5      	bne.n	8003bf4 <UART_EndRxTransfer+0x3a>
#endif /* USART_CR1_FIFOEN */

  /* In case of reception waiting for IDLE event, disable also the IDLE IE interrupt source */
  if (huart->ReceptionType == HAL_UART_RECEPTION_TOIDLE)
 8003c28:	687b      	ldr	r3, [r7, #4]
 8003c2a:	6e1b      	ldr	r3, [r3, #96]	@ 0x60
 8003c2c:	2b01      	cmp	r3, #1
 8003c2e:	d118      	bne.n	8003c62 <UART_EndRxTransfer+0xa8>
  {
    ATOMIC_CLEAR_BIT(huart->Instance->CR1, USART_CR1_IDLEIE);
 8003c30:	687b      	ldr	r3, [r7, #4]
 8003c32:	681b      	ldr	r3, [r3, #0]
 8003c34:	60fb      	str	r3, [r7, #12]
   __ASM volatile ("ldrex %0, %1" : "=r" (result) : "Q" (*addr) );
 8003c36:	68fb      	ldr	r3, [r7, #12]
 8003c38:	e853 3f00 	ldrex	r3, [r3]
 8003c3c:	60bb      	str	r3, [r7, #8]
   return(result);
 8003c3e:	68bb      	ldr	r3, [r7, #8]
 8003c40:	f023 0310 	bic.w	r3, r3, #16
 8003c44:	647b      	str	r3, [r7, #68]	@ 0x44
 8003c46:	687b      	ldr	r3, [r7, #4]
 8003c48:	681b      	ldr	r3, [r3, #0]
 8003c4a:	461a      	mov	r2, r3
 8003c4c:	6c7b      	ldr	r3, [r7, #68]	@ 0x44
 8003c4e:	61bb      	str	r3, [r7, #24]
 8003c50:	617a      	str	r2, [r7, #20]
   __ASM volatile ("strex %0, %2, %1" : "=&r" (result), "=Q" (*addr) : "r" (value) );
 8003c52:	6979      	ldr	r1, [r7, #20]
 8003c54:	69ba      	ldr	r2, [r7, #24]
 8003c56:	e841 2300 	strex	r3, r2, [r1]
 8003c5a:	613b      	str	r3, [r7, #16]
   return(result);
 8003c5c:	693b      	ldr	r3, [r7, #16]
 8003c5e:	2b00      	cmp	r3, #0
 8003c60:	d1e6      	bne.n	8003c30 <UART_EndRxTransfer+0x76>
  }

  /* At end of Rx process, restore huart->RxState to Ready */
  huart->RxState = HAL_UART_STATE_READY;
 8003c62:	687b      	ldr	r3, [r7, #4]
 8003c64:	2220      	movs	r2, #32
 8003c66:	f8c3 2080 	str.w	r2, [r3, #128]	@ 0x80
  huart->ReceptionType = HAL_UART_RECEPTION_STANDARD;
 8003c6a:	687b      	ldr	r3, [r7, #4]
 8003c6c:	2200      	movs	r2, #0
 8003c6e:	661a      	str	r2, [r3, #96]	@ 0x60

  /* Reset RxIsr function pointer */
  huart->RxISR = NULL;
 8003c70:	687b      	ldr	r3, [r7, #4]
 8003c72:	2200      	movs	r2, #0
 8003c74:	669a      	str	r2, [r3, #104]	@ 0x68
}
 8003c76:	bf00      	nop
 8003c78:	3754      	adds	r7, #84	@ 0x54
 8003c7a:	46bd      	mov	sp, r7
 8003c7c:	f85d 7b04 	ldr.w	r7, [sp], #4
 8003c80:	4770      	bx	lr

08003c82 <memset>:
 8003c82:	4402      	add	r2, r0
 8003c84:	4603      	mov	r3, r0
 8003c86:	4293      	cmp	r3, r2
 8003c88:	d100      	bne.n	8003c8c <memset+0xa>
 8003c8a:	4770      	bx	lr
 8003c8c:	f803 1b01 	strb.w	r1, [r3], #1
 8003c90:	e7f9      	b.n	8003c86 <memset+0x4>
	...

08003c94 <__libc_init_array>:
 8003c94:	b570      	push	{r4, r5, r6, lr}
 8003c96:	4d0d      	ldr	r5, [pc, #52]	@ (8003ccc <__libc_init_array+0x38>)
 8003c98:	4c0d      	ldr	r4, [pc, #52]	@ (8003cd0 <__libc_init_array+0x3c>)
 8003c9a:	1b64      	subs	r4, r4, r5
 8003c9c:	10a4      	asrs	r4, r4, #2
 8003c9e:	2600      	movs	r6, #0
 8003ca0:	42a6      	cmp	r6, r4
 8003ca2:	d109      	bne.n	8003cb8 <__libc_init_array+0x24>
 8003ca4:	4d0b      	ldr	r5, [pc, #44]	@ (8003cd4 <__libc_init_array+0x40>)
 8003ca6:	4c0c      	ldr	r4, [pc, #48]	@ (8003cd8 <__libc_init_array+0x44>)
 8003ca8:	f000 f818 	bl	8003cdc <_init>
 8003cac:	1b64      	subs	r4, r4, r5
 8003cae:	10a4      	asrs	r4, r4, #2
 8003cb0:	2600      	movs	r6, #0
 8003cb2:	42a6      	cmp	r6, r4
 8003cb4:	d105      	bne.n	8003cc2 <__libc_init_array+0x2e>
 8003cb6:	bd70      	pop	{r4, r5, r6, pc}
 8003cb8:	f855 3b04 	ldr.w	r3, [r5], #4
 8003cbc:	4798      	blx	r3
 8003cbe:	3601      	adds	r6, #1
 8003cc0:	e7ee      	b.n	8003ca0 <__libc_init_array+0xc>
 8003cc2:	f855 3b04 	ldr.w	r3, [r5], #4
 8003cc6:	4798      	blx	r3
 8003cc8:	3601      	adds	r6, #1
 8003cca:	e7f2      	b.n	8003cb2 <__libc_init_array+0x1e>
 8003ccc:	08003d44 	.word	0x08003d44
 8003cd0:	08003d44 	.word	0x08003d44
 8003cd4:	08003d44 	.word	0x08003d44
 8003cd8:	08003d48 	.word	0x08003d48

08003cdc <_init>:
 8003cdc:	b5f8      	push	{r3, r4, r5, r6, r7, lr}
 8003cde:	bf00      	nop
 8003ce0:	bcf8      	pop	{r3, r4, r5, r6, r7}
 8003ce2:	bc08      	pop	{r3}
 8003ce4:	469e      	mov	lr, r3
 8003ce6:	4770      	bx	lr

08003ce8 <_fini>:
 8003ce8:	b5f8      	push	{r3, r4, r5, r6, r7, lr}
 8003cea:	bf00      	nop
 8003cec:	bcf8      	pop	{r3, r4, r5, r6, r7}
 8003cee:	bc08      	pop	{r3}
 8003cf0:	469e      	mov	lr, r3
 8003cf2:	4770      	bx	lr
