
projectfinal.elf:     file format elf32-littlearm

Sections:
Idx Name          Size      VMA       LMA       File off  Algn
  0 .isr_vector   00000188  08000000  08000000  00001000  2**0
                  CONTENTS, ALLOC, LOAD, READONLY, DATA
  1 .text         00003798  08000188  08000188  00001188  2**2
                  CONTENTS, ALLOC, LOAD, READONLY, CODE
  2 .rodata       0000004c  08003920  08003920  00004920  2**2
                  CONTENTS, ALLOC, LOAD, READONLY, DATA
  3 .ARM.extab    00000000  0800396c  0800396c  0000500c  2**0
                  CONTENTS, READONLY
  4 .ARM          00000008  0800396c  0800396c  0000496c  2**2
                  CONTENTS, ALLOC, LOAD, READONLY, DATA
  5 .preinit_array 00000000  08003974  08003974  0000500c  2**0
                  CONTENTS, ALLOC, LOAD, DATA
  6 .init_array   00000004  08003974  08003974  00004974  2**2
                  CONTENTS, ALLOC, LOAD, READONLY, DATA
  7 .fini_array   00000004  08003978  08003978  00004978  2**2
                  CONTENTS, ALLOC, LOAD, READONLY, DATA
  8 .data         0000000c  20000000  0800397c  00005000  2**2
                  CONTENTS, ALLOC, LOAD, DATA
  9 .bss          0000010c  2000000c  08003988  0000500c  2**2
                  ALLOC
 10 ._user_heap_stack 00000600  20000118  08003988  00005118  2**0
                  ALLOC
 11 .ARM.attributes 00000030  00000000  00000000  0000500c  2**0
                  CONTENTS, READONLY
 12 .debug_info   0000bf15  00000000  00000000  0000503c  2**0
                  CONTENTS, READONLY, DEBUGGING, OCTETS
 13 .debug_abbrev 00001a6c  00000000  00000000  00010f51  2**0
                  CONTENTS, READONLY, DEBUGGING, OCTETS
 14 .debug_aranges 00000aa8  00000000  00000000  000129c0  2**3
                  CONTENTS, READONLY, DEBUGGING, OCTETS
 15 .debug_rnglists 00000837  00000000  00000000  00013468  2**0
                  CONTENTS, READONLY, DEBUGGING, OCTETS
 16 .debug_macro  000255ef  00000000  00000000  00013c9f  2**0
                  CONTENTS, READONLY, DEBUGGING, OCTETS
 17 .debug_line   0000c714  00000000  00000000  0003928e  2**0
                  CONTENTS, READONLY, DEBUGGING, OCTETS
 18 .debug_str    000e7ac6  00000000  00000000  000459a2  2**0
                  CONTENTS, READONLY, DEBUGGING, OCTETS
 19 .comment      00000043  00000000  00000000  0012d468  2**0
                  CONTENTS, READONLY
 20 .debug_frame  00002b94  00000000  00000000  0012d4ac  2**2
                  CONTENTS, READONLY, DEBUGGING, OCTETS
 21 .debug_line_str 00000068  00000000  00000000  00130040  2**0
                  CONTENTS, READONLY, DEBUGGING, OCTETS

Disassembly of section .text:

08000188 <__do_global_dtors_aux>:
 8000188:	b510      	push	{r4, lr}
 800018a:	4c05      	ldr	r4, [pc, #20]	@ (80001a0 <__do_global_dtors_aux+0x18>)
 800018c:	7823      	ldrb	r3, [r4, #0]
 800018e:	b933      	cbnz	r3, 800019e <__do_global_dtors_aux+0x16>
 8000190:	4b04      	ldr	r3, [pc, #16]	@ (80001a4 <__do_global_dtors_aux+0x1c>)
 8000192:	b113      	cbz	r3, 800019a <__do_global_dtors_aux+0x12>
 8000194:	4804      	ldr	r0, [pc, #16]	@ (80001a8 <__do_global_dtors_aux+0x20>)
 8000196:	f3af 8000 	nop.w
 800019a:	2301      	movs	r3, #1
 800019c:	7023      	strb	r3, [r4, #0]
 800019e:	bd10      	pop	{r4, pc}
 80001a0:	2000000c 	.word	0x2000000c
 80001a4:	00000000 	.word	0x00000000
 80001a8:	08003908 	.word	0x08003908

080001ac <frame_dummy>:
 80001ac:	b508      	push	{r3, lr}
 80001ae:	4b03      	ldr	r3, [pc, #12]	@ (80001bc <frame_dummy+0x10>)
 80001b0:	b11b      	cbz	r3, 80001ba <frame_dummy+0xe>
 80001b2:	4903      	ldr	r1, [pc, #12]	@ (80001c0 <frame_dummy+0x14>)
 80001b4:	4803      	ldr	r0, [pc, #12]	@ (80001c4 <frame_dummy+0x18>)
 80001b6:	f3af 8000 	nop.w
 80001ba:	bd08      	pop	{r3, pc}
 80001bc:	00000000 	.word	0x00000000
 80001c0:	20000010 	.word	0x20000010
 80001c4:	08003908 	.word	0x08003908

080001c8 <__aeabi_uldivmod>:
 80001c8:	b953      	cbnz	r3, 80001e0 <__aeabi_uldivmod+0x18>
 80001ca:	b94a      	cbnz	r2, 80001e0 <__aeabi_uldivmod+0x18>
 80001cc:	2900      	cmp	r1, #0
 80001ce:	bf08      	it	eq
 80001d0:	2800      	cmpeq	r0, #0
 80001d2:	bf1c      	itt	ne
 80001d4:	f04f 31ff 	movne.w	r1, #4294967295
 80001d8:	f04f 30ff 	movne.w	r0, #4294967295
 80001dc:	f000 b988 	b.w	80004f0 <__aeabi_idiv0>
 80001e0:	f1ad 0c08 	sub.w	ip, sp, #8
 80001e4:	e96d ce04 	strd	ip, lr, [sp, #-16]!
 80001e8:	f000 f806 	bl	80001f8 <__udivmoddi4>
 80001ec:	f8dd e004 	ldr.w	lr, [sp, #4]
 80001f0:	e9dd 2302 	ldrd	r2, r3, [sp, #8]
 80001f4:	b004      	add	sp, #16
 80001f6:	4770      	bx	lr

080001f8 <__udivmoddi4>:
 80001f8:	e92d 47f0 	stmdb	sp!, {r4, r5, r6, r7, r8, r9, sl, lr}
 80001fc:	9d08      	ldr	r5, [sp, #32]
 80001fe:	468e      	mov	lr, r1
 8000200:	4604      	mov	r4, r0
 8000202:	4688      	mov	r8, r1
 8000204:	2b00      	cmp	r3, #0
 8000206:	d14a      	bne.n	800029e <__udivmoddi4+0xa6>
 8000208:	428a      	cmp	r2, r1
 800020a:	4617      	mov	r7, r2
 800020c:	d962      	bls.n	80002d4 <__udivmoddi4+0xdc>
 800020e:	fab2 f682 	clz	r6, r2
 8000212:	b14e      	cbz	r6, 8000228 <__udivmoddi4+0x30>
 8000214:	f1c6 0320 	rsb	r3, r6, #32
 8000218:	fa01 f806 	lsl.w	r8, r1, r6
 800021c:	fa20 f303 	lsr.w	r3, r0, r3
 8000220:	40b7      	lsls	r7, r6
 8000222:	ea43 0808 	orr.w	r8, r3, r8
 8000226:	40b4      	lsls	r4, r6
 8000228:	ea4f 4e17 	mov.w	lr, r7, lsr #16
 800022c:	fa1f fc87 	uxth.w	ip, r7
 8000230:	fbb8 f1fe 	udiv	r1, r8, lr
 8000234:	0c23      	lsrs	r3, r4, #16
 8000236:	fb0e 8811 	mls	r8, lr, r1, r8
 800023a:	ea43 4308 	orr.w	r3, r3, r8, lsl #16
 800023e:	fb01 f20c 	mul.w	r2, r1, ip
 8000242:	429a      	cmp	r2, r3
 8000244:	d909      	bls.n	800025a <__udivmoddi4+0x62>
 8000246:	18fb      	adds	r3, r7, r3
 8000248:	f101 30ff 	add.w	r0, r1, #4294967295
 800024c:	f080 80ea 	bcs.w	8000424 <__udivmoddi4+0x22c>
 8000250:	429a      	cmp	r2, r3
 8000252:	f240 80e7 	bls.w	8000424 <__udivmoddi4+0x22c>
 8000256:	3902      	subs	r1, #2
 8000258:	443b      	add	r3, r7
 800025a:	1a9a      	subs	r2, r3, r2
 800025c:	b2a3      	uxth	r3, r4
 800025e:	fbb2 f0fe 	udiv	r0, r2, lr
 8000262:	fb0e 2210 	mls	r2, lr, r0, r2
 8000266:	ea43 4302 	orr.w	r3, r3, r2, lsl #16
 800026a:	fb00 fc0c 	mul.w	ip, r0, ip
 800026e:	459c      	cmp	ip, r3
 8000270:	d909      	bls.n	8000286 <__udivmoddi4+0x8e>
 8000272:	18fb      	adds	r3, r7, r3
 8000274:	f100 32ff 	add.w	r2, r0, #4294967295
 8000278:	f080 80d6 	bcs.w	8000428 <__udivmoddi4+0x230>
 800027c:	459c      	cmp	ip, r3
 800027e:	f240 80d3 	bls.w	8000428 <__udivmoddi4+0x230>
 8000282:	443b      	add	r3, r7
 8000284:	3802      	subs	r0, #2
 8000286:	ea40 4001 	orr.w	r0, r0, r1, lsl #16
 800028a:	eba3 030c 	sub.w	r3, r3, ip
 800028e:	2100      	movs	r1, #0
 8000290:	b11d      	cbz	r5, 800029a <__udivmoddi4+0xa2>
 8000292:	40f3      	lsrs	r3, r6
 8000294:	2200      	movs	r2, #0
 8000296:	e9c5 3200 	strd	r3, r2, [r5]
 800029a:	e8bd 87f0 	ldmia.w	sp!, {r4, r5, r6, r7, r8, r9, sl, pc}
 800029e:	428b      	cmp	r3, r1
 80002a0:	d905      	bls.n	80002ae <__udivmoddi4+0xb6>
 80002a2:	b10d      	cbz	r5, 80002a8 <__udivmoddi4+0xb0>
 80002a4:	e9c5 0100 	strd	r0, r1, [r5]
 80002a8:	2100      	movs	r1, #0
 80002aa:	4608      	mov	r0, r1
 80002ac:	e7f5      	b.n	800029a <__udivmoddi4+0xa2>
 80002ae:	fab3 f183 	clz	r1, r3
 80002b2:	2900      	cmp	r1, #0
 80002b4:	d146      	bne.n	8000344 <__udivmoddi4+0x14c>
 80002b6:	4573      	cmp	r3, lr
 80002b8:	d302      	bcc.n	80002c0 <__udivmoddi4+0xc8>
 80002ba:	4282      	cmp	r2, r0
 80002bc:	f200 8105 	bhi.w	80004ca <__udivmoddi4+0x2d2>
 80002c0:	1a84      	subs	r4, r0, r2
 80002c2:	eb6e 0203 	sbc.w	r2, lr, r3
 80002c6:	2001      	movs	r0, #1
 80002c8:	4690      	mov	r8, r2
 80002ca:	2d00      	cmp	r5, #0
 80002cc:	d0e5      	beq.n	800029a <__udivmoddi4+0xa2>
 80002ce:	e9c5 4800 	strd	r4, r8, [r5]
 80002d2:	e7e2      	b.n	800029a <__udivmoddi4+0xa2>
 80002d4:	2a00      	cmp	r2, #0
 80002d6:	f000 8090 	beq.w	80003fa <__udivmoddi4+0x202>
 80002da:	fab2 f682 	clz	r6, r2
 80002de:	2e00      	cmp	r6, #0
 80002e0:	f040 80a4 	bne.w	800042c <__udivmoddi4+0x234>
 80002e4:	1a8a      	subs	r2, r1, r2
 80002e6:	0c03      	lsrs	r3, r0, #16
 80002e8:	ea4f 4e17 	mov.w	lr, r7, lsr #16
 80002ec:	b280      	uxth	r0, r0
 80002ee:	b2bc      	uxth	r4, r7
 80002f0:	2101      	movs	r1, #1
 80002f2:	fbb2 fcfe 	udiv	ip, r2, lr
 80002f6:	fb0e 221c 	mls	r2, lr, ip, r2
 80002fa:	ea43 4302 	orr.w	r3, r3, r2, lsl #16
 80002fe:	fb04 f20c 	mul.w	r2, r4, ip
 8000302:	429a      	cmp	r2, r3
 8000304:	d907      	bls.n	8000316 <__udivmoddi4+0x11e>
 8000306:	18fb      	adds	r3, r7, r3
 8000308:	f10c 38ff 	add.w	r8, ip, #4294967295
 800030c:	d202      	bcs.n	8000314 <__udivmoddi4+0x11c>
 800030e:	429a      	cmp	r2, r3
 8000310:	f200 80e0 	bhi.w	80004d4 <__udivmoddi4+0x2dc>
 8000314:	46c4      	mov	ip, r8
 8000316:	1a9b      	subs	r3, r3, r2
 8000318:	fbb3 f2fe 	udiv	r2, r3, lr
 800031c:	fb0e 3312 	mls	r3, lr, r2, r3
 8000320:	ea40 4303 	orr.w	r3, r0, r3, lsl #16
 8000324:	fb02 f404 	mul.w	r4, r2, r4
 8000328:	429c      	cmp	r4, r3
 800032a:	d907      	bls.n	800033c <__udivmoddi4+0x144>
 800032c:	18fb      	adds	r3, r7, r3
 800032e:	f102 30ff 	add.w	r0, r2, #4294967295
 8000332:	d202      	bcs.n	800033a <__udivmoddi4+0x142>
 8000334:	429c      	cmp	r4, r3
 8000336:	f200 80ca 	bhi.w	80004ce <__udivmoddi4+0x2d6>
 800033a:	4602      	mov	r2, r0
 800033c:	1b1b      	subs	r3, r3, r4
 800033e:	ea42 400c 	orr.w	r0, r2, ip, lsl #16
 8000342:	e7a5      	b.n	8000290 <__udivmoddi4+0x98>
 8000344:	f1c1 0620 	rsb	r6, r1, #32
 8000348:	408b      	lsls	r3, r1
 800034a:	fa22 f706 	lsr.w	r7, r2, r6
 800034e:	431f      	orrs	r7, r3
 8000350:	fa0e f401 	lsl.w	r4, lr, r1
 8000354:	fa20 f306 	lsr.w	r3, r0, r6
 8000358:	fa2e fe06 	lsr.w	lr, lr, r6
 800035c:	ea4f 4917 	mov.w	r9, r7, lsr #16
 8000360:	4323      	orrs	r3, r4
 8000362:	fa00 f801 	lsl.w	r8, r0, r1
 8000366:	fa1f fc87 	uxth.w	ip, r7
 800036a:	fbbe f0f9 	udiv	r0, lr, r9
 800036e:	0c1c      	lsrs	r4, r3, #16
 8000370:	fb09 ee10 	mls	lr, r9, r0, lr
 8000374:	ea44 440e 	orr.w	r4, r4, lr, lsl #16
 8000378:	fb00 fe0c 	mul.w	lr, r0, ip
 800037c:	45a6      	cmp	lr, r4
 800037e:	fa02 f201 	lsl.w	r2, r2, r1
 8000382:	d909      	bls.n	8000398 <__udivmoddi4+0x1a0>
 8000384:	193c      	adds	r4, r7, r4
 8000386:	f100 3aff 	add.w	sl, r0, #4294967295
 800038a:	f080 809c 	bcs.w	80004c6 <__udivmoddi4+0x2ce>
 800038e:	45a6      	cmp	lr, r4
 8000390:	f240 8099 	bls.w	80004c6 <__udivmoddi4+0x2ce>
 8000394:	3802      	subs	r0, #2
 8000396:	443c      	add	r4, r7
 8000398:	eba4 040e 	sub.w	r4, r4, lr
 800039c:	fa1f fe83 	uxth.w	lr, r3
 80003a0:	fbb4 f3f9 	udiv	r3, r4, r9
 80003a4:	fb09 4413 	mls	r4, r9, r3, r4
 80003a8:	ea4e 4404 	orr.w	r4, lr, r4, lsl #16
 80003ac:	fb03 fc0c 	mul.w	ip, r3, ip
 80003b0:	45a4      	cmp	ip, r4
 80003b2:	d908      	bls.n	80003c6 <__udivmoddi4+0x1ce>
 80003b4:	193c      	adds	r4, r7, r4
 80003b6:	f103 3eff 	add.w	lr, r3, #4294967295
 80003ba:	f080 8082 	bcs.w	80004c2 <__udivmoddi4+0x2ca>
 80003be:	45a4      	cmp	ip, r4
 80003c0:	d97f      	bls.n	80004c2 <__udivmoddi4+0x2ca>
 80003c2:	3b02      	subs	r3, #2
 80003c4:	443c      	add	r4, r7
 80003c6:	ea43 4000 	orr.w	r0, r3, r0, lsl #16
 80003ca:	eba4 040c 	sub.w	r4, r4, ip
 80003ce:	fba0 ec02 	umull	lr, ip, r0, r2
 80003d2:	4564      	cmp	r4, ip
 80003d4:	4673      	mov	r3, lr
 80003d6:	46e1      	mov	r9, ip
 80003d8:	d362      	bcc.n	80004a0 <__udivmoddi4+0x2a8>
 80003da:	d05f      	beq.n	800049c <__udivmoddi4+0x2a4>
 80003dc:	b15d      	cbz	r5, 80003f6 <__udivmoddi4+0x1fe>
 80003de:	ebb8 0203 	subs.w	r2, r8, r3
 80003e2:	eb64 0409 	sbc.w	r4, r4, r9
 80003e6:	fa04 f606 	lsl.w	r6, r4, r6
 80003ea:	fa22 f301 	lsr.w	r3, r2, r1
 80003ee:	431e      	orrs	r6, r3
 80003f0:	40cc      	lsrs	r4, r1
 80003f2:	e9c5 6400 	strd	r6, r4, [r5]
 80003f6:	2100      	movs	r1, #0
 80003f8:	e74f      	b.n	800029a <__udivmoddi4+0xa2>
 80003fa:	fbb1 fcf2 	udiv	ip, r1, r2
 80003fe:	0c01      	lsrs	r1, r0, #16
 8000400:	ea41 410e 	orr.w	r1, r1, lr, lsl #16
 8000404:	b280      	uxth	r0, r0
 8000406:	ea40 4201 	orr.w	r2, r0, r1, lsl #16
 800040a:	463b      	mov	r3, r7
 800040c:	4638      	mov	r0, r7
 800040e:	463c      	mov	r4, r7
 8000410:	46b8      	mov	r8, r7
 8000412:	46be      	mov	lr, r7
 8000414:	2620      	movs	r6, #32
 8000416:	fbb1 f1f7 	udiv	r1, r1, r7
 800041a:	eba2 0208 	sub.w	r2, r2, r8
 800041e:	ea41 410c 	orr.w	r1, r1, ip, lsl #16
 8000422:	e766      	b.n	80002f2 <__udivmoddi4+0xfa>
 8000424:	4601      	mov	r1, r0
 8000426:	e718      	b.n	800025a <__udivmoddi4+0x62>
 8000428:	4610      	mov	r0, r2
 800042a:	e72c      	b.n	8000286 <__udivmoddi4+0x8e>
 800042c:	f1c6 0220 	rsb	r2, r6, #32
 8000430:	fa2e f302 	lsr.w	r3, lr, r2
 8000434:	40b7      	lsls	r7, r6
 8000436:	40b1      	lsls	r1, r6
 8000438:	fa20 f202 	lsr.w	r2, r0, r2
 800043c:	ea4f 4e17 	mov.w	lr, r7, lsr #16
 8000440:	430a      	orrs	r2, r1
 8000442:	fbb3 f8fe 	udiv	r8, r3, lr
 8000446:	b2bc      	uxth	r4, r7
 8000448:	fb0e 3318 	mls	r3, lr, r8, r3
 800044c:	0c11      	lsrs	r1, r2, #16
 800044e:	ea41 4103 	orr.w	r1, r1, r3, lsl #16
 8000452:	fb08 f904 	mul.w	r9, r8, r4
 8000456:	40b0      	lsls	r0, r6
 8000458:	4589      	cmp	r9, r1
 800045a:	ea4f 4310 	mov.w	r3, r0, lsr #16
 800045e:	b280      	uxth	r0, r0
 8000460:	d93e      	bls.n	80004e0 <__udivmoddi4+0x2e8>
 8000462:	1879      	adds	r1, r7, r1
 8000464:	f108 3cff 	add.w	ip, r8, #4294967295
 8000468:	d201      	bcs.n	800046e <__udivmoddi4+0x276>
 800046a:	4589      	cmp	r9, r1
 800046c:	d81f      	bhi.n	80004ae <__udivmoddi4+0x2b6>
 800046e:	eba1 0109 	sub.w	r1, r1, r9
 8000472:	fbb1 f9fe 	udiv	r9, r1, lr
 8000476:	fb09 f804 	mul.w	r8, r9, r4
 800047a:	fb0e 1119 	mls	r1, lr, r9, r1
 800047e:	b292      	uxth	r2, r2
 8000480:	ea42 4201 	orr.w	r2, r2, r1, lsl #16
 8000484:	4542      	cmp	r2, r8
 8000486:	d229      	bcs.n	80004dc <__udivmoddi4+0x2e4>
 8000488:	18ba      	adds	r2, r7, r2
 800048a:	f109 31ff 	add.w	r1, r9, #4294967295
 800048e:	d2c4      	bcs.n	800041a <__udivmoddi4+0x222>
 8000490:	4542      	cmp	r2, r8
 8000492:	d2c2      	bcs.n	800041a <__udivmoddi4+0x222>
 8000494:	f1a9 0102 	sub.w	r1, r9, #2
 8000498:	443a      	add	r2, r7
 800049a:	e7be      	b.n	800041a <__udivmoddi4+0x222>
 800049c:	45f0      	cmp	r8, lr
 800049e:	d29d      	bcs.n	80003dc <__udivmoddi4+0x1e4>
 80004a0:	ebbe 0302 	subs.w	r3, lr, r2
 80004a4:	eb6c 0c07 	sbc.w	ip, ip, r7
 80004a8:	3801      	subs	r0, #1
 80004aa:	46e1      	mov	r9, ip
 80004ac:	e796      	b.n	80003dc <__udivmoddi4+0x1e4>
 80004ae:	eba7 0909 	sub.w	r9, r7, r9
 80004b2:	4449      	add	r1, r9
 80004b4:	f1a8 0c02 	sub.w	ip, r8, #2
 80004b8:	fbb1 f9fe 	udiv	r9, r1, lr
 80004bc:	fb09 f804 	mul.w	r8, r9, r4
 80004c0:	e7db      	b.n	800047a <__udivmoddi4+0x282>
 80004c2:	4673      	mov	r3, lr
 80004c4:	e77f      	b.n	80003c6 <__udivmoddi4+0x1ce>
 80004c6:	4650      	mov	r0, sl
 80004c8:	e766      	b.n	8000398 <__udivmoddi4+0x1a0>
 80004ca:	4608      	mov	r0, r1
 80004cc:	e6fd      	b.n	80002ca <__udivmoddi4+0xd2>
 80004ce:	443b      	add	r3, r7
 80004d0:	3a02      	subs	r2, #2
 80004d2:	e733      	b.n	800033c <__udivmoddi4+0x144>
 80004d4:	f1ac 0c02 	sub.w	ip, ip, #2
 80004d8:	443b      	add	r3, r7
 80004da:	e71c      	b.n	8000316 <__udivmoddi4+0x11e>
 80004dc:	4649      	mov	r1, r9
 80004de:	e79c      	b.n	800041a <__udivmoddi4+0x222>
 80004e0:	eba1 0109 	sub.w	r1, r1, r9
 80004e4:	46c4      	mov	ip, r8
 80004e6:	fbb1 f9fe 	udiv	r9, r1, lr
 80004ea:	fb09 f804 	mul.w	r8, r9, r4
 80004ee:	e7c4      	b.n	800047a <__udivmoddi4+0x282>

080004f0 <__aeabi_idiv0>:
 80004f0:	4770      	bx	lr
 80004f2:	bf00      	nop

080004f4 <main>:
/**
  * @brief  The application entry point.
  * @retval int
  */
int main(void)
{
 80004f4:	b580      	push	{r7, lr}
 80004f6:	af00      	add	r7, sp, #0
  /* USER CODE END 1 */

  /* MCU Configuration--------------------------------------------------------*/

  /* Reset of all peripherals, Initializes the Flash interface and the Systick. */
  HAL_Init();
 80004f8:	f000 faf6 	bl	8000ae8 <HAL_Init>
  /* USER CODE BEGIN Init */

  /* USER CODE END Init */

  /* Configure the system clock */
  SystemClock_Config();
 80004fc:	f000 f80c 	bl	8000518 <SystemClock_Config>
  /* USER CODE BEGIN SysInit */

  /* USER CODE END SysInit */

  /* Initialize all configured peripherals */
  MX_GPIO_Init();
 8000500:	f000 f8ca 	bl	8000698 <MX_GPIO_Init>
  MX_USART2_UART_Init();
 8000504:	f000 f898 	bl	8000638 <MX_USART2_UART_Init>
  MX_SPI3_Init();
 8000508:	f000 f858 	bl	80005bc <MX_SPI3_Init>

  /* Infinite loop */
  /* USER CODE BEGIN WHILE */
  while (1)
  {
	  SPIinit();
 800050c:	f000 f956 	bl	80007bc <SPIinit>
	  SPITEST();
 8000510:	f000 f96e 	bl	80007f0 <SPITEST>
	  SPIinit();
 8000514:	bf00      	nop
 8000516:	e7f9      	b.n	800050c <main+0x18>

08000518 <SystemClock_Config>:
/**
  * @brief System Clock Configuration
  * @retval None
  */
void SystemClock_Config(void)
{
 8000518:	b580      	push	{r7, lr}
 800051a:	b096      	sub	sp, #88	@ 0x58
 800051c:	af00      	add	r7, sp, #0
  RCC_OscInitTypeDef RCC_OscInitStruct = {0};
 800051e:	f107 0314 	add.w	r3, r7, #20
 8000522:	2244      	movs	r2, #68	@ 0x44
 8000524:	2100      	movs	r1, #0
 8000526:	4618      	mov	r0, r3
 8000528:	f003 f9c1 	bl	80038ae <memset>
  RCC_ClkInitTypeDef RCC_ClkInitStruct = {0};
 800052c:	463b      	mov	r3, r7
 800052e:	2200      	movs	r2, #0
 8000530:	601a      	str	r2, [r3, #0]
 8000532:	605a      	str	r2, [r3, #4]
 8000534:	609a      	str	r2, [r3, #8]
 8000536:	60da      	str	r2, [r3, #12]
 8000538:	611a      	str	r2, [r3, #16]

  /** Configure the main internal regulator output voltage
  */
  if (HAL_PWREx_ControlVoltageScaling(PWR_REGULATOR_VOLTAGE_SCALE1) != HAL_OK)
 800053a:	f44f 7000 	mov.w	r0, #512	@ 0x200
 800053e:	f000 fe05 	bl	800114c <HAL_PWREx_ControlVoltageScaling>
 8000542:	4603      	mov	r3, r0
 8000544:	2b00      	cmp	r3, #0
 8000546:	d001      	beq.n	800054c <SystemClock_Config+0x34>
  {
    Error_Handler();
 8000548:	f000 f97a 	bl	8000840 <Error_Handler>
  }

  /** Initializes the RCC Oscillators according to the specified parameters
  * in the RCC_OscInitTypeDef structure.
  */
  RCC_OscInitStruct.OscillatorType = RCC_OSCILLATORTYPE_HSI;
 800054c:	2302      	movs	r3, #2
 800054e:	617b      	str	r3, [r7, #20]
  RCC_OscInitStruct.HSIState = RCC_HSI_ON;
 8000550:	f44f 7380 	mov.w	r3, #256	@ 0x100
 8000554:	623b      	str	r3, [r7, #32]
  RCC_OscInitStruct.HSICalibrationValue = RCC_HSICALIBRATION_DEFAULT;
 8000556:	2310      	movs	r3, #16
 8000558:	627b      	str	r3, [r7, #36]	@ 0x24
  RCC_OscInitStruct.PLL.PLLState = RCC_PLL_ON;
 800055a:	2302      	movs	r3, #2
 800055c:	63fb      	str	r3, [r7, #60]	@ 0x3c
  RCC_OscInitStruct.PLL.PLLSource = RCC_PLLSOURCE_HSI;
 800055e:	2302      	movs	r3, #2
 8000560:	643b      	str	r3, [r7, #64]	@ 0x40
  RCC_OscInitStruct.PLL.PLLM = 1;
 8000562:	2301      	movs	r3, #1
 8000564:	647b      	str	r3, [r7, #68]	@ 0x44
  RCC_OscInitStruct.PLL.PLLN = 10;
 8000566:	230a      	movs	r3, #10
 8000568:	64bb      	str	r3, [r7, #72]	@ 0x48
  RCC_OscInitStruct.PLL.PLLP = RCC_PLLP_DIV7;
 800056a:	2307      	movs	r3, #7
 800056c:	64fb      	str	r3, [r7, #76]	@ 0x4c
  RCC_OscInitStruct.PLL.PLLQ = RCC_PLLQ_DIV2;
 800056e:	2302      	movs	r3, #2
 8000570:	653b      	str	r3, [r7, #80]	@ 0x50
  RCC_OscInitStruct.PLL.PLLR = RCC_PLLR_DIV2;
 8000572:	2302      	movs	r3, #2
 8000574:	657b      	str	r3, [r7, #84]	@ 0x54
  if (HAL_RCC_OscConfig(&RCC_OscInitStruct) != HAL_OK)
 8000576:	f107 0314 	add.w	r3, r7, #20
 800057a:	4618      	mov	r0, r3
 800057c:	f000 fe3c 	bl	80011f8 <HAL_RCC_OscConfig>
 8000580:	4603      	mov	r3, r0
 8000582:	2b00      	cmp	r3, #0
 8000584:	d001      	beq.n	800058a <SystemClock_Config+0x72>
  {
    Error_Handler();
 8000586:	f000 f95b 	bl	8000840 <Error_Handler>
  }

  /** Initializes the CPU, AHB and APB buses clocks
  */
  RCC_ClkInitStruct.ClockType = RCC_CLOCKTYPE_HCLK|RCC_CLOCKTYPE_SYSCLK
 800058a:	230f      	movs	r3, #15
 800058c:	603b      	str	r3, [r7, #0]
                              |RCC_CLOCKTYPE_PCLK1|RCC_CLOCKTYPE_PCLK2;
  RCC_ClkInitStruct.SYSCLKSource = RCC_SYSCLKSOURCE_PLLCLK;
 800058e:	2303      	movs	r3, #3
 8000590:	607b      	str	r3, [r7, #4]
  RCC_ClkInitStruct.AHBCLKDivider = RCC_SYSCLK_DIV1;
 8000592:	2300      	movs	r3, #0
 8000594:	60bb      	str	r3, [r7, #8]
  RCC_ClkInitStruct.APB1CLKDivider = RCC_HCLK_DIV1;
 8000596:	2300      	movs	r3, #0
 8000598:	60fb      	str	r3, [r7, #12]
  RCC_ClkInitStruct.APB2CLKDivider = RCC_HCLK_DIV1;
 800059a:	2300      	movs	r3, #0
 800059c:	613b      	str	r3, [r7, #16]

  if (HAL_RCC_ClockConfig(&RCC_ClkInitStruct, FLASH_LATENCY_4) != HAL_OK)
 800059e:	463b      	mov	r3, r7
 80005a0:	2104      	movs	r1, #4
 80005a2:	4618      	mov	r0, r3
 80005a4:	f001 fa04 	bl	80019b0 <HAL_RCC_ClockConfig>
 80005a8:	4603      	mov	r3, r0
 80005aa:	2b00      	cmp	r3, #0
 80005ac:	d001      	beq.n	80005b2 <SystemClock_Config+0x9a>
  {
    Error_Handler();
 80005ae:	f000 f947 	bl	8000840 <Error_Handler>
  }
}
 80005b2:	bf00      	nop
 80005b4:	3758      	adds	r7, #88	@ 0x58
 80005b6:	46bd      	mov	sp, r7
 80005b8:	bd80      	pop	{r7, pc}
	...

080005bc <MX_SPI3_Init>:
  * @brief SPI3 Initialization Function
  * @param None
  * @retval None
  */
static void MX_SPI3_Init(void)
{
 80005bc:	b580      	push	{r7, lr}
 80005be:	af00      	add	r7, sp, #0

  /* USER CODE BEGIN SPI3_Init 1 */

  /* USER CODE END SPI3_Init 1 */
  /* SPI3 parameter configuration*/
  hspi3.Instance = SPI3;
 80005c0:	4b1b      	ldr	r3, [pc, #108]	@ (8000630 <MX_SPI3_Init+0x74>)
 80005c2:	4a1c      	ldr	r2, [pc, #112]	@ (8000634 <MX_SPI3_Init+0x78>)
 80005c4:	601a      	str	r2, [r3, #0]
  hspi3.Init.Mode = SPI_MODE_MASTER;
 80005c6:	4b1a      	ldr	r3, [pc, #104]	@ (8000630 <MX_SPI3_Init+0x74>)
 80005c8:	f44f 7282 	mov.w	r2, #260	@ 0x104
 80005cc:	605a      	str	r2, [r3, #4]
  hspi3.Init.Direction = SPI_DIRECTION_2LINES;
 80005ce:	4b18      	ldr	r3, [pc, #96]	@ (8000630 <MX_SPI3_Init+0x74>)
 80005d0:	2200      	movs	r2, #0
 80005d2:	609a      	str	r2, [r3, #8]
  hspi3.Init.DataSize = SPI_DATASIZE_8BIT;
 80005d4:	4b16      	ldr	r3, [pc, #88]	@ (8000630 <MX_SPI3_Init+0x74>)
 80005d6:	f44f 62e0 	mov.w	r2, #1792	@ 0x700
 80005da:	60da      	str	r2, [r3, #12]
  hspi3.Init.CLKPolarity = SPI_POLARITY_LOW;
 80005dc:	4b14      	ldr	r3, [pc, #80]	@ (8000630 <MX_SPI3_Init+0x74>)
 80005de:	2200      	movs	r2, #0
 80005e0:	611a      	str	r2, [r3, #16]
  hspi3.Init.CLKPhase = SPI_PHASE_1EDGE;
 80005e2:	4b13      	ldr	r3, [pc, #76]	@ (8000630 <MX_SPI3_Init+0x74>)
 80005e4:	2200      	movs	r2, #0
 80005e6:	615a      	str	r2, [r3, #20]
  hspi3.Init.NSS = SPI_NSS_SOFT;
 80005e8:	4b11      	ldr	r3, [pc, #68]	@ (8000630 <MX_SPI3_Init+0x74>)
 80005ea:	f44f 7200 	mov.w	r2, #512	@ 0x200
 80005ee:	619a      	str	r2, [r3, #24]
  hspi3.Init.BaudRatePrescaler = SPI_BAUDRATEPRESCALER_2;
 80005f0:	4b0f      	ldr	r3, [pc, #60]	@ (8000630 <MX_SPI3_Init+0x74>)
 80005f2:	2200      	movs	r2, #0
 80005f4:	61da      	str	r2, [r3, #28]
  hspi3.Init.FirstBit = SPI_FIRSTBIT_MSB;
 80005f6:	4b0e      	ldr	r3, [pc, #56]	@ (8000630 <MX_SPI3_Init+0x74>)
 80005f8:	2200      	movs	r2, #0
 80005fa:	621a      	str	r2, [r3, #32]
  hspi3.Init.TIMode = SPI_TIMODE_DISABLE;
 80005fc:	4b0c      	ldr	r3, [pc, #48]	@ (8000630 <MX_SPI3_Init+0x74>)
 80005fe:	2200      	movs	r2, #0
 8000600:	625a      	str	r2, [r3, #36]	@ 0x24
  hspi3.Init.CRCCalculation = SPI_CRCCALCULATION_DISABLE;
 8000602:	4b0b      	ldr	r3, [pc, #44]	@ (8000630 <MX_SPI3_Init+0x74>)
 8000604:	2200      	movs	r2, #0
 8000606:	629a      	str	r2, [r3, #40]	@ 0x28
  hspi3.Init.CRCPolynomial = 7;
 8000608:	4b09      	ldr	r3, [pc, #36]	@ (8000630 <MX_SPI3_Init+0x74>)
 800060a:	2207      	movs	r2, #7
 800060c:	62da      	str	r2, [r3, #44]	@ 0x2c
  hspi3.Init.CRCLength = SPI_CRC_LENGTH_DATASIZE;
 800060e:	4b08      	ldr	r3, [pc, #32]	@ (8000630 <MX_SPI3_Init+0x74>)
 8000610:	2200      	movs	r2, #0
 8000612:	631a      	str	r2, [r3, #48]	@ 0x30
  hspi3.Init.NSSPMode = SPI_NSS_PULSE_ENABLE;
 8000614:	4b06      	ldr	r3, [pc, #24]	@ (8000630 <MX_SPI3_Init+0x74>)
 8000616:	2208      	movs	r2, #8
 8000618:	635a      	str	r2, [r3, #52]	@ 0x34
  if (HAL_SPI_Init(&hspi3) != HAL_OK)
 800061a:	4805      	ldr	r0, [pc, #20]	@ (8000630 <MX_SPI3_Init+0x74>)
 800061c:	f002 f8a8 	bl	8002770 <HAL_SPI_Init>
 8000620:	4603      	mov	r3, r0
 8000622:	2b00      	cmp	r3, #0
 8000624:	d001      	beq.n	800062a <MX_SPI3_Init+0x6e>
  {
    Error_Handler();
 8000626:	f000 f90b 	bl	8000840 <Error_Handler>
  }
  /* USER CODE BEGIN SPI3_Init 2 */

  /* USER CODE END SPI3_Init 2 */

}
 800062a:	bf00      	nop
 800062c:	bd80      	pop	{r7, pc}
 800062e:	bf00      	nop
 8000630:	20000028 	.word	0x20000028
 8000634:	40003c00 	.word	0x40003c00

08000638 <MX_USART2_UART_Init>:
  * @brief USART2 Initialization Function
  * @param None
  * @retval None
  */
static void MX_USART2_UART_Init(void)
{
 8000638:	b580      	push	{r7, lr}
 800063a:	af00      	add	r7, sp, #0
  /* USER CODE END USART2_Init 0 */

  /* USER CODE BEGIN USART2_Init 1 */

  /* USER CODE END USART2_Init 1 */
  huart2.Instance = USART2;
 800063c:	4b14      	ldr	r3, [pc, #80]	@ (8000690 <MX_USART2_UART_Init+0x58>)
 800063e:	4a15      	ldr	r2, [pc, #84]	@ (8000694 <MX_USART2_UART_Init+0x5c>)
 8000640:	601a      	str	r2, [r3, #0]
  huart2.Init.BaudRate = 115200;
 8000642:	4b13      	ldr	r3, [pc, #76]	@ (8000690 <MX_USART2_UART_Init+0x58>)
 8000644:	f44f 32e1 	mov.w	r2, #115200	@ 0x1c200
 8000648:	605a      	str	r2, [r3, #4]
  huart2.Init.WordLength = UART_WORDLENGTH_8B;
 800064a:	4b11      	ldr	r3, [pc, #68]	@ (8000690 <MX_USART2_UART_Init+0x58>)
 800064c:	2200      	movs	r2, #0
 800064e:	609a      	str	r2, [r3, #8]
  huart2.Init.StopBits = UART_STOPBITS_1;
 8000650:	4b0f      	ldr	r3, [pc, #60]	@ (8000690 <MX_USART2_UART_Init+0x58>)
 8000652:	2200      	movs	r2, #0
 8000654:	60da      	str	r2, [r3, #12]
  huart2.Init.Parity = UART_PARITY_NONE;
 8000656:	4b0e      	ldr	r3, [pc, #56]	@ (8000690 <MX_USART2_UART_Init+0x58>)
 8000658:	2200      	movs	r2, #0
 800065a:	611a      	str	r2, [r3, #16]
  huart2.Init.Mode = UART_MODE_TX_RX;
 800065c:	4b0c      	ldr	r3, [pc, #48]	@ (8000690 <MX_USART2_UART_Init+0x58>)
 800065e:	220c      	movs	r2, #12
 8000660:	615a      	str	r2, [r3, #20]
  huart2.Init.HwFlowCtl = UART_HWCONTROL_NONE;
 8000662:	4b0b      	ldr	r3, [pc, #44]	@ (8000690 <MX_USART2_UART_Init+0x58>)
 8000664:	2200      	movs	r2, #0
 8000666:	619a      	str	r2, [r3, #24]
  huart2.Init.OverSampling = UART_OVERSAMPLING_16;
 8000668:	4b09      	ldr	r3, [pc, #36]	@ (8000690 <MX_USART2_UART_Init+0x58>)
 800066a:	2200      	movs	r2, #0
 800066c:	61da      	str	r2, [r3, #28]
  huart2.Init.OneBitSampling = UART_ONE_BIT_SAMPLE_DISABLE;
 800066e:	4b08      	ldr	r3, [pc, #32]	@ (8000690 <MX_USART2_UART_Init+0x58>)
 8000670:	2200      	movs	r2, #0
 8000672:	621a      	str	r2, [r3, #32]
  huart2.AdvancedInit.AdvFeatureInit = UART_ADVFEATURE_NO_INIT;
 8000674:	4b06      	ldr	r3, [pc, #24]	@ (8000690 <MX_USART2_UART_Init+0x58>)
 8000676:	2200      	movs	r2, #0
 8000678:	625a      	str	r2, [r3, #36]	@ 0x24
  if (HAL_UART_Init(&huart2) != HAL_OK)
 800067a:	4805      	ldr	r0, [pc, #20]	@ (8000690 <MX_USART2_UART_Init+0x58>)
 800067c:	f002 fbf6 	bl	8002e6c <HAL_UART_Init>
 8000680:	4603      	mov	r3, r0
 8000682:	2b00      	cmp	r3, #0
 8000684:	d001      	beq.n	800068a <MX_USART2_UART_Init+0x52>
  {
    Error_Handler();
 8000686:	f000 f8db 	bl	8000840 <Error_Handler>
  }
  /* USER CODE BEGIN USART2_Init 2 */

  /* USER CODE END USART2_Init 2 */

}
 800068a:	bf00      	nop
 800068c:	bd80      	pop	{r7, pc}
 800068e:	bf00      	nop
 8000690:	2000008c 	.word	0x2000008c
 8000694:	40004400 	.word	0x40004400

08000698 <MX_GPIO_Init>:
  * @brief GPIO Initialization Function
  * @param None
  * @retval None
  */
static void MX_GPIO_Init(void)
{
 8000698:	b580      	push	{r7, lr}
 800069a:	b08a      	sub	sp, #40	@ 0x28
 800069c:	af00      	add	r7, sp, #0
  GPIO_InitTypeDef GPIO_InitStruct = {0};
 800069e:	f107 0314 	add.w	r3, r7, #20
 80006a2:	2200      	movs	r2, #0
 80006a4:	601a      	str	r2, [r3, #0]
 80006a6:	605a      	str	r2, [r3, #4]
 80006a8:	609a      	str	r2, [r3, #8]
 80006aa:	60da      	str	r2, [r3, #12]
 80006ac:	611a      	str	r2, [r3, #16]
  /* USER CODE BEGIN MX_GPIO_Init_1 */

  /* USER CODE END MX_GPIO_Init_1 */

  /* GPIO Ports Clock Enable */
  __HAL_RCC_GPIOC_CLK_ENABLE();
 80006ae:	4b40      	ldr	r3, [pc, #256]	@ (80007b0 <MX_GPIO_Init+0x118>)
 80006b0:	6cdb      	ldr	r3, [r3, #76]	@ 0x4c
 80006b2:	4a3f      	ldr	r2, [pc, #252]	@ (80007b0 <MX_GPIO_Init+0x118>)
 80006b4:	f043 0304 	orr.w	r3, r3, #4
 80006b8:	64d3      	str	r3, [r2, #76]	@ 0x4c
 80006ba:	4b3d      	ldr	r3, [pc, #244]	@ (80007b0 <MX_GPIO_Init+0x118>)
 80006bc:	6cdb      	ldr	r3, [r3, #76]	@ 0x4c
 80006be:	f003 0304 	and.w	r3, r3, #4
 80006c2:	613b      	str	r3, [r7, #16]
 80006c4:	693b      	ldr	r3, [r7, #16]
  __HAL_RCC_GPIOH_CLK_ENABLE();
 80006c6:	4b3a      	ldr	r3, [pc, #232]	@ (80007b0 <MX_GPIO_Init+0x118>)
 80006c8:	6cdb      	ldr	r3, [r3, #76]	@ 0x4c
 80006ca:	4a39      	ldr	r2, [pc, #228]	@ (80007b0 <MX_GPIO_Init+0x118>)
 80006cc:	f043 0380 	orr.w	r3, r3, #128	@ 0x80
 80006d0:	64d3      	str	r3, [r2, #76]	@ 0x4c
 80006d2:	4b37      	ldr	r3, [pc, #220]	@ (80007b0 <MX_GPIO_Init+0x118>)
 80006d4:	6cdb      	ldr	r3, [r3, #76]	@ 0x4c
 80006d6:	f003 0380 	and.w	r3, r3, #128	@ 0x80
 80006da:	60fb      	str	r3, [r7, #12]
 80006dc:	68fb      	ldr	r3, [r7, #12]
  __HAL_RCC_GPIOA_CLK_ENABLE();
 80006de:	4b34      	ldr	r3, [pc, #208]	@ (80007b0 <MX_GPIO_Init+0x118>)
 80006e0:	6cdb      	ldr	r3, [r3, #76]	@ 0x4c
 80006e2:	4a33      	ldr	r2, [pc, #204]	@ (80007b0 <MX_GPIO_Init+0x118>)
 80006e4:	f043 0301 	orr.w	r3, r3, #1
 80006e8:	64d3      	str	r3, [r2, #76]	@ 0x4c
 80006ea:	4b31      	ldr	r3, [pc, #196]	@ (80007b0 <MX_GPIO_Init+0x118>)
 80006ec:	6cdb      	ldr	r3, [r3, #76]	@ 0x4c
 80006ee:	f003 0301 	and.w	r3, r3, #1
 80006f2:	60bb      	str	r3, [r7, #8]
 80006f4:	68bb      	ldr	r3, [r7, #8]
  __HAL_RCC_GPIOB_CLK_ENABLE();
 80006f6:	4b2e      	ldr	r3, [pc, #184]	@ (80007b0 <MX_GPIO_Init+0x118>)
 80006f8:	6cdb      	ldr	r3, [r3, #76]	@ 0x4c
 80006fa:	4a2d      	ldr	r2, [pc, #180]	@ (80007b0 <MX_GPIO_Init+0x118>)
 80006fc:	f043 0302 	orr.w	r3, r3, #2
 8000700:	64d3      	str	r3, [r2, #76]	@ 0x4c
 8000702:	4b2b      	ldr	r3, [pc, #172]	@ (80007b0 <MX_GPIO_Init+0x118>)
 8000704:	6cdb      	ldr	r3, [r3, #76]	@ 0x4c
 8000706:	f003 0302 	and.w	r3, r3, #2
 800070a:	607b      	str	r3, [r7, #4]
 800070c:	687b      	ldr	r3, [r7, #4]

  /*Configure GPIO pin Output Level */
  HAL_GPIO_WritePin(GPIOA, LD2_Pin|_595_Reset_Pin, GPIO_PIN_RESET);
 800070e:	2200      	movs	r2, #0
 8000710:	f44f 7108 	mov.w	r1, #544	@ 0x220
 8000714:	f04f 4090 	mov.w	r0, #1207959552	@ 0x48000000
 8000718:	f000 fcf2 	bl	8001100 <HAL_GPIO_WritePin>

  /*Configure GPIO pin Output Level */
  HAL_GPIO_WritePin(_595_STCP_GPIO_Port, _595_STCP_Pin, GPIO_PIN_RESET);
 800071c:	2200      	movs	r2, #0
 800071e:	f44f 5180 	mov.w	r1, #4096	@ 0x1000
 8000722:	4824      	ldr	r0, [pc, #144]	@ (80007b4 <MX_GPIO_Init+0x11c>)
 8000724:	f000 fcec 	bl	8001100 <HAL_GPIO_WritePin>

  /*Configure GPIO pin Output Level */
  HAL_GPIO_WritePin(_595_Enable_GPIO_Port, _595_Enable_Pin, GPIO_PIN_RESET);
 8000728:	2200      	movs	r2, #0
 800072a:	2180      	movs	r1, #128	@ 0x80
 800072c:	4822      	ldr	r0, [pc, #136]	@ (80007b8 <MX_GPIO_Init+0x120>)
 800072e:	f000 fce7 	bl	8001100 <HAL_GPIO_WritePin>

  /*Configure GPIO pin : B1_Pin */
  GPIO_InitStruct.Pin = B1_Pin;
 8000732:	f44f 5300 	mov.w	r3, #8192	@ 0x2000
 8000736:	617b      	str	r3, [r7, #20]
  GPIO_InitStruct.Mode = GPIO_MODE_IT_FALLING;
 8000738:	f44f 1304 	mov.w	r3, #2162688	@ 0x210000
 800073c:	61bb      	str	r3, [r7, #24]
  GPIO_InitStruct.Pull = GPIO_NOPULL;
 800073e:	2300      	movs	r3, #0
 8000740:	61fb      	str	r3, [r7, #28]
  HAL_GPIO_Init(B1_GPIO_Port, &GPIO_InitStruct);
 8000742:	f107 0314 	add.w	r3, r7, #20
 8000746:	4619      	mov	r1, r3
 8000748:	481b      	ldr	r0, [pc, #108]	@ (80007b8 <MX_GPIO_Init+0x120>)
 800074a:	f000 fb2f 	bl	8000dac <HAL_GPIO_Init>

  /*Configure GPIO pins : LD2_Pin _595_Reset_Pin */
  GPIO_InitStruct.Pin = LD2_Pin|_595_Reset_Pin;
 800074e:	f44f 7308 	mov.w	r3, #544	@ 0x220
 8000752:	617b      	str	r3, [r7, #20]
  GPIO_InitStruct.Mode = GPIO_MODE_OUTPUT_PP;
 8000754:	2301      	movs	r3, #1
 8000756:	61bb      	str	r3, [r7, #24]
  GPIO_InitStruct.Pull = GPIO_NOPULL;
 8000758:	2300      	movs	r3, #0
 800075a:	61fb      	str	r3, [r7, #28]
  GPIO_InitStruct.Speed = GPIO_SPEED_FREQ_LOW;
 800075c:	2300      	movs	r3, #0
 800075e:	623b      	str	r3, [r7, #32]
  HAL_GPIO_Init(GPIOA, &GPIO_InitStruct);
 8000760:	f107 0314 	add.w	r3, r7, #20
 8000764:	4619      	mov	r1, r3
 8000766:	f04f 4090 	mov.w	r0, #1207959552	@ 0x48000000
 800076a:	f000 fb1f 	bl	8000dac <HAL_GPIO_Init>

  /*Configure GPIO pin : _595_STCP_Pin */
  GPIO_InitStruct.Pin = _595_STCP_Pin;
 800076e:	f44f 5380 	mov.w	r3, #4096	@ 0x1000
 8000772:	617b      	str	r3, [r7, #20]
  GPIO_InitStruct.Mode = GPIO_MODE_OUTPUT_PP;
 8000774:	2301      	movs	r3, #1
 8000776:	61bb      	str	r3, [r7, #24]
  GPIO_InitStruct.Pull = GPIO_NOPULL;
 8000778:	2300      	movs	r3, #0
 800077a:	61fb      	str	r3, [r7, #28]
  GPIO_InitStruct.Speed = GPIO_SPEED_FREQ_LOW;
 800077c:	2300      	movs	r3, #0
 800077e:	623b      	str	r3, [r7, #32]
  HAL_GPIO_Init(_595_STCP_GPIO_Port, &GPIO_InitStruct);
 8000780:	f107 0314 	add.w	r3, r7, #20
 8000784:	4619      	mov	r1, r3
 8000786:	480b      	ldr	r0, [pc, #44]	@ (80007b4 <MX_GPIO_Init+0x11c>)
 8000788:	f000 fb10 	bl	8000dac <HAL_GPIO_Init>

  /*Configure GPIO pin : _595_Enable_Pin */
  GPIO_InitStruct.Pin = _595_Enable_Pin;
 800078c:	2380      	movs	r3, #128	@ 0x80
 800078e:	617b      	str	r3, [r7, #20]
  GPIO_InitStruct.Mode = GPIO_MODE_OUTPUT_PP;
 8000790:	2301      	movs	r3, #1
 8000792:	61bb      	str	r3, [r7, #24]
  GPIO_InitStruct.Pull = GPIO_NOPULL;
 8000794:	2300      	movs	r3, #0
 8000796:	61fb      	str	r3, [r7, #28]
  GPIO_InitStruct.Speed = GPIO_SPEED_FREQ_LOW;
 8000798:	2300      	movs	r3, #0
 800079a:	623b      	str	r3, [r7, #32]
  HAL_GPIO_Init(_595_Enable_GPIO_Port, &GPIO_InitStruct);
 800079c:	f107 0314 	add.w	r3, r7, #20
 80007a0:	4619      	mov	r1, r3
 80007a2:	4805      	ldr	r0, [pc, #20]	@ (80007b8 <MX_GPIO_Init+0x120>)
 80007a4:	f000 fb02 	bl	8000dac <HAL_GPIO_Init>

  /* USER CODE BEGIN MX_GPIO_Init_2 */

  /* USER CODE END MX_GPIO_Init_2 */
}
 80007a8:	bf00      	nop
 80007aa:	3728      	adds	r7, #40	@ 0x28
 80007ac:	46bd      	mov	sp, r7
 80007ae:	bd80      	pop	{r7, pc}
 80007b0:	40021000 	.word	0x40021000
 80007b4:	48000400 	.word	0x48000400
 80007b8:	48000800 	.word	0x48000800

080007bc <SPIinit>:

/* USER CODE BEGIN 4 */
void SPIinit(){
 80007bc:	b580      	push	{r7, lr}
 80007be:	af00      	add	r7, sp, #0
	HAL_GPIO_WritePin(_595_Enable_GPIO_Port, _595_Enable_Pin, RESET);
 80007c0:	2200      	movs	r2, #0
 80007c2:	2180      	movs	r1, #128	@ 0x80
 80007c4:	4808      	ldr	r0, [pc, #32]	@ (80007e8 <SPIinit+0x2c>)
 80007c6:	f000 fc9b 	bl	8001100 <HAL_GPIO_WritePin>
	HAL_GPIO_WritePin(_595_Reset_GPIO_Port, _595_Reset_Pin, SET);
 80007ca:	2201      	movs	r2, #1
 80007cc:	f44f 7100 	mov.w	r1, #512	@ 0x200
 80007d0:	f04f 4090 	mov.w	r0, #1207959552	@ 0x48000000
 80007d4:	f000 fc94 	bl	8001100 <HAL_GPIO_WritePin>
	HAL_GPIO_WritePin(_595_STCP_GPIO_Port, _595_STCP_Pin, RESET);
 80007d8:	2200      	movs	r2, #0
 80007da:	f44f 5180 	mov.w	r1, #4096	@ 0x1000
 80007de:	4803      	ldr	r0, [pc, #12]	@ (80007ec <SPIinit+0x30>)
 80007e0:	f000 fc8e 	bl	8001100 <HAL_GPIO_WritePin>

}
 80007e4:	bf00      	nop
 80007e6:	bd80      	pop	{r7, pc}
 80007e8:	48000800 	.word	0x48000800
 80007ec:	48000400 	.word	0x48000400

080007f0 <SPITEST>:

void SPITEST(){
 80007f0:	b580      	push	{r7, lr}
 80007f2:	b082      	sub	sp, #8
 80007f4:	af00      	add	r7, sp, #0
	uint8_t array[3] = {0xFF,0xFF,0xFF};
 80007f6:	4a0f      	ldr	r2, [pc, #60]	@ (8000834 <SPITEST+0x44>)
 80007f8:	1d3b      	adds	r3, r7, #4
 80007fa:	6812      	ldr	r2, [r2, #0]
 80007fc:	4611      	mov	r1, r2
 80007fe:	8019      	strh	r1, [r3, #0]
 8000800:	3302      	adds	r3, #2
 8000802:	0c12      	lsrs	r2, r2, #16
 8000804:	701a      	strb	r2, [r3, #0]

	HAL_SPI_Transmit(&hspi3,array,3, 50);
 8000806:	1d39      	adds	r1, r7, #4
 8000808:	2332      	movs	r3, #50	@ 0x32
 800080a:	2203      	movs	r2, #3
 800080c:	480a      	ldr	r0, [pc, #40]	@ (8000838 <SPITEST+0x48>)
 800080e:	f002 f852 	bl	80028b6 <HAL_SPI_Transmit>
	HAL_GPIO_WritePin(_595_STCP_GPIO_Port, _595_STCP_Pin, SET);
 8000812:	2201      	movs	r2, #1
 8000814:	f44f 5180 	mov.w	r1, #4096	@ 0x1000
 8000818:	4808      	ldr	r0, [pc, #32]	@ (800083c <SPITEST+0x4c>)
 800081a:	f000 fc71 	bl	8001100 <HAL_GPIO_WritePin>
	HAL_GPIO_WritePin(_595_STCP_GPIO_Port, _595_STCP_Pin, RESET);
 800081e:	2200      	movs	r2, #0
 8000820:	f44f 5180 	mov.w	r1, #4096	@ 0x1000
 8000824:	4805      	ldr	r0, [pc, #20]	@ (800083c <SPITEST+0x4c>)
 8000826:	f000 fc6b 	bl	8001100 <HAL_GPIO_WritePin>
}
 800082a:	bf00      	nop
 800082c:	3708      	adds	r7, #8
 800082e:	46bd      	mov	sp, r7
 8000830:	bd80      	pop	{r7, pc}
 8000832:	bf00      	nop
 8000834:	08003920 	.word	0x08003920
 8000838:	20000028 	.word	0x20000028
 800083c:	48000400 	.word	0x48000400

08000840 <Error_Handler>:
/**
  * @brief  This function is executed in case of error occurrence.
  * @retval None
  */
void Error_Handler(void)
{
 8000840:	b480      	push	{r7}
 8000842:	af00      	add	r7, sp, #0
  \details Disables IRQ interrupts by setting the I-bit in the CPSR.
           Can only be executed in Privileged modes.
 */
__STATIC_FORCEINLINE void __disable_irq(void)
{
  __ASM volatile ("cpsid i" : : : "memory");
 8000844:	b672      	cpsid	i
}
 8000846:	bf00      	nop
  /* USER CODE BEGIN Error_Handler_Debug */
  /* User can add his own implementation to report the HAL error return state */
  __disable_irq();
  while (1)
 8000848:	bf00      	nop
 800084a:	e7fd      	b.n	8000848 <Error_Handler+0x8>

0800084c <HAL_MspInit>:
/* USER CODE END 0 */
/**
  * Initializes the Global MSP.
  */
void HAL_MspInit(void)
{
 800084c:	b480      	push	{r7}
 800084e:	b083      	sub	sp, #12
 8000850:	af00      	add	r7, sp, #0

  /* USER CODE BEGIN MspInit 0 */

  /* USER CODE END MspInit 0 */

  __HAL_RCC_SYSCFG_CLK_ENABLE();
 8000852:	4b0f      	ldr	r3, [pc, #60]	@ (8000890 <HAL_MspInit+0x44>)
 8000854:	6e1b      	ldr	r3, [r3, #96]	@ 0x60
 8000856:	4a0e      	ldr	r2, [pc, #56]	@ (8000890 <HAL_MspInit+0x44>)
 8000858:	f043 0301 	orr.w	r3, r3, #1
 800085c:	6613      	str	r3, [r2, #96]	@ 0x60
 800085e:	4b0c      	ldr	r3, [pc, #48]	@ (8000890 <HAL_MspInit+0x44>)
 8000860:	6e1b      	ldr	r3, [r3, #96]	@ 0x60
 8000862:	f003 0301 	and.w	r3, r3, #1
 8000866:	607b      	str	r3, [r7, #4]
 8000868:	687b      	ldr	r3, [r7, #4]
  __HAL_RCC_PWR_CLK_ENABLE();
 800086a:	4b09      	ldr	r3, [pc, #36]	@ (8000890 <HAL_MspInit+0x44>)
 800086c:	6d9b      	ldr	r3, [r3, #88]	@ 0x58
 800086e:	4a08      	ldr	r2, [pc, #32]	@ (8000890 <HAL_MspInit+0x44>)
 8000870:	f043 5380 	orr.w	r3, r3, #268435456	@ 0x10000000
 8000874:	6593      	str	r3, [r2, #88]	@ 0x58
 8000876:	4b06      	ldr	r3, [pc, #24]	@ (8000890 <HAL_MspInit+0x44>)
 8000878:	6d9b      	ldr	r3, [r3, #88]	@ 0x58
 800087a:	f003 5380 	and.w	r3, r3, #268435456	@ 0x10000000
 800087e:	603b      	str	r3, [r7, #0]
 8000880:	683b      	ldr	r3, [r7, #0]
  /* System interrupt init*/

  /* USER CODE BEGIN MspInit 1 */

  /* USER CODE END MspInit 1 */
}
 8000882:	bf00      	nop
 8000884:	370c      	adds	r7, #12
 8000886:	46bd      	mov	sp, r7
 8000888:	f85d 7b04 	ldr.w	r7, [sp], #4
 800088c:	4770      	bx	lr
 800088e:	bf00      	nop
 8000890:	40021000 	.word	0x40021000

08000894 <HAL_SPI_MspInit>:
  * This function configures the hardware resources used in this example
  * @param hspi: SPI handle pointer
  * @retval None
  */
void HAL_SPI_MspInit(SPI_HandleTypeDef* hspi)
{
 8000894:	b580      	push	{r7, lr}
 8000896:	b08a      	sub	sp, #40	@ 0x28
 8000898:	af00      	add	r7, sp, #0
 800089a:	6078      	str	r0, [r7, #4]
  GPIO_InitTypeDef GPIO_InitStruct = {0};
 800089c:	f107 0314 	add.w	r3, r7, #20
 80008a0:	2200      	movs	r2, #0
 80008a2:	601a      	str	r2, [r3, #0]
 80008a4:	605a      	str	r2, [r3, #4]
 80008a6:	609a      	str	r2, [r3, #8]
 80008a8:	60da      	str	r2, [r3, #12]
 80008aa:	611a      	str	r2, [r3, #16]
  if(hspi->Instance==SPI3)
 80008ac:	687b      	ldr	r3, [r7, #4]
 80008ae:	681b      	ldr	r3, [r3, #0]
 80008b0:	4a25      	ldr	r2, [pc, #148]	@ (8000948 <HAL_SPI_MspInit+0xb4>)
 80008b2:	4293      	cmp	r3, r2
 80008b4:	d144      	bne.n	8000940 <HAL_SPI_MspInit+0xac>
  {
    /* USER CODE BEGIN SPI3_MspInit 0 */

    /* USER CODE END SPI3_MspInit 0 */
    /* Peripheral clock enable */
    __HAL_RCC_SPI3_CLK_ENABLE();
 80008b6:	4b25      	ldr	r3, [pc, #148]	@ (800094c <HAL_SPI_MspInit+0xb8>)
 80008b8:	6d9b      	ldr	r3, [r3, #88]	@ 0x58
 80008ba:	4a24      	ldr	r2, [pc, #144]	@ (800094c <HAL_SPI_MspInit+0xb8>)
 80008bc:	f443 4300 	orr.w	r3, r3, #32768	@ 0x8000
 80008c0:	6593      	str	r3, [r2, #88]	@ 0x58
 80008c2:	4b22      	ldr	r3, [pc, #136]	@ (800094c <HAL_SPI_MspInit+0xb8>)
 80008c4:	6d9b      	ldr	r3, [r3, #88]	@ 0x58
 80008c6:	f403 4300 	and.w	r3, r3, #32768	@ 0x8000
 80008ca:	613b      	str	r3, [r7, #16]
 80008cc:	693b      	ldr	r3, [r7, #16]

    __HAL_RCC_GPIOC_CLK_ENABLE();
 80008ce:	4b1f      	ldr	r3, [pc, #124]	@ (800094c <HAL_SPI_MspInit+0xb8>)
 80008d0:	6cdb      	ldr	r3, [r3, #76]	@ 0x4c
 80008d2:	4a1e      	ldr	r2, [pc, #120]	@ (800094c <HAL_SPI_MspInit+0xb8>)
 80008d4:	f043 0304 	orr.w	r3, r3, #4
 80008d8:	64d3      	str	r3, [r2, #76]	@ 0x4c
 80008da:	4b1c      	ldr	r3, [pc, #112]	@ (800094c <HAL_SPI_MspInit+0xb8>)
 80008dc:	6cdb      	ldr	r3, [r3, #76]	@ 0x4c
 80008de:	f003 0304 	and.w	r3, r3, #4
 80008e2:	60fb      	str	r3, [r7, #12]
 80008e4:	68fb      	ldr	r3, [r7, #12]
    __HAL_RCC_GPIOB_CLK_ENABLE();
 80008e6:	4b19      	ldr	r3, [pc, #100]	@ (800094c <HAL_SPI_MspInit+0xb8>)
 80008e8:	6cdb      	ldr	r3, [r3, #76]	@ 0x4c
 80008ea:	4a18      	ldr	r2, [pc, #96]	@ (800094c <HAL_SPI_MspInit+0xb8>)
 80008ec:	f043 0302 	orr.w	r3, r3, #2
 80008f0:	64d3      	str	r3, [r2, #76]	@ 0x4c
 80008f2:	4b16      	ldr	r3, [pc, #88]	@ (800094c <HAL_SPI_MspInit+0xb8>)
 80008f4:	6cdb      	ldr	r3, [r3, #76]	@ 0x4c
 80008f6:	f003 0302 	and.w	r3, r3, #2
 80008fa:	60bb      	str	r3, [r7, #8]
 80008fc:	68bb      	ldr	r3, [r7, #8]
    /**SPI3 GPIO Configuration
    PC10     ------> SPI3_SCK
    PB5     ------> SPI3_MOSI
    */
    GPIO_InitStruct.Pin = GPIO_PIN_10;
 80008fe:	f44f 6380 	mov.w	r3, #1024	@ 0x400
 8000902:	617b      	str	r3, [r7, #20]
    GPIO_InitStruct.Mode = GPIO_MODE_AF_PP;
 8000904:	2302      	movs	r3, #2
 8000906:	61bb      	str	r3, [r7, #24]
    GPIO_InitStruct.Pull = GPIO_NOPULL;
 8000908:	2300      	movs	r3, #0
 800090a:	61fb      	str	r3, [r7, #28]
    GPIO_InitStruct.Speed = GPIO_SPEED_FREQ_VERY_HIGH;
 800090c:	2303      	movs	r3, #3
 800090e:	623b      	str	r3, [r7, #32]
    GPIO_InitStruct.Alternate = GPIO_AF6_SPI3;
 8000910:	2306      	movs	r3, #6
 8000912:	627b      	str	r3, [r7, #36]	@ 0x24
    HAL_GPIO_Init(GPIOC, &GPIO_InitStruct);
 8000914:	f107 0314 	add.w	r3, r7, #20
 8000918:	4619      	mov	r1, r3
 800091a:	480d      	ldr	r0, [pc, #52]	@ (8000950 <HAL_SPI_MspInit+0xbc>)
 800091c:	f000 fa46 	bl	8000dac <HAL_GPIO_Init>

    GPIO_InitStruct.Pin = GPIO_PIN_5;
 8000920:	2320      	movs	r3, #32
 8000922:	617b      	str	r3, [r7, #20]
    GPIO_InitStruct.Mode = GPIO_MODE_AF_PP;
 8000924:	2302      	movs	r3, #2
 8000926:	61bb      	str	r3, [r7, #24]
    GPIO_InitStruct.Pull = GPIO_NOPULL;
 8000928:	2300      	movs	r3, #0
 800092a:	61fb      	str	r3, [r7, #28]
    GPIO_InitStruct.Speed = GPIO_SPEED_FREQ_VERY_HIGH;
 800092c:	2303      	movs	r3, #3
 800092e:	623b      	str	r3, [r7, #32]
    GPIO_InitStruct.Alternate = GPIO_AF6_SPI3;
 8000930:	2306      	movs	r3, #6
 8000932:	627b      	str	r3, [r7, #36]	@ 0x24
    HAL_GPIO_Init(GPIOB, &GPIO_InitStruct);
 8000934:	f107 0314 	add.w	r3, r7, #20
 8000938:	4619      	mov	r1, r3
 800093a:	4806      	ldr	r0, [pc, #24]	@ (8000954 <HAL_SPI_MspInit+0xc0>)
 800093c:	f000 fa36 	bl	8000dac <HAL_GPIO_Init>

    /* USER CODE END SPI3_MspInit 1 */

  }

}
 8000940:	bf00      	nop
 8000942:	3728      	adds	r7, #40	@ 0x28
 8000944:	46bd      	mov	sp, r7
 8000946:	bd80      	pop	{r7, pc}
 8000948:	40003c00 	.word	0x40003c00
 800094c:	40021000 	.word	0x40021000
 8000950:	48000800 	.word	0x48000800
 8000954:	48000400 	.word	0x48000400

08000958 <HAL_UART_MspInit>:
  * This function configures the hardware resources used in this example
  * @param huart: UART handle pointer
  * @retval None
  */
void HAL_UART_MspInit(UART_HandleTypeDef* huart)
{
 8000958:	b580      	push	{r7, lr}
 800095a:	b0ac      	sub	sp, #176	@ 0xb0
 800095c:	af00      	add	r7, sp, #0
 800095e:	6078      	str	r0, [r7, #4]
  GPIO_InitTypeDef GPIO_InitStruct = {0};
 8000960:	f107 039c 	add.w	r3, r7, #156	@ 0x9c
 8000964:	2200      	movs	r2, #0
 8000966:	601a      	str	r2, [r3, #0]
 8000968:	605a      	str	r2, [r3, #4]
 800096a:	609a      	str	r2, [r3, #8]
 800096c:	60da      	str	r2, [r3, #12]
 800096e:	611a      	str	r2, [r3, #16]
  RCC_PeriphCLKInitTypeDef PeriphClkInit = {0};
 8000970:	f107 0314 	add.w	r3, r7, #20
 8000974:	2288      	movs	r2, #136	@ 0x88
 8000976:	2100      	movs	r1, #0
 8000978:	4618      	mov	r0, r3
 800097a:	f002 ff98 	bl	80038ae <memset>
  if(huart->Instance==USART2)
 800097e:	687b      	ldr	r3, [r7, #4]
 8000980:	681b      	ldr	r3, [r3, #0]
 8000982:	4a21      	ldr	r2, [pc, #132]	@ (8000a08 <HAL_UART_MspInit+0xb0>)
 8000984:	4293      	cmp	r3, r2
 8000986:	d13b      	bne.n	8000a00 <HAL_UART_MspInit+0xa8>

    /* USER CODE END USART2_MspInit 0 */

  /** Initializes the peripherals clock
  */
    PeriphClkInit.PeriphClockSelection = RCC_PERIPHCLK_USART2;
 8000988:	2302      	movs	r3, #2
 800098a:	617b      	str	r3, [r7, #20]
    PeriphClkInit.Usart2ClockSelection = RCC_USART2CLKSOURCE_PCLK1;
 800098c:	2300      	movs	r3, #0
 800098e:	653b      	str	r3, [r7, #80]	@ 0x50
    if (HAL_RCCEx_PeriphCLKConfig(&PeriphClkInit) != HAL_OK)
 8000990:	f107 0314 	add.w	r3, r7, #20
 8000994:	4618      	mov	r0, r3
 8000996:	f001 fa2f 	bl	8001df8 <HAL_RCCEx_PeriphCLKConfig>
 800099a:	4603      	mov	r3, r0
 800099c:	2b00      	cmp	r3, #0
 800099e:	d001      	beq.n	80009a4 <HAL_UART_MspInit+0x4c>
    {
      Error_Handler();
 80009a0:	f7ff ff4e 	bl	8000840 <Error_Handler>
    }

    /* Peripheral clock enable */
    __HAL_RCC_USART2_CLK_ENABLE();
 80009a4:	4b19      	ldr	r3, [pc, #100]	@ (8000a0c <HAL_UART_MspInit+0xb4>)
 80009a6:	6d9b      	ldr	r3, [r3, #88]	@ 0x58
 80009a8:	4a18      	ldr	r2, [pc, #96]	@ (8000a0c <HAL_UART_MspInit+0xb4>)
 80009aa:	f443 3300 	orr.w	r3, r3, #131072	@ 0x20000
 80009ae:	6593      	str	r3, [r2, #88]	@ 0x58
 80009b0:	4b16      	ldr	r3, [pc, #88]	@ (8000a0c <HAL_UART_MspInit+0xb4>)
 80009b2:	6d9b      	ldr	r3, [r3, #88]	@ 0x58
 80009b4:	f403 3300 	and.w	r3, r3, #131072	@ 0x20000
 80009b8:	613b      	str	r3, [r7, #16]
 80009ba:	693b      	ldr	r3, [r7, #16]

    __HAL_RCC_GPIOA_CLK_ENABLE();
 80009bc:	4b13      	ldr	r3, [pc, #76]	@ (8000a0c <HAL_UART_MspInit+0xb4>)
 80009be:	6cdb      	ldr	r3, [r3, #76]	@ 0x4c
 80009c0:	4a12      	ldr	r2, [pc, #72]	@ (8000a0c <HAL_UART_MspInit+0xb4>)
 80009c2:	f043 0301 	orr.w	r3, r3, #1
 80009c6:	64d3      	str	r3, [r2, #76]	@ 0x4c
 80009c8:	4b10      	ldr	r3, [pc, #64]	@ (8000a0c <HAL_UART_MspInit+0xb4>)
 80009ca:	6cdb      	ldr	r3, [r3, #76]	@ 0x4c
 80009cc:	f003 0301 	and.w	r3, r3, #1
 80009d0:	60fb      	str	r3, [r7, #12]
 80009d2:	68fb      	ldr	r3, [r7, #12]
    /**USART2 GPIO Configuration
    PA2     ------> USART2_TX
    PA3     ------> USART2_RX
    */
    GPIO_InitStruct.Pin = USART_TX_Pin|USART_RX_Pin;
 80009d4:	230c      	movs	r3, #12
 80009d6:	f8c7 309c 	str.w	r3, [r7, #156]	@ 0x9c
    GPIO_InitStruct.Mode = GPIO_MODE_AF_PP;
 80009da:	2302      	movs	r3, #2
 80009dc:	f8c7 30a0 	str.w	r3, [r7, #160]	@ 0xa0
    GPIO_InitStruct.Pull = GPIO_NOPULL;
 80009e0:	2300      	movs	r3, #0
 80009e2:	f8c7 30a4 	str.w	r3, [r7, #164]	@ 0xa4
    GPIO_InitStruct.Speed = GPIO_SPEED_FREQ_VERY_HIGH;
 80009e6:	2303      	movs	r3, #3
 80009e8:	f8c7 30a8 	str.w	r3, [r7, #168]	@ 0xa8
    GPIO_InitStruct.Alternate = GPIO_AF7_USART2;
 80009ec:	2307      	movs	r3, #7
 80009ee:	f8c7 30ac 	str.w	r3, [r7, #172]	@ 0xac
    HAL_GPIO_Init(GPIOA, &GPIO_InitStruct);
 80009f2:	f107 039c 	add.w	r3, r7, #156	@ 0x9c
 80009f6:	4619      	mov	r1, r3
 80009f8:	f04f 4090 	mov.w	r0, #1207959552	@ 0x48000000
 80009fc:	f000 f9d6 	bl	8000dac <HAL_GPIO_Init>

    /* USER CODE END USART2_MspInit 1 */

  }

}
 8000a00:	bf00      	nop
 8000a02:	37b0      	adds	r7, #176	@ 0xb0
 8000a04:	46bd      	mov	sp, r7
 8000a06:	bd80      	pop	{r7, pc}
 8000a08:	40004400 	.word	0x40004400
 8000a0c:	40021000 	.word	0x40021000

08000a10 <NMI_Handler>:
/******************************************************************************/
/**
  * @brief This function handles Non maskable interrupt.
  */
void NMI_Handler(void)
{
 8000a10:	b480      	push	{r7}
 8000a12:	af00      	add	r7, sp, #0
  /* USER CODE BEGIN NonMaskableInt_IRQn 0 */

  /* USER CODE END NonMaskableInt_IRQn 0 */
  /* USER CODE BEGIN NonMaskableInt_IRQn 1 */
   while (1)
 8000a14:	bf00      	nop
 8000a16:	e7fd      	b.n	8000a14 <NMI_Handler+0x4>

08000a18 <HardFault_Handler>:

/**
  * @brief This function handles Hard fault interrupt.
  */
void HardFault_Handler(void)
{
 8000a18:	b480      	push	{r7}
 8000a1a:	af00      	add	r7, sp, #0
  /* USER CODE BEGIN HardFault_IRQn 0 */

  /* USER CODE END HardFault_IRQn 0 */
  while (1)
 8000a1c:	bf00      	nop
 8000a1e:	e7fd      	b.n	8000a1c <HardFault_Handler+0x4>

08000a20 <MemManage_Handler>:

/**
  * @brief This function handles Memory management fault.
  */
void MemManage_Handler(void)
{
 8000a20:	b480      	push	{r7}
 8000a22:	af00      	add	r7, sp, #0
  /* USER CODE BEGIN MemoryManagement_IRQn 0 */

  /* USER CODE END MemoryManagement_IRQn 0 */
  while (1)
 8000a24:	bf00      	nop
 8000a26:	e7fd      	b.n	8000a24 <MemManage_Handler+0x4>

08000a28 <BusFault_Handler>:

/**
  * @brief This function handles Prefetch fault, memory access fault.
  */
void BusFault_Handler(void)
{
 8000a28:	b480      	push	{r7}
 8000a2a:	af00      	add	r7, sp, #0
  /* USER CODE BEGIN BusFault_IRQn 0 */

  /* USER CODE END BusFault_IRQn 0 */
  while (1)
 8000a2c:	bf00      	nop
 8000a2e:	e7fd      	b.n	8000a2c <BusFault_Handler+0x4>

08000a30 <UsageFault_Handler>:

/**
  * @brief This function handles Undefined instruction or illegal state.
  */
void UsageFault_Handler(void)
{
 8000a30:	b480      	push	{r7}
 8000a32:	af00      	add	r7, sp, #0
  /* USER CODE BEGIN UsageFault_IRQn 0 */

  /* USER CODE END UsageFault_IRQn 0 */
  while (1)
 8000a34:	bf00      	nop
 8000a36:	e7fd      	b.n	8000a34 <UsageFault_Handler+0x4>

08000a38 <SVC_Handler>:

/**
  * @brief This function handles System service call via SWI instruction.
  */
void SVC_Handler(void)
{
 8000a38:	b480      	push	{r7}
 8000a3a:	af00      	add	r7, sp, #0

  /* USER CODE END SVCall_IRQn 0 */
  /* USER CODE BEGIN SVCall_IRQn 1 */

  /* USER CODE END SVCall_IRQn 1 */
}
 8000a3c:	bf00      	nop
 8000a3e:	46bd      	mov	sp, r7
 8000a40:	f85d 7b04 	ldr.w	r7, [sp], #4
 8000a44:	4770      	bx	lr

08000a46 <DebugMon_Handler>:

/**
  * @brief This function handles Debug monitor.
  */
void DebugMon_Handler(void)
{
 8000a46:	b480      	push	{r7}
 8000a48:	af00      	add	r7, sp, #0

  /* USER CODE END DebugMonitor_IRQn 0 */
  /* USER CODE BEGIN DebugMonitor_IRQn 1 */

  /* USER CODE END DebugMonitor_IRQn 1 */
}
 8000a4a:	bf00      	nop
 8000a4c:	46bd      	mov	sp, r7
 8000a4e:	f85d 7b04 	ldr.w	r7, [sp], #4
 8000a52:	4770      	bx	lr

08000a54 <PendSV_Handler>:

/**
  * @brief This function handles Pendable request for system service.
  */
void PendSV_Handler(void)
{
 8000a54:	b480      	push	{r7}
 8000a56:	af00      	add	r7, sp, #0

  /* USER CODE END PendSV_IRQn 0 */
  /* USER CODE BEGIN PendSV_IRQn 1 */

  /* USER CODE END PendSV_IRQn 1 */
}
 8000a58:	bf00      	nop
 8000a5a:	46bd      	mov	sp, r7
 8000a5c:	f85d 7b04 	ldr.w	r7, [sp], #4
 8000a60:	4770      	bx	lr

08000a62 <SysTick_Handler>:

/**
  * @brief This function handles System tick timer.
  */
void SysTick_Handler(void)
{
 8000a62:	b580      	push	{r7, lr}
 8000a64:	af00      	add	r7, sp, #0
  /* USER CODE BEGIN SysTick_IRQn 0 */

  /* USER CODE END SysTick_IRQn 0 */
  HAL_IncTick();
 8000a66:	f000 f89b 	bl	8000ba0 <HAL_IncTick>
  /* USER CODE BEGIN SysTick_IRQn 1 */

  /* USER CODE END SysTick_IRQn 1 */
}
 8000a6a:	bf00      	nop
 8000a6c:	bd80      	pop	{r7, pc}
	...

08000a70 <SystemInit>:
  * @brief  Setup the microcontroller system.
  * @retval None
  */

void SystemInit(void)
{
 8000a70:	b480      	push	{r7}
 8000a72:	af00      	add	r7, sp, #0
  SCB->VTOR = VECT_TAB_BASE_ADDRESS | VECT_TAB_OFFSET;
#endif

  /* FPU settings ------------------------------------------------------------*/
#if (__FPU_PRESENT == 1) && (__FPU_USED == 1)
  SCB->CPACR |= ((3UL << 20U)|(3UL << 22U));  /* set CP10 and CP11 Full Access */
 8000a74:	4b06      	ldr	r3, [pc, #24]	@ (8000a90 <SystemInit+0x20>)
 8000a76:	f8d3 3088 	ldr.w	r3, [r3, #136]	@ 0x88
 8000a7a:	4a05      	ldr	r2, [pc, #20]	@ (8000a90 <SystemInit+0x20>)
 8000a7c:	f443 0370 	orr.w	r3, r3, #15728640	@ 0xf00000
 8000a80:	f8c2 3088 	str.w	r3, [r2, #136]	@ 0x88
#endif
}
 8000a84:	bf00      	nop
 8000a86:	46bd      	mov	sp, r7
 8000a88:	f85d 7b04 	ldr.w	r7, [sp], #4
 8000a8c:	4770      	bx	lr
 8000a8e:	bf00      	nop
 8000a90:	e000ed00 	.word	0xe000ed00

08000a94 <Reset_Handler>:

    .section	.text.Reset_Handler
	.weak	Reset_Handler
	.type	Reset_Handler, %function
Reset_Handler:
  ldr   sp, =_estack    /* Set stack pointer */
 8000a94:	f8df d034 	ldr.w	sp, [pc, #52]	@ 8000acc <LoopForever+0x2>

/* Call the clock system initialization function.*/
    bl  SystemInit
 8000a98:	f7ff ffea 	bl	8000a70 <SystemInit>

/* Copy the data segment initializers from flash to SRAM */
  ldr r0, =_sdata
 8000a9c:	480c      	ldr	r0, [pc, #48]	@ (8000ad0 <LoopForever+0x6>)
  ldr r1, =_edata
 8000a9e:	490d      	ldr	r1, [pc, #52]	@ (8000ad4 <LoopForever+0xa>)
  ldr r2, =_sidata
 8000aa0:	4a0d      	ldr	r2, [pc, #52]	@ (8000ad8 <LoopForever+0xe>)
  movs r3, #0
 8000aa2:	2300      	movs	r3, #0
  b LoopCopyDataInit
 8000aa4:	e002      	b.n	8000aac <LoopCopyDataInit>

08000aa6 <CopyDataInit>:

CopyDataInit:
  ldr r4, [r2, r3]
 8000aa6:	58d4      	ldr	r4, [r2, r3]
  str r4, [r0, r3]
 8000aa8:	50c4      	str	r4, [r0, r3]
  adds r3, r3, #4
 8000aaa:	3304      	adds	r3, #4

08000aac <LoopCopyDataInit>:

LoopCopyDataInit:
  adds r4, r0, r3
 8000aac:	18c4      	adds	r4, r0, r3
  cmp r4, r1
 8000aae:	428c      	cmp	r4, r1
  bcc CopyDataInit
 8000ab0:	d3f9      	bcc.n	8000aa6 <CopyDataInit>
  
/* Zero fill the bss segment. */
  ldr r2, =_sbss
 8000ab2:	4a0a      	ldr	r2, [pc, #40]	@ (8000adc <LoopForever+0x12>)
  ldr r4, =_ebss
 8000ab4:	4c0a      	ldr	r4, [pc, #40]	@ (8000ae0 <LoopForever+0x16>)
  movs r3, #0
 8000ab6:	2300      	movs	r3, #0
  b LoopFillZerobss
 8000ab8:	e001      	b.n	8000abe <LoopFillZerobss>

08000aba <FillZerobss>:

FillZerobss:
  str  r3, [r2]
 8000aba:	6013      	str	r3, [r2, #0]
  adds r2, r2, #4
 8000abc:	3204      	adds	r2, #4

08000abe <LoopFillZerobss>:

LoopFillZerobss:
  cmp r2, r4
 8000abe:	42a2      	cmp	r2, r4
  bcc FillZerobss
 8000ac0:	d3fb      	bcc.n	8000aba <FillZerobss>

/* Call static constructors */
    bl __libc_init_array
 8000ac2:	f002 fefd 	bl	80038c0 <__libc_init_array>
/* Call the application's entry point.*/
	bl	main
 8000ac6:	f7ff fd15 	bl	80004f4 <main>

08000aca <LoopForever>:

LoopForever:
    b LoopForever
 8000aca:	e7fe      	b.n	8000aca <LoopForever>
  ldr   sp, =_estack    /* Set stack pointer */
 8000acc:	20018000 	.word	0x20018000
  ldr r0, =_sdata
 8000ad0:	20000000 	.word	0x20000000
  ldr r1, =_edata
 8000ad4:	2000000c 	.word	0x2000000c
  ldr r2, =_sidata
 8000ad8:	0800397c 	.word	0x0800397c
  ldr r2, =_sbss
 8000adc:	2000000c 	.word	0x2000000c
  ldr r4, =_ebss
 8000ae0:	20000118 	.word	0x20000118

08000ae4 <ADC1_2_IRQHandler>:
 * @retval : None
*/
    .section	.text.Default_Handler,"ax",%progbits
Default_Handler:
Infinite_Loop:
	b	Infinite_Loop
 8000ae4:	e7fe      	b.n	8000ae4 <ADC1_2_IRQHandler>
	...

08000ae8 <HAL_Init>:
  *         each 1ms in the SysTick_Handler() interrupt handler.
  *
  * @retval HAL status
  */
HAL_StatusTypeDef HAL_Init(void)
{
 8000ae8:	b580      	push	{r7, lr}
 8000aea:	b082      	sub	sp, #8
 8000aec:	af00      	add	r7, sp, #0
  HAL_StatusTypeDef  status = HAL_OK;
 8000aee:	2300      	movs	r3, #0
 8000af0:	71fb      	strb	r3, [r7, #7]
#if (DATA_CACHE_ENABLE == 0)
   __HAL_FLASH_DATA_CACHE_DISABLE();
#endif /* DATA_CACHE_ENABLE */

#if (PREFETCH_ENABLE != 0)
  __HAL_FLASH_PREFETCH_BUFFER_ENABLE();
 8000af2:	4b0c      	ldr	r3, [pc, #48]	@ (8000b24 <HAL_Init+0x3c>)
 8000af4:	681b      	ldr	r3, [r3, #0]
 8000af6:	4a0b      	ldr	r2, [pc, #44]	@ (8000b24 <HAL_Init+0x3c>)
 8000af8:	f443 7380 	orr.w	r3, r3, #256	@ 0x100
 8000afc:	6013      	str	r3, [r2, #0]
#endif /* PREFETCH_ENABLE */

  /* Set Interrupt Group Priority */
  HAL_NVIC_SetPriorityGrouping(NVIC_PRIORITYGROUP_4);
 8000afe:	2003      	movs	r0, #3
 8000b00:	f000 f920 	bl	8000d44 <HAL_NVIC_SetPriorityGrouping>

  /* Use SysTick as time base source and configure 1ms tick (default clock after Reset is MSI) */
  if (HAL_InitTick(TICK_INT_PRIORITY) != HAL_OK)
 8000b04:	2000      	movs	r0, #0
 8000b06:	f000 f80f 	bl	8000b28 <HAL_InitTick>
 8000b0a:	4603      	mov	r3, r0
 8000b0c:	2b00      	cmp	r3, #0
 8000b0e:	d002      	beq.n	8000b16 <HAL_Init+0x2e>
  {
    status = HAL_ERROR;
 8000b10:	2301      	movs	r3, #1
 8000b12:	71fb      	strb	r3, [r7, #7]
 8000b14:	e001      	b.n	8000b1a <HAL_Init+0x32>
  }
  else
  {
    /* Init the low level hardware */
    HAL_MspInit();
 8000b16:	f7ff fe99 	bl	800084c <HAL_MspInit>
  }

  /* Return function status */
  return status;
 8000b1a:	79fb      	ldrb	r3, [r7, #7]
}
 8000b1c:	4618      	mov	r0, r3
 8000b1e:	3708      	adds	r7, #8
 8000b20:	46bd      	mov	sp, r7
 8000b22:	bd80      	pop	{r7, pc}
 8000b24:	40022000 	.word	0x40022000

08000b28 <HAL_InitTick>:
  *       implementation  in user file.
  * @param TickPriority  Tick interrupt priority.
  * @retval HAL status
  */
__weak HAL_StatusTypeDef HAL_InitTick(uint32_t TickPriority)
{
 8000b28:	b580      	push	{r7, lr}
 8000b2a:	b084      	sub	sp, #16
 8000b2c:	af00      	add	r7, sp, #0
 8000b2e:	6078      	str	r0, [r7, #4]
  HAL_StatusTypeDef  status = HAL_OK;
 8000b30:	2300      	movs	r3, #0
 8000b32:	73fb      	strb	r3, [r7, #15]

  /* Check uwTickFreq for MisraC 2012 (even if uwTickFreq is a enum type that doesn't take the value zero)*/
  if ((uint32_t)uwTickFreq != 0U)
 8000b34:	4b17      	ldr	r3, [pc, #92]	@ (8000b94 <HAL_InitTick+0x6c>)
 8000b36:	781b      	ldrb	r3, [r3, #0]
 8000b38:	2b00      	cmp	r3, #0
 8000b3a:	d023      	beq.n	8000b84 <HAL_InitTick+0x5c>
  {
    /*Configure the SysTick to have interrupt in 1ms time basis*/
    if (HAL_SYSTICK_Config(SystemCoreClock / (1000U / (uint32_t)uwTickFreq)) == 0U)
 8000b3c:	4b16      	ldr	r3, [pc, #88]	@ (8000b98 <HAL_InitTick+0x70>)
 8000b3e:	681a      	ldr	r2, [r3, #0]
 8000b40:	4b14      	ldr	r3, [pc, #80]	@ (8000b94 <HAL_InitTick+0x6c>)
 8000b42:	781b      	ldrb	r3, [r3, #0]
 8000b44:	4619      	mov	r1, r3
 8000b46:	f44f 737a 	mov.w	r3, #1000	@ 0x3e8
 8000b4a:	fbb3 f3f1 	udiv	r3, r3, r1
 8000b4e:	fbb2 f3f3 	udiv	r3, r2, r3
 8000b52:	4618      	mov	r0, r3
 8000b54:	f000 f91d 	bl	8000d92 <HAL_SYSTICK_Config>
 8000b58:	4603      	mov	r3, r0
 8000b5a:	2b00      	cmp	r3, #0
 8000b5c:	d10f      	bne.n	8000b7e <HAL_InitTick+0x56>
    {
      /* Configure the SysTick IRQ priority */
      if (TickPriority < (1UL << __NVIC_PRIO_BITS))
 8000b5e:	687b      	ldr	r3, [r7, #4]
 8000b60:	2b0f      	cmp	r3, #15
 8000b62:	d809      	bhi.n	8000b78 <HAL_InitTick+0x50>
      {
        HAL_NVIC_SetPriority(SysTick_IRQn, TickPriority, 0U);
 8000b64:	2200      	movs	r2, #0
 8000b66:	6879      	ldr	r1, [r7, #4]
 8000b68:	f04f 30ff 	mov.w	r0, #4294967295
 8000b6c:	f000 f8f5 	bl	8000d5a <HAL_NVIC_SetPriority>
        uwTickPrio = TickPriority;
 8000b70:	4a0a      	ldr	r2, [pc, #40]	@ (8000b9c <HAL_InitTick+0x74>)
 8000b72:	687b      	ldr	r3, [r7, #4]
 8000b74:	6013      	str	r3, [r2, #0]
 8000b76:	e007      	b.n	8000b88 <HAL_InitTick+0x60>
      }
      else
      {
        status = HAL_ERROR;
 8000b78:	2301      	movs	r3, #1
 8000b7a:	73fb      	strb	r3, [r7, #15]
 8000b7c:	e004      	b.n	8000b88 <HAL_InitTick+0x60>
      }
    }
    else
    {
      status = HAL_ERROR;
 8000b7e:	2301      	movs	r3, #1
 8000b80:	73fb      	strb	r3, [r7, #15]
 8000b82:	e001      	b.n	8000b88 <HAL_InitTick+0x60>
    }
  }
  else
  {
    status = HAL_ERROR;
 8000b84:	2301      	movs	r3, #1
 8000b86:	73fb      	strb	r3, [r7, #15]
  }

  /* Return function status */
  return status;
 8000b88:	7bfb      	ldrb	r3, [r7, #15]
}
 8000b8a:	4618      	mov	r0, r3
 8000b8c:	3710      	adds	r7, #16
 8000b8e:	46bd      	mov	sp, r7
 8000b90:	bd80      	pop	{r7, pc}
 8000b92:	bf00      	nop
 8000b94:	20000008 	.word	0x20000008
 8000b98:	20000000 	.word	0x20000000
 8000b9c:	20000004 	.word	0x20000004

08000ba0 <HAL_IncTick>:
 * @note This function is declared as __weak to be overwritten in case of other
  *      implementations in user file.
  * @retval None
  */
__weak void HAL_IncTick(void)
{
 8000ba0:	b480      	push	{r7}
 8000ba2:	af00      	add	r7, sp, #0
  uwTick += (uint32_t)uwTickFreq;
 8000ba4:	4b06      	ldr	r3, [pc, #24]	@ (8000bc0 <HAL_IncTick+0x20>)
 8000ba6:	781b      	ldrb	r3, [r3, #0]
 8000ba8:	461a      	mov	r2, r3
 8000baa:	4b06      	ldr	r3, [pc, #24]	@ (8000bc4 <HAL_IncTick+0x24>)
 8000bac:	681b      	ldr	r3, [r3, #0]
 8000bae:	4413      	add	r3, r2
 8000bb0:	4a04      	ldr	r2, [pc, #16]	@ (8000bc4 <HAL_IncTick+0x24>)
 8000bb2:	6013      	str	r3, [r2, #0]
}
 8000bb4:	bf00      	nop
 8000bb6:	46bd      	mov	sp, r7
 8000bb8:	f85d 7b04 	ldr.w	r7, [sp], #4
 8000bbc:	4770      	bx	lr
 8000bbe:	bf00      	nop
 8000bc0:	20000008 	.word	0x20000008
 8000bc4:	20000114 	.word	0x20000114

08000bc8 <HAL_GetTick>:
  * @note This function is declared as __weak to be overwritten in case of other
  *       implementations in user file.
  * @retval tick value
  */
__weak uint32_t HAL_GetTick(void)
{
 8000bc8:	b480      	push	{r7}
 8000bca:	af00      	add	r7, sp, #0
  return uwTick;
 8000bcc:	4b03      	ldr	r3, [pc, #12]	@ (8000bdc <HAL_GetTick+0x14>)
 8000bce:	681b      	ldr	r3, [r3, #0]
}
 8000bd0:	4618      	mov	r0, r3
 8000bd2:	46bd      	mov	sp, r7
 8000bd4:	f85d 7b04 	ldr.w	r7, [sp], #4
 8000bd8:	4770      	bx	lr
 8000bda:	bf00      	nop
 8000bdc:	20000114 	.word	0x20000114

08000be0 <__NVIC_SetPriorityGrouping>:
           In case of a conflict between priority grouping and available
           priority bits (__NVIC_PRIO_BITS), the smallest possible priority group is set.
  \param [in]      PriorityGroup  Priority grouping field.
 */
__STATIC_INLINE void __NVIC_SetPriorityGrouping(uint32_t PriorityGroup)
{
 8000be0:	b480      	push	{r7}
 8000be2:	b085      	sub	sp, #20
 8000be4:	af00      	add	r7, sp, #0
 8000be6:	6078      	str	r0, [r7, #4]
  uint32_t reg_value;
  uint32_t PriorityGroupTmp = (PriorityGroup & (uint32_t)0x07UL);             /* only values 0..7 are used          */
 8000be8:	687b      	ldr	r3, [r7, #4]
 8000bea:	f003 0307 	and.w	r3, r3, #7
 8000bee:	60fb      	str	r3, [r7, #12]

  reg_value  =  SCB->AIRCR;                                                   /* read old register configuration    */
 8000bf0:	4b0c      	ldr	r3, [pc, #48]	@ (8000c24 <__NVIC_SetPriorityGrouping+0x44>)
 8000bf2:	68db      	ldr	r3, [r3, #12]
 8000bf4:	60bb      	str	r3, [r7, #8]
  reg_value &= ~((uint32_t)(SCB_AIRCR_VECTKEY_Msk | SCB_AIRCR_PRIGROUP_Msk)); /* clear bits to change               */
 8000bf6:	68ba      	ldr	r2, [r7, #8]
 8000bf8:	f64f 03ff 	movw	r3, #63743	@ 0xf8ff
 8000bfc:	4013      	ands	r3, r2
 8000bfe:	60bb      	str	r3, [r7, #8]
  reg_value  =  (reg_value                                   |
                ((uint32_t)0x5FAUL << SCB_AIRCR_VECTKEY_Pos) |
                (PriorityGroupTmp << SCB_AIRCR_PRIGROUP_Pos)  );              /* Insert write key and priority group */
 8000c00:	68fb      	ldr	r3, [r7, #12]
 8000c02:	021a      	lsls	r2, r3, #8
                ((uint32_t)0x5FAUL << SCB_AIRCR_VECTKEY_Pos) |
 8000c04:	68bb      	ldr	r3, [r7, #8]
 8000c06:	4313      	orrs	r3, r2
  reg_value  =  (reg_value                                   |
 8000c08:	f043 63bf 	orr.w	r3, r3, #100139008	@ 0x5f80000
 8000c0c:	f443 3300 	orr.w	r3, r3, #131072	@ 0x20000
 8000c10:	60bb      	str	r3, [r7, #8]
  SCB->AIRCR =  reg_value;
 8000c12:	4a04      	ldr	r2, [pc, #16]	@ (8000c24 <__NVIC_SetPriorityGrouping+0x44>)
 8000c14:	68bb      	ldr	r3, [r7, #8]
 8000c16:	60d3      	str	r3, [r2, #12]
}
 8000c18:	bf00      	nop
 8000c1a:	3714      	adds	r7, #20
 8000c1c:	46bd      	mov	sp, r7
 8000c1e:	f85d 7b04 	ldr.w	r7, [sp], #4
 8000c22:	4770      	bx	lr
 8000c24:	e000ed00 	.word	0xe000ed00

08000c28 <__NVIC_GetPriorityGrouping>:
  \brief   Get Priority Grouping
  \details Reads the priority grouping field from the NVIC Interrupt Controller.
  \return                Priority grouping field (SCB->AIRCR [10:8] PRIGROUP field).
 */
__STATIC_INLINE uint32_t __NVIC_GetPriorityGrouping(void)
{
 8000c28:	b480      	push	{r7}
 8000c2a:	af00      	add	r7, sp, #0
  return ((uint32_t)((SCB->AIRCR & SCB_AIRCR_PRIGROUP_Msk) >> SCB_AIRCR_PRIGROUP_Pos));
 8000c2c:	4b04      	ldr	r3, [pc, #16]	@ (8000c40 <__NVIC_GetPriorityGrouping+0x18>)
 8000c2e:	68db      	ldr	r3, [r3, #12]
 8000c30:	0a1b      	lsrs	r3, r3, #8
 8000c32:	f003 0307 	and.w	r3, r3, #7
}
 8000c36:	4618      	mov	r0, r3
 8000c38:	46bd      	mov	sp, r7
 8000c3a:	f85d 7b04 	ldr.w	r7, [sp], #4
 8000c3e:	4770      	bx	lr
 8000c40:	e000ed00 	.word	0xe000ed00

08000c44 <__NVIC_SetPriority>:
  \param [in]      IRQn  Interrupt number.
  \param [in]  priority  Priority to set.
  \note    The priority cannot be set for every processor exception.
 */
__STATIC_INLINE void __NVIC_SetPriority(IRQn_Type IRQn, uint32_t priority)
{
 8000c44:	b480      	push	{r7}
 8000c46:	b083      	sub	sp, #12
 8000c48:	af00      	add	r7, sp, #0
 8000c4a:	4603      	mov	r3, r0
 8000c4c:	6039      	str	r1, [r7, #0]
 8000c4e:	71fb      	strb	r3, [r7, #7]
  if ((int32_t)(IRQn) >= 0)
 8000c50:	f997 3007 	ldrsb.w	r3, [r7, #7]
 8000c54:	2b00      	cmp	r3, #0
 8000c56:	db0a      	blt.n	8000c6e <__NVIC_SetPriority+0x2a>
  {
    NVIC->IP[((uint32_t)IRQn)]               = (uint8_t)((priority << (8U - __NVIC_PRIO_BITS)) & (uint32_t)0xFFUL);
 8000c58:	683b      	ldr	r3, [r7, #0]
 8000c5a:	b2da      	uxtb	r2, r3
 8000c5c:	490c      	ldr	r1, [pc, #48]	@ (8000c90 <__NVIC_SetPriority+0x4c>)
 8000c5e:	f997 3007 	ldrsb.w	r3, [r7, #7]
 8000c62:	0112      	lsls	r2, r2, #4
 8000c64:	b2d2      	uxtb	r2, r2
 8000c66:	440b      	add	r3, r1
 8000c68:	f883 2300 	strb.w	r2, [r3, #768]	@ 0x300
  }
  else
  {
    SCB->SHP[(((uint32_t)IRQn) & 0xFUL)-4UL] = (uint8_t)((priority << (8U - __NVIC_PRIO_BITS)) & (uint32_t)0xFFUL);
  }
}
 8000c6c:	e00a      	b.n	8000c84 <__NVIC_SetPriority+0x40>
    SCB->SHP[(((uint32_t)IRQn) & 0xFUL)-4UL] = (uint8_t)((priority << (8U - __NVIC_PRIO_BITS)) & (uint32_t)0xFFUL);
 8000c6e:	683b      	ldr	r3, [r7, #0]
 8000c70:	b2da      	uxtb	r2, r3
 8000c72:	4908      	ldr	r1, [pc, #32]	@ (8000c94 <__NVIC_SetPriority+0x50>)
 8000c74:	79fb      	ldrb	r3, [r7, #7]
 8000c76:	f003 030f 	and.w	r3, r3, #15
 8000c7a:	3b04      	subs	r3, #4
 8000c7c:	0112      	lsls	r2, r2, #4
 8000c7e:	b2d2      	uxtb	r2, r2
 8000c80:	440b      	add	r3, r1
 8000c82:	761a      	strb	r2, [r3, #24]
}
 8000c84:	bf00      	nop
 8000c86:	370c      	adds	r7, #12
 8000c88:	46bd      	mov	sp, r7
 8000c8a:	f85d 7b04 	ldr.w	r7, [sp], #4
 8000c8e:	4770      	bx	lr
 8000c90:	e000e100 	.word	0xe000e100
 8000c94:	e000ed00 	.word	0xe000ed00

08000c98 <NVIC_EncodePriority>:
  \param [in]   PreemptPriority  Preemptive priority value (starting from 0).
  \param [in]       SubPriority  Subpriority value (starting from 0).
  \return                        Encoded priority. Value can be used in the function \ref NVIC_SetPriority().
 */
__STATIC_INLINE uint32_t NVIC_EncodePriority (uint32_t PriorityGroup, uint32_t PreemptPriority, uint32_t SubPriority)
{
 8000c98:	b480      	push	{r7}
 8000c9a:	b089      	sub	sp, #36	@ 0x24
 8000c9c:	af00      	add	r7, sp, #0
 8000c9e:	60f8      	str	r0, [r7, #12]
 8000ca0:	60b9      	str	r1, [r7, #8]
 8000ca2:	607a      	str	r2, [r7, #4]
  uint32_t PriorityGroupTmp = (PriorityGroup & (uint32_t)0x07UL);   /* only values 0..7 are used          */
 8000ca4:	68fb      	ldr	r3, [r7, #12]
 8000ca6:	f003 0307 	and.w	r3, r3, #7
 8000caa:	61fb      	str	r3, [r7, #28]
  uint32_t PreemptPriorityBits;
  uint32_t SubPriorityBits;

  PreemptPriorityBits = ((7UL - PriorityGroupTmp) > (uint32_t)(__NVIC_PRIO_BITS)) ? (uint32_t)(__NVIC_PRIO_BITS) : (uint32_t)(7UL - PriorityGroupTmp);
 8000cac:	69fb      	ldr	r3, [r7, #28]
 8000cae:	f1c3 0307 	rsb	r3, r3, #7
 8000cb2:	2b04      	cmp	r3, #4
 8000cb4:	bf28      	it	cs
 8000cb6:	2304      	movcs	r3, #4
 8000cb8:	61bb      	str	r3, [r7, #24]
  SubPriorityBits     = ((PriorityGroupTmp + (uint32_t)(__NVIC_PRIO_BITS)) < (uint32_t)7UL) ? (uint32_t)0UL : (uint32_t)((PriorityGroupTmp - 7UL) + (uint32_t)(__NVIC_PRIO_BITS));
 8000cba:	69fb      	ldr	r3, [r7, #28]
 8000cbc:	3304      	adds	r3, #4
 8000cbe:	2b06      	cmp	r3, #6
 8000cc0:	d902      	bls.n	8000cc8 <NVIC_EncodePriority+0x30>
 8000cc2:	69fb      	ldr	r3, [r7, #28]
 8000cc4:	3b03      	subs	r3, #3
 8000cc6:	e000      	b.n	8000cca <NVIC_EncodePriority+0x32>
 8000cc8:	2300      	movs	r3, #0
 8000cca:	617b      	str	r3, [r7, #20]

  return (
           ((PreemptPriority & (uint32_t)((1UL << (PreemptPriorityBits)) - 1UL)) << SubPriorityBits) |
 8000ccc:	f04f 32ff 	mov.w	r2, #4294967295
 8000cd0:	69bb      	ldr	r3, [r7, #24]
 8000cd2:	fa02 f303 	lsl.w	r3, r2, r3
 8000cd6:	43da      	mvns	r2, r3
 8000cd8:	68bb      	ldr	r3, [r7, #8]
 8000cda:	401a      	ands	r2, r3
 8000cdc:	697b      	ldr	r3, [r7, #20]
 8000cde:	409a      	lsls	r2, r3
           ((SubPriority     & (uint32_t)((1UL << (SubPriorityBits    )) - 1UL)))
 8000ce0:	f04f 31ff 	mov.w	r1, #4294967295
 8000ce4:	697b      	ldr	r3, [r7, #20]
 8000ce6:	fa01 f303 	lsl.w	r3, r1, r3
 8000cea:	43d9      	mvns	r1, r3
 8000cec:	687b      	ldr	r3, [r7, #4]
 8000cee:	400b      	ands	r3, r1
           ((PreemptPriority & (uint32_t)((1UL << (PreemptPriorityBits)) - 1UL)) << SubPriorityBits) |
 8000cf0:	4313      	orrs	r3, r2
         );
}
 8000cf2:	4618      	mov	r0, r3
 8000cf4:	3724      	adds	r7, #36	@ 0x24
 8000cf6:	46bd      	mov	sp, r7
 8000cf8:	f85d 7b04 	ldr.w	r7, [sp], #4
 8000cfc:	4770      	bx	lr
	...

08000d00 <SysTick_Config>:
  \note    When the variable <b>__Vendor_SysTickConfig</b> is set to 1, then the
           function <b>SysTick_Config</b> is not included. In this case, the file <b><i>device</i>.h</b>
           must contain a vendor-specific implementation of this function.
 */
__STATIC_INLINE uint32_t SysTick_Config(uint32_t ticks)
{
 8000d00:	b580      	push	{r7, lr}
 8000d02:	b082      	sub	sp, #8
 8000d04:	af00      	add	r7, sp, #0
 8000d06:	6078      	str	r0, [r7, #4]
  if ((ticks - 1UL) > SysTick_LOAD_RELOAD_Msk)
 8000d08:	687b      	ldr	r3, [r7, #4]
 8000d0a:	3b01      	subs	r3, #1
 8000d0c:	f1b3 7f80 	cmp.w	r3, #16777216	@ 0x1000000
 8000d10:	d301      	bcc.n	8000d16 <SysTick_Config+0x16>
  {
    return (1UL);                                                   /* Reload value impossible */
 8000d12:	2301      	movs	r3, #1
 8000d14:	e00f      	b.n	8000d36 <SysTick_Config+0x36>
  }

  SysTick->LOAD  = (uint32_t)(ticks - 1UL);                         /* set reload register */
 8000d16:	4a0a      	ldr	r2, [pc, #40]	@ (8000d40 <SysTick_Config+0x40>)
 8000d18:	687b      	ldr	r3, [r7, #4]
 8000d1a:	3b01      	subs	r3, #1
 8000d1c:	6053      	str	r3, [r2, #4]
  NVIC_SetPriority (SysTick_IRQn, (1UL << __NVIC_PRIO_BITS) - 1UL); /* set Priority for Systick Interrupt */
 8000d1e:	210f      	movs	r1, #15
 8000d20:	f04f 30ff 	mov.w	r0, #4294967295
 8000d24:	f7ff ff8e 	bl	8000c44 <__NVIC_SetPriority>
  SysTick->VAL   = 0UL;                                             /* Load the SysTick Counter Value */
 8000d28:	4b05      	ldr	r3, [pc, #20]	@ (8000d40 <SysTick_Config+0x40>)
 8000d2a:	2200      	movs	r2, #0
 8000d2c:	609a      	str	r2, [r3, #8]
  SysTick->CTRL  = SysTick_CTRL_CLKSOURCE_Msk |
 8000d2e:	4b04      	ldr	r3, [pc, #16]	@ (8000d40 <SysTick_Config+0x40>)
 8000d30:	2207      	movs	r2, #7
 8000d32:	601a      	str	r2, [r3, #0]
                   SysTick_CTRL_TICKINT_Msk   |
                   SysTick_CTRL_ENABLE_Msk;                         /* Enable SysTick IRQ and SysTick Timer */
  return (0UL);                                                     /* Function successful */
 8000d34:	2300      	movs	r3, #0
}
 8000d36:	4618      	mov	r0, r3
 8000d38:	3708      	adds	r7, #8
 8000d3a:	46bd      	mov	sp, r7
 8000d3c:	bd80      	pop	{r7, pc}
 8000d3e:	bf00      	nop
 8000d40:	e000e010 	.word	0xe000e010

08000d44 <HAL_NVIC_SetPriorityGrouping>:
  * @note   When the NVIC_PriorityGroup_0 is selected, IRQ pre-emption is no more possible.
  *         The pending IRQ priority will be managed only by the subpriority.
  * @retval None
  */
void HAL_NVIC_SetPriorityGrouping(uint32_t PriorityGroup)
{
 8000d44:	b580      	push	{r7, lr}
 8000d46:	b082      	sub	sp, #8
 8000d48:	af00      	add	r7, sp, #0
 8000d4a:	6078      	str	r0, [r7, #4]
  /* Check the parameters */
  assert_param(IS_NVIC_PRIORITY_GROUP(PriorityGroup));

  /* Set the PRIGROUP[10:8] bits according to the PriorityGroup parameter value */
  NVIC_SetPriorityGrouping(PriorityGroup);
 8000d4c:	6878      	ldr	r0, [r7, #4]
 8000d4e:	f7ff ff47 	bl	8000be0 <__NVIC_SetPriorityGrouping>
}
 8000d52:	bf00      	nop
 8000d54:	3708      	adds	r7, #8
 8000d56:	46bd      	mov	sp, r7
 8000d58:	bd80      	pop	{r7, pc}

08000d5a <HAL_NVIC_SetPriority>:
  *         This parameter can be a value between 0 and 15
  *         A lower priority value indicates a higher priority.
  * @retval None
  */
void HAL_NVIC_SetPriority(IRQn_Type IRQn, uint32_t PreemptPriority, uint32_t SubPriority)
{
 8000d5a:	b580      	push	{r7, lr}
 8000d5c:	b086      	sub	sp, #24
 8000d5e:	af00      	add	r7, sp, #0
 8000d60:	4603      	mov	r3, r0
 8000d62:	60b9      	str	r1, [r7, #8]
 8000d64:	607a      	str	r2, [r7, #4]
 8000d66:	73fb      	strb	r3, [r7, #15]
  uint32_t prioritygroup = 0x00;
 8000d68:	2300      	movs	r3, #0
 8000d6a:	617b      	str	r3, [r7, #20]

  /* Check the parameters */
  assert_param(IS_NVIC_SUB_PRIORITY(SubPriority));
  assert_param(IS_NVIC_PREEMPTION_PRIORITY(PreemptPriority));

  prioritygroup = NVIC_GetPriorityGrouping();
 8000d6c:	f7ff ff5c 	bl	8000c28 <__NVIC_GetPriorityGrouping>
 8000d70:	6178      	str	r0, [r7, #20]

  NVIC_SetPriority(IRQn, NVIC_EncodePriority(prioritygroup, PreemptPriority, SubPriority));
 8000d72:	687a      	ldr	r2, [r7, #4]
 8000d74:	68b9      	ldr	r1, [r7, #8]
 8000d76:	6978      	ldr	r0, [r7, #20]
 8000d78:	f7ff ff8e 	bl	8000c98 <NVIC_EncodePriority>
 8000d7c:	4602      	mov	r2, r0
 8000d7e:	f997 300f 	ldrsb.w	r3, [r7, #15]
 8000d82:	4611      	mov	r1, r2
 8000d84:	4618      	mov	r0, r3
 8000d86:	f7ff ff5d 	bl	8000c44 <__NVIC_SetPriority>
}
 8000d8a:	bf00      	nop
 8000d8c:	3718      	adds	r7, #24
 8000d8e:	46bd      	mov	sp, r7
 8000d90:	bd80      	pop	{r7, pc}

08000d92 <HAL_SYSTICK_Config>:
  * @param  TicksNumb: Specifies the ticks Number of ticks between two interrupts.
  * @retval status:  - 0  Function succeeded.
  *                  - 1  Function failed.
  */
uint32_t HAL_SYSTICK_Config(uint32_t TicksNumb)
{
 8000d92:	b580      	push	{r7, lr}
 8000d94:	b082      	sub	sp, #8
 8000d96:	af00      	add	r7, sp, #0
 8000d98:	6078      	str	r0, [r7, #4]
   return SysTick_Config(TicksNumb);
 8000d9a:	6878      	ldr	r0, [r7, #4]
 8000d9c:	f7ff ffb0 	bl	8000d00 <SysTick_Config>
 8000da0:	4603      	mov	r3, r0
}
 8000da2:	4618      	mov	r0, r3
 8000da4:	3708      	adds	r7, #8
 8000da6:	46bd      	mov	sp, r7
 8000da8:	bd80      	pop	{r7, pc}
	...

08000dac <HAL_GPIO_Init>:
  * @param  GPIO_Init pointer to a GPIO_InitTypeDef structure that contains
  *         the configuration information for the specified GPIO peripheral.
  * @retval None
  */
void HAL_GPIO_Init(GPIO_TypeDef  *GPIOx, GPIO_InitTypeDef *GPIO_Init)
{
 8000dac:	b480      	push	{r7}
 8000dae:	b087      	sub	sp, #28
 8000db0:	af00      	add	r7, sp, #0
 8000db2:	6078      	str	r0, [r7, #4]
 8000db4:	6039      	str	r1, [r7, #0]
  uint32_t position = 0x00u;
 8000db6:	2300      	movs	r3, #0
 8000db8:	617b      	str	r3, [r7, #20]
  assert_param(IS_GPIO_ALL_INSTANCE(GPIOx));
  assert_param(IS_GPIO_PIN(GPIO_Init->Pin));
  assert_param(IS_GPIO_MODE(GPIO_Init->Mode));

  /* Configure the port pins */
  while (((GPIO_Init->Pin) >> position) != 0x00u)
 8000dba:	e17f      	b.n	80010bc <HAL_GPIO_Init+0x310>
  {
    /* Get current io position */
    iocurrent = (GPIO_Init->Pin) & (1uL << position);
 8000dbc:	683b      	ldr	r3, [r7, #0]
 8000dbe:	681a      	ldr	r2, [r3, #0]
 8000dc0:	2101      	movs	r1, #1
 8000dc2:	697b      	ldr	r3, [r7, #20]
 8000dc4:	fa01 f303 	lsl.w	r3, r1, r3
 8000dc8:	4013      	ands	r3, r2
 8000dca:	60fb      	str	r3, [r7, #12]

    if (iocurrent != 0x00u)
 8000dcc:	68fb      	ldr	r3, [r7, #12]
 8000dce:	2b00      	cmp	r3, #0
 8000dd0:	f000 8171 	beq.w	80010b6 <HAL_GPIO_Init+0x30a>
    {
      /*--------------------- GPIO Mode Configuration ------------------------*/
      /* In case of Output or Alternate function mode selection */
      if (((GPIO_Init->Mode & GPIO_MODE) == MODE_OUTPUT) || ((GPIO_Init->Mode & GPIO_MODE) == MODE_AF))
 8000dd4:	683b      	ldr	r3, [r7, #0]
 8000dd6:	685b      	ldr	r3, [r3, #4]
 8000dd8:	f003 0303 	and.w	r3, r3, #3
 8000ddc:	2b01      	cmp	r3, #1
 8000dde:	d005      	beq.n	8000dec <HAL_GPIO_Init+0x40>
 8000de0:	683b      	ldr	r3, [r7, #0]
 8000de2:	685b      	ldr	r3, [r3, #4]
 8000de4:	f003 0303 	and.w	r3, r3, #3
 8000de8:	2b02      	cmp	r3, #2
 8000dea:	d130      	bne.n	8000e4e <HAL_GPIO_Init+0xa2>
      {
        /* Check the Speed parameter */
        assert_param(IS_GPIO_SPEED(GPIO_Init->Speed));

        /* Configure the IO Speed */
        temp = GPIOx->OSPEEDR;
 8000dec:	687b      	ldr	r3, [r7, #4]
 8000dee:	689b      	ldr	r3, [r3, #8]
 8000df0:	613b      	str	r3, [r7, #16]
        temp &= ~(GPIO_OSPEEDR_OSPEED0 << (position * 2u));
 8000df2:	697b      	ldr	r3, [r7, #20]
 8000df4:	005b      	lsls	r3, r3, #1
 8000df6:	2203      	movs	r2, #3
 8000df8:	fa02 f303 	lsl.w	r3, r2, r3
 8000dfc:	43db      	mvns	r3, r3
 8000dfe:	693a      	ldr	r2, [r7, #16]
 8000e00:	4013      	ands	r3, r2
 8000e02:	613b      	str	r3, [r7, #16]
        temp |= (GPIO_Init->Speed << (position * 2u));
 8000e04:	683b      	ldr	r3, [r7, #0]
 8000e06:	68da      	ldr	r2, [r3, #12]
 8000e08:	697b      	ldr	r3, [r7, #20]
 8000e0a:	005b      	lsls	r3, r3, #1
 8000e0c:	fa02 f303 	lsl.w	r3, r2, r3
 8000e10:	693a      	ldr	r2, [r7, #16]
 8000e12:	4313      	orrs	r3, r2
 8000e14:	613b      	str	r3, [r7, #16]
        GPIOx->OSPEEDR = temp;
 8000e16:	687b      	ldr	r3, [r7, #4]
 8000e18:	693a      	ldr	r2, [r7, #16]
 8000e1a:	609a      	str	r2, [r3, #8]

        /* Configure the IO Output Type */
        temp = GPIOx->OTYPER;
 8000e1c:	687b      	ldr	r3, [r7, #4]
 8000e1e:	685b      	ldr	r3, [r3, #4]
 8000e20:	613b      	str	r3, [r7, #16]
        temp &= ~(GPIO_OTYPER_OT0 << position) ;
 8000e22:	2201      	movs	r2, #1
 8000e24:	697b      	ldr	r3, [r7, #20]
 8000e26:	fa02 f303 	lsl.w	r3, r2, r3
 8000e2a:	43db      	mvns	r3, r3
 8000e2c:	693a      	ldr	r2, [r7, #16]
 8000e2e:	4013      	ands	r3, r2
 8000e30:	613b      	str	r3, [r7, #16]
        temp |= (((GPIO_Init->Mode & OUTPUT_TYPE) >> OUTPUT_TYPE_Pos) << position);
 8000e32:	683b      	ldr	r3, [r7, #0]
 8000e34:	685b      	ldr	r3, [r3, #4]
 8000e36:	091b      	lsrs	r3, r3, #4
 8000e38:	f003 0201 	and.w	r2, r3, #1
 8000e3c:	697b      	ldr	r3, [r7, #20]
 8000e3e:	fa02 f303 	lsl.w	r3, r2, r3
 8000e42:	693a      	ldr	r2, [r7, #16]
 8000e44:	4313      	orrs	r3, r2
 8000e46:	613b      	str	r3, [r7, #16]
        GPIOx->OTYPER = temp;
 8000e48:	687b      	ldr	r3, [r7, #4]
 8000e4a:	693a      	ldr	r2, [r7, #16]
 8000e4c:	605a      	str	r2, [r3, #4]
      }

#if defined(STM32L471xx) || defined(STM32L475xx) || defined(STM32L476xx) || defined(STM32L485xx) || defined(STM32L486xx)

      /* In case of Analog mode, check if ADC control mode is selected */
      if((GPIO_Init->Mode & GPIO_MODE_ANALOG) == GPIO_MODE_ANALOG)
 8000e4e:	683b      	ldr	r3, [r7, #0]
 8000e50:	685b      	ldr	r3, [r3, #4]
 8000e52:	f003 0303 	and.w	r3, r3, #3
 8000e56:	2b03      	cmp	r3, #3
 8000e58:	d118      	bne.n	8000e8c <HAL_GPIO_Init+0xe0>
      {
        /* Configure the IO Output Type */
        temp = GPIOx->ASCR;
 8000e5a:	687b      	ldr	r3, [r7, #4]
 8000e5c:	6adb      	ldr	r3, [r3, #44]	@ 0x2c
 8000e5e:	613b      	str	r3, [r7, #16]
        temp &= ~(GPIO_ASCR_ASC0 << position) ;
 8000e60:	2201      	movs	r2, #1
 8000e62:	697b      	ldr	r3, [r7, #20]
 8000e64:	fa02 f303 	lsl.w	r3, r2, r3
 8000e68:	43db      	mvns	r3, r3
 8000e6a:	693a      	ldr	r2, [r7, #16]
 8000e6c:	4013      	ands	r3, r2
 8000e6e:	613b      	str	r3, [r7, #16]
        temp |= (((GPIO_Init->Mode & GPIO_MODE_ANALOG_ADC_CONTROL) >> 3) << position);
 8000e70:	683b      	ldr	r3, [r7, #0]
 8000e72:	685b      	ldr	r3, [r3, #4]
 8000e74:	08db      	lsrs	r3, r3, #3
 8000e76:	f003 0201 	and.w	r2, r3, #1
 8000e7a:	697b      	ldr	r3, [r7, #20]
 8000e7c:	fa02 f303 	lsl.w	r3, r2, r3
 8000e80:	693a      	ldr	r2, [r7, #16]
 8000e82:	4313      	orrs	r3, r2
 8000e84:	613b      	str	r3, [r7, #16]
        GPIOx->ASCR = temp;
 8000e86:	687b      	ldr	r3, [r7, #4]
 8000e88:	693a      	ldr	r2, [r7, #16]
 8000e8a:	62da      	str	r2, [r3, #44]	@ 0x2c
      }

#endif /* STM32L471xx || STM32L475xx || STM32L476xx || STM32L485xx || STM32L486xx */

      /* Activate the Pull-up or Pull down resistor for the current IO */
      if ((GPIO_Init->Mode & GPIO_MODE) != MODE_ANALOG)
 8000e8c:	683b      	ldr	r3, [r7, #0]
 8000e8e:	685b      	ldr	r3, [r3, #4]
 8000e90:	f003 0303 	and.w	r3, r3, #3
 8000e94:	2b03      	cmp	r3, #3
 8000e96:	d017      	beq.n	8000ec8 <HAL_GPIO_Init+0x11c>
      {
        /* Check the Pull parameter */
        assert_param(IS_GPIO_PULL(GPIO_Init->Pull));

        temp = GPIOx->PUPDR;
 8000e98:	687b      	ldr	r3, [r7, #4]
 8000e9a:	68db      	ldr	r3, [r3, #12]
 8000e9c:	613b      	str	r3, [r7, #16]
        temp &= ~(GPIO_PUPDR_PUPD0 << (position * 2U));
 8000e9e:	697b      	ldr	r3, [r7, #20]
 8000ea0:	005b      	lsls	r3, r3, #1
 8000ea2:	2203      	movs	r2, #3
 8000ea4:	fa02 f303 	lsl.w	r3, r2, r3
 8000ea8:	43db      	mvns	r3, r3
 8000eaa:	693a      	ldr	r2, [r7, #16]
 8000eac:	4013      	ands	r3, r2
 8000eae:	613b      	str	r3, [r7, #16]
        temp |= ((GPIO_Init->Pull) << (position * 2U));
 8000eb0:	683b      	ldr	r3, [r7, #0]
 8000eb2:	689a      	ldr	r2, [r3, #8]
 8000eb4:	697b      	ldr	r3, [r7, #20]
 8000eb6:	005b      	lsls	r3, r3, #1
 8000eb8:	fa02 f303 	lsl.w	r3, r2, r3
 8000ebc:	693a      	ldr	r2, [r7, #16]
 8000ebe:	4313      	orrs	r3, r2
 8000ec0:	613b      	str	r3, [r7, #16]
        GPIOx->PUPDR = temp;
 8000ec2:	687b      	ldr	r3, [r7, #4]
 8000ec4:	693a      	ldr	r2, [r7, #16]
 8000ec6:	60da      	str	r2, [r3, #12]
      }

      /* In case of Alternate function mode selection */
      if ((GPIO_Init->Mode & GPIO_MODE) == MODE_AF)
 8000ec8:	683b      	ldr	r3, [r7, #0]
 8000eca:	685b      	ldr	r3, [r3, #4]
 8000ecc:	f003 0303 	and.w	r3, r3, #3
 8000ed0:	2b02      	cmp	r3, #2
 8000ed2:	d123      	bne.n	8000f1c <HAL_GPIO_Init+0x170>
        /* Check the Alternate function parameters */
        assert_param(IS_GPIO_AF_INSTANCE(GPIOx));
        assert_param(IS_GPIO_AF(GPIO_Init->Alternate));

        /* Configure Alternate function mapped with the current IO */
        temp = GPIOx->AFR[position >> 3u];
 8000ed4:	697b      	ldr	r3, [r7, #20]
 8000ed6:	08da      	lsrs	r2, r3, #3
 8000ed8:	687b      	ldr	r3, [r7, #4]
 8000eda:	3208      	adds	r2, #8
 8000edc:	f853 3022 	ldr.w	r3, [r3, r2, lsl #2]
 8000ee0:	613b      	str	r3, [r7, #16]
        temp &= ~(0xFul << ((position & 0x07u) * 4u));
 8000ee2:	697b      	ldr	r3, [r7, #20]
 8000ee4:	f003 0307 	and.w	r3, r3, #7
 8000ee8:	009b      	lsls	r3, r3, #2
 8000eea:	220f      	movs	r2, #15
 8000eec:	fa02 f303 	lsl.w	r3, r2, r3
 8000ef0:	43db      	mvns	r3, r3
 8000ef2:	693a      	ldr	r2, [r7, #16]
 8000ef4:	4013      	ands	r3, r2
 8000ef6:	613b      	str	r3, [r7, #16]
        temp |= ((GPIO_Init->Alternate) << ((position & 0x07u) * 4u));
 8000ef8:	683b      	ldr	r3, [r7, #0]
 8000efa:	691a      	ldr	r2, [r3, #16]
 8000efc:	697b      	ldr	r3, [r7, #20]
 8000efe:	f003 0307 	and.w	r3, r3, #7
 8000f02:	009b      	lsls	r3, r3, #2
 8000f04:	fa02 f303 	lsl.w	r3, r2, r3
 8000f08:	693a      	ldr	r2, [r7, #16]
 8000f0a:	4313      	orrs	r3, r2
 8000f0c:	613b      	str	r3, [r7, #16]
        GPIOx->AFR[position >> 3u] = temp;
 8000f0e:	697b      	ldr	r3, [r7, #20]
 8000f10:	08da      	lsrs	r2, r3, #3
 8000f12:	687b      	ldr	r3, [r7, #4]
 8000f14:	3208      	adds	r2, #8
 8000f16:	6939      	ldr	r1, [r7, #16]
 8000f18:	f843 1022 	str.w	r1, [r3, r2, lsl #2]
      }

      /* Configure IO Direction mode (Input, Output, Alternate or Analog) */
      temp = GPIOx->MODER;
 8000f1c:	687b      	ldr	r3, [r7, #4]
 8000f1e:	681b      	ldr	r3, [r3, #0]
 8000f20:	613b      	str	r3, [r7, #16]
      temp &= ~(GPIO_MODER_MODE0 << (position * 2u));
 8000f22:	697b      	ldr	r3, [r7, #20]
 8000f24:	005b      	lsls	r3, r3, #1
 8000f26:	2203      	movs	r2, #3
 8000f28:	fa02 f303 	lsl.w	r3, r2, r3
 8000f2c:	43db      	mvns	r3, r3
 8000f2e:	693a      	ldr	r2, [r7, #16]
 8000f30:	4013      	ands	r3, r2
 8000f32:	613b      	str	r3, [r7, #16]
      temp |= ((GPIO_Init->Mode & GPIO_MODE) << (position * 2u));
 8000f34:	683b      	ldr	r3, [r7, #0]
 8000f36:	685b      	ldr	r3, [r3, #4]
 8000f38:	f003 0203 	and.w	r2, r3, #3
 8000f3c:	697b      	ldr	r3, [r7, #20]
 8000f3e:	005b      	lsls	r3, r3, #1
 8000f40:	fa02 f303 	lsl.w	r3, r2, r3
 8000f44:	693a      	ldr	r2, [r7, #16]
 8000f46:	4313      	orrs	r3, r2
 8000f48:	613b      	str	r3, [r7, #16]
      GPIOx->MODER = temp;
 8000f4a:	687b      	ldr	r3, [r7, #4]
 8000f4c:	693a      	ldr	r2, [r7, #16]
 8000f4e:	601a      	str	r2, [r3, #0]

      /*--------------------- EXTI Mode Configuration ------------------------*/
      /* Configure the External Interrupt or event for the current IO */
      if ((GPIO_Init->Mode & EXTI_MODE) != 0x00u)
 8000f50:	683b      	ldr	r3, [r7, #0]
 8000f52:	685b      	ldr	r3, [r3, #4]
 8000f54:	f403 3340 	and.w	r3, r3, #196608	@ 0x30000
 8000f58:	2b00      	cmp	r3, #0
 8000f5a:	f000 80ac 	beq.w	80010b6 <HAL_GPIO_Init+0x30a>
      {
        /* Enable SYSCFG Clock */
        __HAL_RCC_SYSCFG_CLK_ENABLE();
 8000f5e:	4b5f      	ldr	r3, [pc, #380]	@ (80010dc <HAL_GPIO_Init+0x330>)
 8000f60:	6e1b      	ldr	r3, [r3, #96]	@ 0x60
 8000f62:	4a5e      	ldr	r2, [pc, #376]	@ (80010dc <HAL_GPIO_Init+0x330>)
 8000f64:	f043 0301 	orr.w	r3, r3, #1
 8000f68:	6613      	str	r3, [r2, #96]	@ 0x60
 8000f6a:	4b5c      	ldr	r3, [pc, #368]	@ (80010dc <HAL_GPIO_Init+0x330>)
 8000f6c:	6e1b      	ldr	r3, [r3, #96]	@ 0x60
 8000f6e:	f003 0301 	and.w	r3, r3, #1
 8000f72:	60bb      	str	r3, [r7, #8]
 8000f74:	68bb      	ldr	r3, [r7, #8]

        temp = SYSCFG->EXTICR[position >> 2u];
 8000f76:	4a5a      	ldr	r2, [pc, #360]	@ (80010e0 <HAL_GPIO_Init+0x334>)
 8000f78:	697b      	ldr	r3, [r7, #20]
 8000f7a:	089b      	lsrs	r3, r3, #2
 8000f7c:	3302      	adds	r3, #2
 8000f7e:	f852 3023 	ldr.w	r3, [r2, r3, lsl #2]
 8000f82:	613b      	str	r3, [r7, #16]
        temp &= ~(0x0FuL << (4u * (position & 0x03u)));
 8000f84:	697b      	ldr	r3, [r7, #20]
 8000f86:	f003 0303 	and.w	r3, r3, #3
 8000f8a:	009b      	lsls	r3, r3, #2
 8000f8c:	220f      	movs	r2, #15
 8000f8e:	fa02 f303 	lsl.w	r3, r2, r3
 8000f92:	43db      	mvns	r3, r3
 8000f94:	693a      	ldr	r2, [r7, #16]
 8000f96:	4013      	ands	r3, r2
 8000f98:	613b      	str	r3, [r7, #16]
        temp |= (GPIO_GET_INDEX(GPIOx) << (4u * (position & 0x03u)));
 8000f9a:	687b      	ldr	r3, [r7, #4]
 8000f9c:	f1b3 4f90 	cmp.w	r3, #1207959552	@ 0x48000000
 8000fa0:	d025      	beq.n	8000fee <HAL_GPIO_Init+0x242>
 8000fa2:	687b      	ldr	r3, [r7, #4]
 8000fa4:	4a4f      	ldr	r2, [pc, #316]	@ (80010e4 <HAL_GPIO_Init+0x338>)
 8000fa6:	4293      	cmp	r3, r2
 8000fa8:	d01f      	beq.n	8000fea <HAL_GPIO_Init+0x23e>
 8000faa:	687b      	ldr	r3, [r7, #4]
 8000fac:	4a4e      	ldr	r2, [pc, #312]	@ (80010e8 <HAL_GPIO_Init+0x33c>)
 8000fae:	4293      	cmp	r3, r2
 8000fb0:	d019      	beq.n	8000fe6 <HAL_GPIO_Init+0x23a>
 8000fb2:	687b      	ldr	r3, [r7, #4]
 8000fb4:	4a4d      	ldr	r2, [pc, #308]	@ (80010ec <HAL_GPIO_Init+0x340>)
 8000fb6:	4293      	cmp	r3, r2
 8000fb8:	d013      	beq.n	8000fe2 <HAL_GPIO_Init+0x236>
 8000fba:	687b      	ldr	r3, [r7, #4]
 8000fbc:	4a4c      	ldr	r2, [pc, #304]	@ (80010f0 <HAL_GPIO_Init+0x344>)
 8000fbe:	4293      	cmp	r3, r2
 8000fc0:	d00d      	beq.n	8000fde <HAL_GPIO_Init+0x232>
 8000fc2:	687b      	ldr	r3, [r7, #4]
 8000fc4:	4a4b      	ldr	r2, [pc, #300]	@ (80010f4 <HAL_GPIO_Init+0x348>)
 8000fc6:	4293      	cmp	r3, r2
 8000fc8:	d007      	beq.n	8000fda <HAL_GPIO_Init+0x22e>
 8000fca:	687b      	ldr	r3, [r7, #4]
 8000fcc:	4a4a      	ldr	r2, [pc, #296]	@ (80010f8 <HAL_GPIO_Init+0x34c>)
 8000fce:	4293      	cmp	r3, r2
 8000fd0:	d101      	bne.n	8000fd6 <HAL_GPIO_Init+0x22a>
 8000fd2:	2306      	movs	r3, #6
 8000fd4:	e00c      	b.n	8000ff0 <HAL_GPIO_Init+0x244>
 8000fd6:	2307      	movs	r3, #7
 8000fd8:	e00a      	b.n	8000ff0 <HAL_GPIO_Init+0x244>
 8000fda:	2305      	movs	r3, #5
 8000fdc:	e008      	b.n	8000ff0 <HAL_GPIO_Init+0x244>
 8000fde:	2304      	movs	r3, #4
 8000fe0:	e006      	b.n	8000ff0 <HAL_GPIO_Init+0x244>
 8000fe2:	2303      	movs	r3, #3
 8000fe4:	e004      	b.n	8000ff0 <HAL_GPIO_Init+0x244>
 8000fe6:	2302      	movs	r3, #2
 8000fe8:	e002      	b.n	8000ff0 <HAL_GPIO_Init+0x244>
 8000fea:	2301      	movs	r3, #1
 8000fec:	e000      	b.n	8000ff0 <HAL_GPIO_Init+0x244>
 8000fee:	2300      	movs	r3, #0
 8000ff0:	697a      	ldr	r2, [r7, #20]
 8000ff2:	f002 0203 	and.w	r2, r2, #3
 8000ff6:	0092      	lsls	r2, r2, #2
 8000ff8:	4093      	lsls	r3, r2
 8000ffa:	693a      	ldr	r2, [r7, #16]
 8000ffc:	4313      	orrs	r3, r2
 8000ffe:	613b      	str	r3, [r7, #16]
        SYSCFG->EXTICR[position >> 2u] = temp;
 8001000:	4937      	ldr	r1, [pc, #220]	@ (80010e0 <HAL_GPIO_Init+0x334>)
 8001002:	697b      	ldr	r3, [r7, #20]
 8001004:	089b      	lsrs	r3, r3, #2
 8001006:	3302      	adds	r3, #2
 8001008:	693a      	ldr	r2, [r7, #16]
 800100a:	f841 2023 	str.w	r2, [r1, r3, lsl #2]

        /* Clear Rising Falling edge configuration */
        temp = EXTI->RTSR1;
 800100e:	4b3b      	ldr	r3, [pc, #236]	@ (80010fc <HAL_GPIO_Init+0x350>)
 8001010:	689b      	ldr	r3, [r3, #8]
 8001012:	613b      	str	r3, [r7, #16]
        temp &= ~(iocurrent);
 8001014:	68fb      	ldr	r3, [r7, #12]
 8001016:	43db      	mvns	r3, r3
 8001018:	693a      	ldr	r2, [r7, #16]
 800101a:	4013      	ands	r3, r2
 800101c:	613b      	str	r3, [r7, #16]
        if ((GPIO_Init->Mode & TRIGGER_RISING) != 0x00u)
 800101e:	683b      	ldr	r3, [r7, #0]
 8001020:	685b      	ldr	r3, [r3, #4]
 8001022:	f403 1380 	and.w	r3, r3, #1048576	@ 0x100000
 8001026:	2b00      	cmp	r3, #0
 8001028:	d003      	beq.n	8001032 <HAL_GPIO_Init+0x286>
        {
          temp |= iocurrent;
 800102a:	693a      	ldr	r2, [r7, #16]
 800102c:	68fb      	ldr	r3, [r7, #12]
 800102e:	4313      	orrs	r3, r2
 8001030:	613b      	str	r3, [r7, #16]
        }
        EXTI->RTSR1 = temp;
 8001032:	4a32      	ldr	r2, [pc, #200]	@ (80010fc <HAL_GPIO_Init+0x350>)
 8001034:	693b      	ldr	r3, [r7, #16]
 8001036:	6093      	str	r3, [r2, #8]

        temp = EXTI->FTSR1;
 8001038:	4b30      	ldr	r3, [pc, #192]	@ (80010fc <HAL_GPIO_Init+0x350>)
 800103a:	68db      	ldr	r3, [r3, #12]
 800103c:	613b      	str	r3, [r7, #16]
        temp &= ~(iocurrent);
 800103e:	68fb      	ldr	r3, [r7, #12]
 8001040:	43db      	mvns	r3, r3
 8001042:	693a      	ldr	r2, [r7, #16]
 8001044:	4013      	ands	r3, r2
 8001046:	613b      	str	r3, [r7, #16]
        if ((GPIO_Init->Mode & TRIGGER_FALLING) != 0x00u)
 8001048:	683b      	ldr	r3, [r7, #0]
 800104a:	685b      	ldr	r3, [r3, #4]
 800104c:	f403 1300 	and.w	r3, r3, #2097152	@ 0x200000
 8001050:	2b00      	cmp	r3, #0
 8001052:	d003      	beq.n	800105c <HAL_GPIO_Init+0x2b0>
        {
          temp |= iocurrent;
 8001054:	693a      	ldr	r2, [r7, #16]
 8001056:	68fb      	ldr	r3, [r7, #12]
 8001058:	4313      	orrs	r3, r2
 800105a:	613b      	str	r3, [r7, #16]
        }
        EXTI->FTSR1 = temp;
 800105c:	4a27      	ldr	r2, [pc, #156]	@ (80010fc <HAL_GPIO_Init+0x350>)
 800105e:	693b      	ldr	r3, [r7, #16]
 8001060:	60d3      	str	r3, [r2, #12]

        /* Clear EXTI line configuration */
        temp = EXTI->EMR1;
 8001062:	4b26      	ldr	r3, [pc, #152]	@ (80010fc <HAL_GPIO_Init+0x350>)
 8001064:	685b      	ldr	r3, [r3, #4]
 8001066:	613b      	str	r3, [r7, #16]
        temp &= ~(iocurrent);
 8001068:	68fb      	ldr	r3, [r7, #12]
 800106a:	43db      	mvns	r3, r3
 800106c:	693a      	ldr	r2, [r7, #16]
 800106e:	4013      	ands	r3, r2
 8001070:	613b      	str	r3, [r7, #16]
        if ((GPIO_Init->Mode & EXTI_EVT) != 0x00u)
 8001072:	683b      	ldr	r3, [r7, #0]
 8001074:	685b      	ldr	r3, [r3, #4]
 8001076:	f403 3300 	and.w	r3, r3, #131072	@ 0x20000
 800107a:	2b00      	cmp	r3, #0
 800107c:	d003      	beq.n	8001086 <HAL_GPIO_Init+0x2da>
        {
          temp |= iocurrent;
 800107e:	693a      	ldr	r2, [r7, #16]
 8001080:	68fb      	ldr	r3, [r7, #12]
 8001082:	4313      	orrs	r3, r2
 8001084:	613b      	str	r3, [r7, #16]
        }
        EXTI->EMR1 = temp;
 8001086:	4a1d      	ldr	r2, [pc, #116]	@ (80010fc <HAL_GPIO_Init+0x350>)
 8001088:	693b      	ldr	r3, [r7, #16]
 800108a:	6053      	str	r3, [r2, #4]

        temp = EXTI->IMR1;
 800108c:	4b1b      	ldr	r3, [pc, #108]	@ (80010fc <HAL_GPIO_Init+0x350>)
 800108e:	681b      	ldr	r3, [r3, #0]
 8001090:	613b      	str	r3, [r7, #16]
        temp &= ~(iocurrent);
 8001092:	68fb      	ldr	r3, [r7, #12]
 8001094:	43db      	mvns	r3, r3
 8001096:	693a      	ldr	r2, [r7, #16]
 8001098:	4013      	ands	r3, r2
 800109a:	613b      	str	r3, [r7, #16]
        if ((GPIO_Init->Mode & EXTI_IT) != 0x00u)
 800109c:	683b      	ldr	r3, [r7, #0]
 800109e:	685b      	ldr	r3, [r3, #4]
 80010a0:	f403 3380 	and.w	r3, r3, #65536	@ 0x10000
 80010a4:	2b00      	cmp	r3, #0
 80010a6:	d003      	beq.n	80010b0 <HAL_GPIO_Init+0x304>
        {
          temp |= iocurrent;
 80010a8:	693a      	ldr	r2, [r7, #16]
 80010aa:	68fb      	ldr	r3, [r7, #12]
 80010ac:	4313      	orrs	r3, r2
 80010ae:	613b      	str	r3, [r7, #16]
        }
        EXTI->IMR1 = temp;
 80010b0:	4a12      	ldr	r2, [pc, #72]	@ (80010fc <HAL_GPIO_Init+0x350>)
 80010b2:	693b      	ldr	r3, [r7, #16]
 80010b4:	6013      	str	r3, [r2, #0]
      }
    }

    position++;
 80010b6:	697b      	ldr	r3, [r7, #20]
 80010b8:	3301      	adds	r3, #1
 80010ba:	617b      	str	r3, [r7, #20]
  while (((GPIO_Init->Pin) >> position) != 0x00u)
 80010bc:	683b      	ldr	r3, [r7, #0]
 80010be:	681a      	ldr	r2, [r3, #0]
 80010c0:	697b      	ldr	r3, [r7, #20]
 80010c2:	fa22 f303 	lsr.w	r3, r2, r3
 80010c6:	2b00      	cmp	r3, #0
 80010c8:	f47f ae78 	bne.w	8000dbc <HAL_GPIO_Init+0x10>
  }
}
 80010cc:	bf00      	nop
 80010ce:	bf00      	nop
 80010d0:	371c      	adds	r7, #28
 80010d2:	46bd      	mov	sp, r7
 80010d4:	f85d 7b04 	ldr.w	r7, [sp], #4
 80010d8:	4770      	bx	lr
 80010da:	bf00      	nop
 80010dc:	40021000 	.word	0x40021000
 80010e0:	40010000 	.word	0x40010000
 80010e4:	48000400 	.word	0x48000400
 80010e8:	48000800 	.word	0x48000800
 80010ec:	48000c00 	.word	0x48000c00
 80010f0:	48001000 	.word	0x48001000
 80010f4:	48001400 	.word	0x48001400
 80010f8:	48001800 	.word	0x48001800
 80010fc:	40010400 	.word	0x40010400

08001100 <HAL_GPIO_WritePin>:
  *            @arg GPIO_PIN_RESET: to clear the port pin
  *            @arg GPIO_PIN_SET: to set the port pin
  * @retval None
  */
void HAL_GPIO_WritePin(GPIO_TypeDef* GPIOx, uint16_t GPIO_Pin, GPIO_PinState PinState)
{
 8001100:	b480      	push	{r7}
 8001102:	b083      	sub	sp, #12
 8001104:	af00      	add	r7, sp, #0
 8001106:	6078      	str	r0, [r7, #4]
 8001108:	460b      	mov	r3, r1
 800110a:	807b      	strh	r3, [r7, #2]
 800110c:	4613      	mov	r3, r2
 800110e:	707b      	strb	r3, [r7, #1]
  /* Check the parameters */
  assert_param(IS_GPIO_PIN(GPIO_Pin));
  assert_param(IS_GPIO_PIN_ACTION(PinState));

  if(PinState != GPIO_PIN_RESET)
 8001110:	787b      	ldrb	r3, [r7, #1]
 8001112:	2b00      	cmp	r3, #0
 8001114:	d003      	beq.n	800111e <HAL_GPIO_WritePin+0x1e>
  {
    GPIOx->BSRR = (uint32_t)GPIO_Pin;
 8001116:	887a      	ldrh	r2, [r7, #2]
 8001118:	687b      	ldr	r3, [r7, #4]
 800111a:	619a      	str	r2, [r3, #24]
  }
  else
  {
    GPIOx->BRR = (uint32_t)GPIO_Pin;
  }
}
 800111c:	e002      	b.n	8001124 <HAL_GPIO_WritePin+0x24>
    GPIOx->BRR = (uint32_t)GPIO_Pin;
 800111e:	887a      	ldrh	r2, [r7, #2]
 8001120:	687b      	ldr	r3, [r7, #4]
 8001122:	629a      	str	r2, [r3, #40]	@ 0x28
}
 8001124:	bf00      	nop
 8001126:	370c      	adds	r7, #12
 8001128:	46bd      	mov	sp, r7
 800112a:	f85d 7b04 	ldr.w	r7, [sp], #4
 800112e:	4770      	bx	lr

08001130 <HAL_PWREx_GetVoltageRange>:
  * @brief Return Voltage Scaling Range.
  * @retval VOS bit field (PWR_REGULATOR_VOLTAGE_SCALE1 or PWR_REGULATOR_VOLTAGE_SCALE2
  *         or PWR_REGULATOR_VOLTAGE_SCALE1_BOOST when applicable)
  */
uint32_t HAL_PWREx_GetVoltageRange(void)
{
 8001130:	b480      	push	{r7}
 8001132:	af00      	add	r7, sp, #0
    else
    {
      return PWR_REGULATOR_VOLTAGE_SCALE1_BOOST;
    }
#else
  return  (PWR->CR1 & PWR_CR1_VOS);
 8001134:	4b04      	ldr	r3, [pc, #16]	@ (8001148 <HAL_PWREx_GetVoltageRange+0x18>)
 8001136:	681b      	ldr	r3, [r3, #0]
 8001138:	f403 63c0 	and.w	r3, r3, #1536	@ 0x600
#endif
}
 800113c:	4618      	mov	r0, r3
 800113e:	46bd      	mov	sp, r7
 8001140:	f85d 7b04 	ldr.w	r7, [sp], #4
 8001144:	4770      	bx	lr
 8001146:	bf00      	nop
 8001148:	40007000 	.word	0x40007000

0800114c <HAL_PWREx_ControlVoltageScaling>:
  *        cleared before returning the status. If the flag is not cleared within
  *        50 microseconds, HAL_TIMEOUT status is reported.
  * @retval HAL Status
  */
HAL_StatusTypeDef HAL_PWREx_ControlVoltageScaling(uint32_t VoltageScaling)
{
 800114c:	b480      	push	{r7}
 800114e:	b085      	sub	sp, #20
 8001150:	af00      	add	r7, sp, #0
 8001152:	6078      	str	r0, [r7, #4]
  }

#else

  /* If Set Range 1 */
  if (VoltageScaling == PWR_REGULATOR_VOLTAGE_SCALE1)
 8001154:	687b      	ldr	r3, [r7, #4]
 8001156:	f5b3 7f00 	cmp.w	r3, #512	@ 0x200
 800115a:	d130      	bne.n	80011be <HAL_PWREx_ControlVoltageScaling+0x72>
  {
    if (READ_BIT(PWR->CR1, PWR_CR1_VOS) != PWR_REGULATOR_VOLTAGE_SCALE1)
 800115c:	4b23      	ldr	r3, [pc, #140]	@ (80011ec <HAL_PWREx_ControlVoltageScaling+0xa0>)
 800115e:	681b      	ldr	r3, [r3, #0]
 8001160:	f403 63c0 	and.w	r3, r3, #1536	@ 0x600
 8001164:	f5b3 7f00 	cmp.w	r3, #512	@ 0x200
 8001168:	d038      	beq.n	80011dc <HAL_PWREx_ControlVoltageScaling+0x90>
    {
      /* Set Range 1 */
      MODIFY_REG(PWR->CR1, PWR_CR1_VOS, PWR_REGULATOR_VOLTAGE_SCALE1);
 800116a:	4b20      	ldr	r3, [pc, #128]	@ (80011ec <HAL_PWREx_ControlVoltageScaling+0xa0>)
 800116c:	681b      	ldr	r3, [r3, #0]
 800116e:	f423 63c0 	bic.w	r3, r3, #1536	@ 0x600
 8001172:	4a1e      	ldr	r2, [pc, #120]	@ (80011ec <HAL_PWREx_ControlVoltageScaling+0xa0>)
 8001174:	f443 7300 	orr.w	r3, r3, #512	@ 0x200
 8001178:	6013      	str	r3, [r2, #0]

      /* Wait until VOSF is cleared */
      wait_loop_index = ((PWR_FLAG_SETTING_DELAY_US * SystemCoreClock) / 1000000U) + 1U;
 800117a:	4b1d      	ldr	r3, [pc, #116]	@ (80011f0 <HAL_PWREx_ControlVoltageScaling+0xa4>)
 800117c:	681b      	ldr	r3, [r3, #0]
 800117e:	2232      	movs	r2, #50	@ 0x32
 8001180:	fb02 f303 	mul.w	r3, r2, r3
 8001184:	4a1b      	ldr	r2, [pc, #108]	@ (80011f4 <HAL_PWREx_ControlVoltageScaling+0xa8>)
 8001186:	fba2 2303 	umull	r2, r3, r2, r3
 800118a:	0c9b      	lsrs	r3, r3, #18
 800118c:	3301      	adds	r3, #1
 800118e:	60fb      	str	r3, [r7, #12]
      while ((HAL_IS_BIT_SET(PWR->SR2, PWR_SR2_VOSF)) && (wait_loop_index != 0U))
 8001190:	e002      	b.n	8001198 <HAL_PWREx_ControlVoltageScaling+0x4c>
      {
        wait_loop_index--;
 8001192:	68fb      	ldr	r3, [r7, #12]
 8001194:	3b01      	subs	r3, #1
 8001196:	60fb      	str	r3, [r7, #12]
      while ((HAL_IS_BIT_SET(PWR->SR2, PWR_SR2_VOSF)) && (wait_loop_index != 0U))
 8001198:	4b14      	ldr	r3, [pc, #80]	@ (80011ec <HAL_PWREx_ControlVoltageScaling+0xa0>)
 800119a:	695b      	ldr	r3, [r3, #20]
 800119c:	f403 6380 	and.w	r3, r3, #1024	@ 0x400
 80011a0:	f5b3 6f80 	cmp.w	r3, #1024	@ 0x400
 80011a4:	d102      	bne.n	80011ac <HAL_PWREx_ControlVoltageScaling+0x60>
 80011a6:	68fb      	ldr	r3, [r7, #12]
 80011a8:	2b00      	cmp	r3, #0
 80011aa:	d1f2      	bne.n	8001192 <HAL_PWREx_ControlVoltageScaling+0x46>
      }
      if (HAL_IS_BIT_SET(PWR->SR2, PWR_SR2_VOSF))
 80011ac:	4b0f      	ldr	r3, [pc, #60]	@ (80011ec <HAL_PWREx_ControlVoltageScaling+0xa0>)
 80011ae:	695b      	ldr	r3, [r3, #20]
 80011b0:	f403 6380 	and.w	r3, r3, #1024	@ 0x400
 80011b4:	f5b3 6f80 	cmp.w	r3, #1024	@ 0x400
 80011b8:	d110      	bne.n	80011dc <HAL_PWREx_ControlVoltageScaling+0x90>
      {
        return HAL_TIMEOUT;
 80011ba:	2303      	movs	r3, #3
 80011bc:	e00f      	b.n	80011de <HAL_PWREx_ControlVoltageScaling+0x92>
      }
    }
  }
  else
  {
    if (READ_BIT(PWR->CR1, PWR_CR1_VOS) != PWR_REGULATOR_VOLTAGE_SCALE2)
 80011be:	4b0b      	ldr	r3, [pc, #44]	@ (80011ec <HAL_PWREx_ControlVoltageScaling+0xa0>)
 80011c0:	681b      	ldr	r3, [r3, #0]
 80011c2:	f403 63c0 	and.w	r3, r3, #1536	@ 0x600
 80011c6:	f5b3 6f80 	cmp.w	r3, #1024	@ 0x400
 80011ca:	d007      	beq.n	80011dc <HAL_PWREx_ControlVoltageScaling+0x90>
    {
      /* Set Range 2 */
      MODIFY_REG(PWR->CR1, PWR_CR1_VOS, PWR_REGULATOR_VOLTAGE_SCALE2);
 80011cc:	4b07      	ldr	r3, [pc, #28]	@ (80011ec <HAL_PWREx_ControlVoltageScaling+0xa0>)
 80011ce:	681b      	ldr	r3, [r3, #0]
 80011d0:	f423 63c0 	bic.w	r3, r3, #1536	@ 0x600
 80011d4:	4a05      	ldr	r2, [pc, #20]	@ (80011ec <HAL_PWREx_ControlVoltageScaling+0xa0>)
 80011d6:	f443 6380 	orr.w	r3, r3, #1024	@ 0x400
 80011da:	6013      	str	r3, [r2, #0]
      /* No need to wait for VOSF to be cleared for this transition */
    }
  }
#endif

  return HAL_OK;
 80011dc:	2300      	movs	r3, #0
}
 80011de:	4618      	mov	r0, r3
 80011e0:	3714      	adds	r7, #20
 80011e2:	46bd      	mov	sp, r7
 80011e4:	f85d 7b04 	ldr.w	r7, [sp], #4
 80011e8:	4770      	bx	lr
 80011ea:	bf00      	nop
 80011ec:	40007000 	.word	0x40007000
 80011f0:	20000000 	.word	0x20000000
 80011f4:	431bde83 	.word	0x431bde83

080011f8 <HAL_RCC_OscConfig>:
  * @note   If HSE failed to start, HSE should be disabled before recalling
            HAL_RCC_OscConfig().
  * @retval HAL status
  */
HAL_StatusTypeDef HAL_RCC_OscConfig(RCC_OscInitTypeDef  *RCC_OscInitStruct)
{
 80011f8:	b580      	push	{r7, lr}
 80011fa:	b088      	sub	sp, #32
 80011fc:	af00      	add	r7, sp, #0
 80011fe:	6078      	str	r0, [r7, #4]
  uint32_t tickstart;
  HAL_StatusTypeDef status;
  uint32_t sysclk_source, pll_config;

  /* Check Null pointer */
  if(RCC_OscInitStruct == NULL)
 8001200:	687b      	ldr	r3, [r7, #4]
 8001202:	2b00      	cmp	r3, #0
 8001204:	d101      	bne.n	800120a <HAL_RCC_OscConfig+0x12>
  {
    return HAL_ERROR;
 8001206:	2301      	movs	r3, #1
 8001208:	e3ca      	b.n	80019a0 <HAL_RCC_OscConfig+0x7a8>
  }

  /* Check the parameters */
  assert_param(IS_RCC_OSCILLATORTYPE(RCC_OscInitStruct->OscillatorType));

  sysclk_source = __HAL_RCC_GET_SYSCLK_SOURCE();
 800120a:	4b97      	ldr	r3, [pc, #604]	@ (8001468 <HAL_RCC_OscConfig+0x270>)
 800120c:	689b      	ldr	r3, [r3, #8]
 800120e:	f003 030c 	and.w	r3, r3, #12
 8001212:	61bb      	str	r3, [r7, #24]
  pll_config = __HAL_RCC_GET_PLL_OSCSOURCE();
 8001214:	4b94      	ldr	r3, [pc, #592]	@ (8001468 <HAL_RCC_OscConfig+0x270>)
 8001216:	68db      	ldr	r3, [r3, #12]
 8001218:	f003 0303 	and.w	r3, r3, #3
 800121c:	617b      	str	r3, [r7, #20]

  /*----------------------------- MSI Configuration --------------------------*/
  if(((RCC_OscInitStruct->OscillatorType) & RCC_OSCILLATORTYPE_MSI) == RCC_OSCILLATORTYPE_MSI)
 800121e:	687b      	ldr	r3, [r7, #4]
 8001220:	681b      	ldr	r3, [r3, #0]
 8001222:	f003 0310 	and.w	r3, r3, #16
 8001226:	2b00      	cmp	r3, #0
 8001228:	f000 80e4 	beq.w	80013f4 <HAL_RCC_OscConfig+0x1fc>
    assert_param(IS_RCC_MSI(RCC_OscInitStruct->MSIState));
    assert_param(IS_RCC_MSICALIBRATION_VALUE(RCC_OscInitStruct->MSICalibrationValue));
    assert_param(IS_RCC_MSI_CLOCK_RANGE(RCC_OscInitStruct->MSIClockRange));

    /* Check if MSI is used as system clock or as PLL source when PLL is selected as system clock */
    if((sysclk_source == RCC_CFGR_SWS_MSI) ||
 800122c:	69bb      	ldr	r3, [r7, #24]
 800122e:	2b00      	cmp	r3, #0
 8001230:	d007      	beq.n	8001242 <HAL_RCC_OscConfig+0x4a>
 8001232:	69bb      	ldr	r3, [r7, #24]
 8001234:	2b0c      	cmp	r3, #12
 8001236:	f040 808b 	bne.w	8001350 <HAL_RCC_OscConfig+0x158>
       ((sysclk_source == RCC_CFGR_SWS_PLL) && (pll_config == RCC_PLLSOURCE_MSI)))
 800123a:	697b      	ldr	r3, [r7, #20]
 800123c:	2b01      	cmp	r3, #1
 800123e:	f040 8087 	bne.w	8001350 <HAL_RCC_OscConfig+0x158>
    {
      if((READ_BIT(RCC->CR, RCC_CR_MSIRDY) != 0U) && (RCC_OscInitStruct->MSIState == RCC_MSI_OFF))
 8001242:	4b89      	ldr	r3, [pc, #548]	@ (8001468 <HAL_RCC_OscConfig+0x270>)
 8001244:	681b      	ldr	r3, [r3, #0]
 8001246:	f003 0302 	and.w	r3, r3, #2
 800124a:	2b00      	cmp	r3, #0
 800124c:	d005      	beq.n	800125a <HAL_RCC_OscConfig+0x62>
 800124e:	687b      	ldr	r3, [r7, #4]
 8001250:	699b      	ldr	r3, [r3, #24]
 8001252:	2b00      	cmp	r3, #0
 8001254:	d101      	bne.n	800125a <HAL_RCC_OscConfig+0x62>
      {
        return HAL_ERROR;
 8001256:	2301      	movs	r3, #1
 8001258:	e3a2      	b.n	80019a0 <HAL_RCC_OscConfig+0x7a8>
      else
      {
        /* To correctly read data from FLASH memory, the number of wait states (LATENCY)
           must be correctly programmed according to the frequency of the CPU clock
           (HCLK) and the supply voltage of the device. */
        if(RCC_OscInitStruct->MSIClockRange > __HAL_RCC_GET_MSI_RANGE())
 800125a:	687b      	ldr	r3, [r7, #4]
 800125c:	6a1a      	ldr	r2, [r3, #32]
 800125e:	4b82      	ldr	r3, [pc, #520]	@ (8001468 <HAL_RCC_OscConfig+0x270>)
 8001260:	681b      	ldr	r3, [r3, #0]
 8001262:	f003 0308 	and.w	r3, r3, #8
 8001266:	2b00      	cmp	r3, #0
 8001268:	d004      	beq.n	8001274 <HAL_RCC_OscConfig+0x7c>
 800126a:	4b7f      	ldr	r3, [pc, #508]	@ (8001468 <HAL_RCC_OscConfig+0x270>)
 800126c:	681b      	ldr	r3, [r3, #0]
 800126e:	f003 03f0 	and.w	r3, r3, #240	@ 0xf0
 8001272:	e005      	b.n	8001280 <HAL_RCC_OscConfig+0x88>
 8001274:	4b7c      	ldr	r3, [pc, #496]	@ (8001468 <HAL_RCC_OscConfig+0x270>)
 8001276:	f8d3 3094 	ldr.w	r3, [r3, #148]	@ 0x94
 800127a:	091b      	lsrs	r3, r3, #4
 800127c:	f003 03f0 	and.w	r3, r3, #240	@ 0xf0
 8001280:	4293      	cmp	r3, r2
 8001282:	d223      	bcs.n	80012cc <HAL_RCC_OscConfig+0xd4>
        {
          /* First increase number of wait states update if necessary */
          if(RCC_SetFlashLatencyFromMSIRange(RCC_OscInitStruct->MSIClockRange) != HAL_OK)
 8001284:	687b      	ldr	r3, [r7, #4]
 8001286:	6a1b      	ldr	r3, [r3, #32]
 8001288:	4618      	mov	r0, r3
 800128a:	f000 fd55 	bl	8001d38 <RCC_SetFlashLatencyFromMSIRange>
 800128e:	4603      	mov	r3, r0
 8001290:	2b00      	cmp	r3, #0
 8001292:	d001      	beq.n	8001298 <HAL_RCC_OscConfig+0xa0>
          {
            return HAL_ERROR;
 8001294:	2301      	movs	r3, #1
 8001296:	e383      	b.n	80019a0 <HAL_RCC_OscConfig+0x7a8>
          }

          /* Selects the Multiple Speed oscillator (MSI) clock range .*/
          __HAL_RCC_MSI_RANGE_CONFIG(RCC_OscInitStruct->MSIClockRange);
 8001298:	4b73      	ldr	r3, [pc, #460]	@ (8001468 <HAL_RCC_OscConfig+0x270>)
 800129a:	681b      	ldr	r3, [r3, #0]
 800129c:	4a72      	ldr	r2, [pc, #456]	@ (8001468 <HAL_RCC_OscConfig+0x270>)
 800129e:	f043 0308 	orr.w	r3, r3, #8
 80012a2:	6013      	str	r3, [r2, #0]
 80012a4:	4b70      	ldr	r3, [pc, #448]	@ (8001468 <HAL_RCC_OscConfig+0x270>)
 80012a6:	681b      	ldr	r3, [r3, #0]
 80012a8:	f023 02f0 	bic.w	r2, r3, #240	@ 0xf0
 80012ac:	687b      	ldr	r3, [r7, #4]
 80012ae:	6a1b      	ldr	r3, [r3, #32]
 80012b0:	496d      	ldr	r1, [pc, #436]	@ (8001468 <HAL_RCC_OscConfig+0x270>)
 80012b2:	4313      	orrs	r3, r2
 80012b4:	600b      	str	r3, [r1, #0]
          /* Adjusts the Multiple Speed oscillator (MSI) calibration value.*/
          __HAL_RCC_MSI_CALIBRATIONVALUE_ADJUST(RCC_OscInitStruct->MSICalibrationValue);
 80012b6:	4b6c      	ldr	r3, [pc, #432]	@ (8001468 <HAL_RCC_OscConfig+0x270>)
 80012b8:	685b      	ldr	r3, [r3, #4]
 80012ba:	f423 427f 	bic.w	r2, r3, #65280	@ 0xff00
 80012be:	687b      	ldr	r3, [r7, #4]
 80012c0:	69db      	ldr	r3, [r3, #28]
 80012c2:	021b      	lsls	r3, r3, #8
 80012c4:	4968      	ldr	r1, [pc, #416]	@ (8001468 <HAL_RCC_OscConfig+0x270>)
 80012c6:	4313      	orrs	r3, r2
 80012c8:	604b      	str	r3, [r1, #4]
 80012ca:	e025      	b.n	8001318 <HAL_RCC_OscConfig+0x120>
        }
        else
        {
          /* Else, keep current flash latency while decreasing applies */
          /* Selects the Multiple Speed oscillator (MSI) clock range .*/
          __HAL_RCC_MSI_RANGE_CONFIG(RCC_OscInitStruct->MSIClockRange);
 80012cc:	4b66      	ldr	r3, [pc, #408]	@ (8001468 <HAL_RCC_OscConfig+0x270>)
 80012ce:	681b      	ldr	r3, [r3, #0]
 80012d0:	4a65      	ldr	r2, [pc, #404]	@ (8001468 <HAL_RCC_OscConfig+0x270>)
 80012d2:	f043 0308 	orr.w	r3, r3, #8
 80012d6:	6013      	str	r3, [r2, #0]
 80012d8:	4b63      	ldr	r3, [pc, #396]	@ (8001468 <HAL_RCC_OscConfig+0x270>)
 80012da:	681b      	ldr	r3, [r3, #0]
 80012dc:	f023 02f0 	bic.w	r2, r3, #240	@ 0xf0
 80012e0:	687b      	ldr	r3, [r7, #4]
 80012e2:	6a1b      	ldr	r3, [r3, #32]
 80012e4:	4960      	ldr	r1, [pc, #384]	@ (8001468 <HAL_RCC_OscConfig+0x270>)
 80012e6:	4313      	orrs	r3, r2
 80012e8:	600b      	str	r3, [r1, #0]
          /* Adjusts the Multiple Speed oscillator (MSI) calibration value.*/
          __HAL_RCC_MSI_CALIBRATIONVALUE_ADJUST(RCC_OscInitStruct->MSICalibrationValue);
 80012ea:	4b5f      	ldr	r3, [pc, #380]	@ (8001468 <HAL_RCC_OscConfig+0x270>)
 80012ec:	685b      	ldr	r3, [r3, #4]
 80012ee:	f423 427f 	bic.w	r2, r3, #65280	@ 0xff00
 80012f2:	687b      	ldr	r3, [r7, #4]
 80012f4:	69db      	ldr	r3, [r3, #28]
 80012f6:	021b      	lsls	r3, r3, #8
 80012f8:	495b      	ldr	r1, [pc, #364]	@ (8001468 <HAL_RCC_OscConfig+0x270>)
 80012fa:	4313      	orrs	r3, r2
 80012fc:	604b      	str	r3, [r1, #4]

          /* Decrease number of wait states update if necessary */
          /* Only possible when MSI is the System clock source  */
          if(sysclk_source == RCC_CFGR_SWS_MSI)
 80012fe:	69bb      	ldr	r3, [r7, #24]
 8001300:	2b00      	cmp	r3, #0
 8001302:	d109      	bne.n	8001318 <HAL_RCC_OscConfig+0x120>
          {
            if(RCC_SetFlashLatencyFromMSIRange(RCC_OscInitStruct->MSIClockRange) != HAL_OK)
 8001304:	687b      	ldr	r3, [r7, #4]
 8001306:	6a1b      	ldr	r3, [r3, #32]
 8001308:	4618      	mov	r0, r3
 800130a:	f000 fd15 	bl	8001d38 <RCC_SetFlashLatencyFromMSIRange>
 800130e:	4603      	mov	r3, r0
 8001310:	2b00      	cmp	r3, #0
 8001312:	d001      	beq.n	8001318 <HAL_RCC_OscConfig+0x120>
            {
              return HAL_ERROR;
 8001314:	2301      	movs	r3, #1
 8001316:	e343      	b.n	80019a0 <HAL_RCC_OscConfig+0x7a8>
            }
          }
        }

        /* Update the SystemCoreClock global variable */
        SystemCoreClock = HAL_RCC_GetSysClockFreq() >> (AHBPrescTable[READ_BIT(RCC->CFGR, RCC_CFGR_HPRE) >> RCC_CFGR_HPRE_Pos] & 0x1FU);
 8001318:	f000 fc4a 	bl	8001bb0 <HAL_RCC_GetSysClockFreq>
 800131c:	4602      	mov	r2, r0
 800131e:	4b52      	ldr	r3, [pc, #328]	@ (8001468 <HAL_RCC_OscConfig+0x270>)
 8001320:	689b      	ldr	r3, [r3, #8]
 8001322:	091b      	lsrs	r3, r3, #4
 8001324:	f003 030f 	and.w	r3, r3, #15
 8001328:	4950      	ldr	r1, [pc, #320]	@ (800146c <HAL_RCC_OscConfig+0x274>)
 800132a:	5ccb      	ldrb	r3, [r1, r3]
 800132c:	f003 031f 	and.w	r3, r3, #31
 8001330:	fa22 f303 	lsr.w	r3, r2, r3
 8001334:	4a4e      	ldr	r2, [pc, #312]	@ (8001470 <HAL_RCC_OscConfig+0x278>)
 8001336:	6013      	str	r3, [r2, #0]

        /* Configure the source of time base considering new system clocks settings*/
        status = HAL_InitTick(uwTickPrio);
 8001338:	4b4e      	ldr	r3, [pc, #312]	@ (8001474 <HAL_RCC_OscConfig+0x27c>)
 800133a:	681b      	ldr	r3, [r3, #0]
 800133c:	4618      	mov	r0, r3
 800133e:	f7ff fbf3 	bl	8000b28 <HAL_InitTick>
 8001342:	4603      	mov	r3, r0
 8001344:	73fb      	strb	r3, [r7, #15]
        if(status != HAL_OK)
 8001346:	7bfb      	ldrb	r3, [r7, #15]
 8001348:	2b00      	cmp	r3, #0
 800134a:	d052      	beq.n	80013f2 <HAL_RCC_OscConfig+0x1fa>
        {
          return status;
 800134c:	7bfb      	ldrb	r3, [r7, #15]
 800134e:	e327      	b.n	80019a0 <HAL_RCC_OscConfig+0x7a8>
      }
    }
    else
    {
      /* Check the MSI State */
      if(RCC_OscInitStruct->MSIState != RCC_MSI_OFF)
 8001350:	687b      	ldr	r3, [r7, #4]
 8001352:	699b      	ldr	r3, [r3, #24]
 8001354:	2b00      	cmp	r3, #0
 8001356:	d032      	beq.n	80013be <HAL_RCC_OscConfig+0x1c6>
      {
        /* Enable the Internal High Speed oscillator (MSI). */
        __HAL_RCC_MSI_ENABLE();
 8001358:	4b43      	ldr	r3, [pc, #268]	@ (8001468 <HAL_RCC_OscConfig+0x270>)
 800135a:	681b      	ldr	r3, [r3, #0]
 800135c:	4a42      	ldr	r2, [pc, #264]	@ (8001468 <HAL_RCC_OscConfig+0x270>)
 800135e:	f043 0301 	orr.w	r3, r3, #1
 8001362:	6013      	str	r3, [r2, #0]

        /* Get timeout */
        tickstart = HAL_GetTick();
 8001364:	f7ff fc30 	bl	8000bc8 <HAL_GetTick>
 8001368:	6138      	str	r0, [r7, #16]

        /* Wait till MSI is ready */
        while(READ_BIT(RCC->CR, RCC_CR_MSIRDY) == 0U)
 800136a:	e008      	b.n	800137e <HAL_RCC_OscConfig+0x186>
        {
          if((HAL_GetTick() - tickstart) > MSI_TIMEOUT_VALUE)
 800136c:	f7ff fc2c 	bl	8000bc8 <HAL_GetTick>
 8001370:	4602      	mov	r2, r0
 8001372:	693b      	ldr	r3, [r7, #16]
 8001374:	1ad3      	subs	r3, r2, r3
 8001376:	2b02      	cmp	r3, #2
 8001378:	d901      	bls.n	800137e <HAL_RCC_OscConfig+0x186>
          {
            return HAL_TIMEOUT;
 800137a:	2303      	movs	r3, #3
 800137c:	e310      	b.n	80019a0 <HAL_RCC_OscConfig+0x7a8>
        while(READ_BIT(RCC->CR, RCC_CR_MSIRDY) == 0U)
 800137e:	4b3a      	ldr	r3, [pc, #232]	@ (8001468 <HAL_RCC_OscConfig+0x270>)
 8001380:	681b      	ldr	r3, [r3, #0]
 8001382:	f003 0302 	and.w	r3, r3, #2
 8001386:	2b00      	cmp	r3, #0
 8001388:	d0f0      	beq.n	800136c <HAL_RCC_OscConfig+0x174>
          }
        }
         /* Selects the Multiple Speed oscillator (MSI) clock range .*/
        __HAL_RCC_MSI_RANGE_CONFIG(RCC_OscInitStruct->MSIClockRange);
 800138a:	4b37      	ldr	r3, [pc, #220]	@ (8001468 <HAL_RCC_OscConfig+0x270>)
 800138c:	681b      	ldr	r3, [r3, #0]
 800138e:	4a36      	ldr	r2, [pc, #216]	@ (8001468 <HAL_RCC_OscConfig+0x270>)
 8001390:	f043 0308 	orr.w	r3, r3, #8
 8001394:	6013      	str	r3, [r2, #0]
 8001396:	4b34      	ldr	r3, [pc, #208]	@ (8001468 <HAL_RCC_OscConfig+0x270>)
 8001398:	681b      	ldr	r3, [r3, #0]
 800139a:	f023 02f0 	bic.w	r2, r3, #240	@ 0xf0
 800139e:	687b      	ldr	r3, [r7, #4]
 80013a0:	6a1b      	ldr	r3, [r3, #32]
 80013a2:	4931      	ldr	r1, [pc, #196]	@ (8001468 <HAL_RCC_OscConfig+0x270>)
 80013a4:	4313      	orrs	r3, r2
 80013a6:	600b      	str	r3, [r1, #0]
         /* Adjusts the Multiple Speed oscillator (MSI) calibration value.*/
        __HAL_RCC_MSI_CALIBRATIONVALUE_ADJUST(RCC_OscInitStruct->MSICalibrationValue);
 80013a8:	4b2f      	ldr	r3, [pc, #188]	@ (8001468 <HAL_RCC_OscConfig+0x270>)
 80013aa:	685b      	ldr	r3, [r3, #4]
 80013ac:	f423 427f 	bic.w	r2, r3, #65280	@ 0xff00
 80013b0:	687b      	ldr	r3, [r7, #4]
 80013b2:	69db      	ldr	r3, [r3, #28]
 80013b4:	021b      	lsls	r3, r3, #8
 80013b6:	492c      	ldr	r1, [pc, #176]	@ (8001468 <HAL_RCC_OscConfig+0x270>)
 80013b8:	4313      	orrs	r3, r2
 80013ba:	604b      	str	r3, [r1, #4]
 80013bc:	e01a      	b.n	80013f4 <HAL_RCC_OscConfig+0x1fc>

      }
      else
      {
        /* Disable the Internal High Speed oscillator (MSI). */
        __HAL_RCC_MSI_DISABLE();
 80013be:	4b2a      	ldr	r3, [pc, #168]	@ (8001468 <HAL_RCC_OscConfig+0x270>)
 80013c0:	681b      	ldr	r3, [r3, #0]
 80013c2:	4a29      	ldr	r2, [pc, #164]	@ (8001468 <HAL_RCC_OscConfig+0x270>)
 80013c4:	f023 0301 	bic.w	r3, r3, #1
 80013c8:	6013      	str	r3, [r2, #0]

        /* Get timeout */
        tickstart = HAL_GetTick();
 80013ca:	f7ff fbfd 	bl	8000bc8 <HAL_GetTick>
 80013ce:	6138      	str	r0, [r7, #16]

        /* Wait till MSI is ready */
        while(READ_BIT(RCC->CR, RCC_CR_MSIRDY) != 0U)
 80013d0:	e008      	b.n	80013e4 <HAL_RCC_OscConfig+0x1ec>
        {
          if((HAL_GetTick() - tickstart) > MSI_TIMEOUT_VALUE)
 80013d2:	f7ff fbf9 	bl	8000bc8 <HAL_GetTick>
 80013d6:	4602      	mov	r2, r0
 80013d8:	693b      	ldr	r3, [r7, #16]
 80013da:	1ad3      	subs	r3, r2, r3
 80013dc:	2b02      	cmp	r3, #2
 80013de:	d901      	bls.n	80013e4 <HAL_RCC_OscConfig+0x1ec>
          {
            return HAL_TIMEOUT;
 80013e0:	2303      	movs	r3, #3
 80013e2:	e2dd      	b.n	80019a0 <HAL_RCC_OscConfig+0x7a8>
        while(READ_BIT(RCC->CR, RCC_CR_MSIRDY) != 0U)
 80013e4:	4b20      	ldr	r3, [pc, #128]	@ (8001468 <HAL_RCC_OscConfig+0x270>)
 80013e6:	681b      	ldr	r3, [r3, #0]
 80013e8:	f003 0302 	and.w	r3, r3, #2
 80013ec:	2b00      	cmp	r3, #0
 80013ee:	d1f0      	bne.n	80013d2 <HAL_RCC_OscConfig+0x1da>
 80013f0:	e000      	b.n	80013f4 <HAL_RCC_OscConfig+0x1fc>
      if((READ_BIT(RCC->CR, RCC_CR_MSIRDY) != 0U) && (RCC_OscInitStruct->MSIState == RCC_MSI_OFF))
 80013f2:	bf00      	nop
        }
      }
    }
  }
  /*------------------------------- HSE Configuration ------------------------*/
  if(((RCC_OscInitStruct->OscillatorType) & RCC_OSCILLATORTYPE_HSE) == RCC_OSCILLATORTYPE_HSE)
 80013f4:	687b      	ldr	r3, [r7, #4]
 80013f6:	681b      	ldr	r3, [r3, #0]
 80013f8:	f003 0301 	and.w	r3, r3, #1
 80013fc:	2b00      	cmp	r3, #0
 80013fe:	d074      	beq.n	80014ea <HAL_RCC_OscConfig+0x2f2>
  {
    /* Check the parameters */
    assert_param(IS_RCC_HSE(RCC_OscInitStruct->HSEState));

    /* When the HSE is used as system clock or clock source for PLL in these cases it is not allowed to be disabled */
    if((sysclk_source == RCC_CFGR_SWS_HSE) ||
 8001400:	69bb      	ldr	r3, [r7, #24]
 8001402:	2b08      	cmp	r3, #8
 8001404:	d005      	beq.n	8001412 <HAL_RCC_OscConfig+0x21a>
 8001406:	69bb      	ldr	r3, [r7, #24]
 8001408:	2b0c      	cmp	r3, #12
 800140a:	d10e      	bne.n	800142a <HAL_RCC_OscConfig+0x232>
       ((sysclk_source == RCC_CFGR_SWS_PLL) && (pll_config == RCC_PLLSOURCE_HSE)))
 800140c:	697b      	ldr	r3, [r7, #20]
 800140e:	2b03      	cmp	r3, #3
 8001410:	d10b      	bne.n	800142a <HAL_RCC_OscConfig+0x232>
    {
      if((READ_BIT(RCC->CR, RCC_CR_HSERDY) != 0U) && (RCC_OscInitStruct->HSEState == RCC_HSE_OFF))
 8001412:	4b15      	ldr	r3, [pc, #84]	@ (8001468 <HAL_RCC_OscConfig+0x270>)
 8001414:	681b      	ldr	r3, [r3, #0]
 8001416:	f403 3300 	and.w	r3, r3, #131072	@ 0x20000
 800141a:	2b00      	cmp	r3, #0
 800141c:	d064      	beq.n	80014e8 <HAL_RCC_OscConfig+0x2f0>
 800141e:	687b      	ldr	r3, [r7, #4]
 8001420:	685b      	ldr	r3, [r3, #4]
 8001422:	2b00      	cmp	r3, #0
 8001424:	d160      	bne.n	80014e8 <HAL_RCC_OscConfig+0x2f0>
      {
        return HAL_ERROR;
 8001426:	2301      	movs	r3, #1
 8001428:	e2ba      	b.n	80019a0 <HAL_RCC_OscConfig+0x7a8>
      }
    }
    else
    {
      /* Set the new HSE configuration ---------------------------------------*/
      __HAL_RCC_HSE_CONFIG(RCC_OscInitStruct->HSEState);
 800142a:	687b      	ldr	r3, [r7, #4]
 800142c:	685b      	ldr	r3, [r3, #4]
 800142e:	f5b3 3f80 	cmp.w	r3, #65536	@ 0x10000
 8001432:	d106      	bne.n	8001442 <HAL_RCC_OscConfig+0x24a>
 8001434:	4b0c      	ldr	r3, [pc, #48]	@ (8001468 <HAL_RCC_OscConfig+0x270>)
 8001436:	681b      	ldr	r3, [r3, #0]
 8001438:	4a0b      	ldr	r2, [pc, #44]	@ (8001468 <HAL_RCC_OscConfig+0x270>)
 800143a:	f443 3380 	orr.w	r3, r3, #65536	@ 0x10000
 800143e:	6013      	str	r3, [r2, #0]
 8001440:	e026      	b.n	8001490 <HAL_RCC_OscConfig+0x298>
 8001442:	687b      	ldr	r3, [r7, #4]
 8001444:	685b      	ldr	r3, [r3, #4]
 8001446:	f5b3 2fa0 	cmp.w	r3, #327680	@ 0x50000
 800144a:	d115      	bne.n	8001478 <HAL_RCC_OscConfig+0x280>
 800144c:	4b06      	ldr	r3, [pc, #24]	@ (8001468 <HAL_RCC_OscConfig+0x270>)
 800144e:	681b      	ldr	r3, [r3, #0]
 8001450:	4a05      	ldr	r2, [pc, #20]	@ (8001468 <HAL_RCC_OscConfig+0x270>)
 8001452:	f443 2380 	orr.w	r3, r3, #262144	@ 0x40000
 8001456:	6013      	str	r3, [r2, #0]
 8001458:	4b03      	ldr	r3, [pc, #12]	@ (8001468 <HAL_RCC_OscConfig+0x270>)
 800145a:	681b      	ldr	r3, [r3, #0]
 800145c:	4a02      	ldr	r2, [pc, #8]	@ (8001468 <HAL_RCC_OscConfig+0x270>)
 800145e:	f443 3380 	orr.w	r3, r3, #65536	@ 0x10000
 8001462:	6013      	str	r3, [r2, #0]
 8001464:	e014      	b.n	8001490 <HAL_RCC_OscConfig+0x298>
 8001466:	bf00      	nop
 8001468:	40021000 	.word	0x40021000
 800146c:	08003924 	.word	0x08003924
 8001470:	20000000 	.word	0x20000000
 8001474:	20000004 	.word	0x20000004
 8001478:	4ba0      	ldr	r3, [pc, #640]	@ (80016fc <HAL_RCC_OscConfig+0x504>)
 800147a:	681b      	ldr	r3, [r3, #0]
 800147c:	4a9f      	ldr	r2, [pc, #636]	@ (80016fc <HAL_RCC_OscConfig+0x504>)
 800147e:	f423 3380 	bic.w	r3, r3, #65536	@ 0x10000
 8001482:	6013      	str	r3, [r2, #0]
 8001484:	4b9d      	ldr	r3, [pc, #628]	@ (80016fc <HAL_RCC_OscConfig+0x504>)
 8001486:	681b      	ldr	r3, [r3, #0]
 8001488:	4a9c      	ldr	r2, [pc, #624]	@ (80016fc <HAL_RCC_OscConfig+0x504>)
 800148a:	f423 2380 	bic.w	r3, r3, #262144	@ 0x40000
 800148e:	6013      	str	r3, [r2, #0]

      /* Check the HSE State */
      if(RCC_OscInitStruct->HSEState != RCC_HSE_OFF)
 8001490:	687b      	ldr	r3, [r7, #4]
 8001492:	685b      	ldr	r3, [r3, #4]
 8001494:	2b00      	cmp	r3, #0
 8001496:	d013      	beq.n	80014c0 <HAL_RCC_OscConfig+0x2c8>
      {
        /* Get Start Tick*/
        tickstart = HAL_GetTick();
 8001498:	f7ff fb96 	bl	8000bc8 <HAL_GetTick>
 800149c:	6138      	str	r0, [r7, #16]

        /* Wait till HSE is ready */
        while(READ_BIT(RCC->CR, RCC_CR_HSERDY) == 0U)
 800149e:	e008      	b.n	80014b2 <HAL_RCC_OscConfig+0x2ba>
        {
          if((HAL_GetTick() - tickstart) > HSE_TIMEOUT_VALUE)
 80014a0:	f7ff fb92 	bl	8000bc8 <HAL_GetTick>
 80014a4:	4602      	mov	r2, r0
 80014a6:	693b      	ldr	r3, [r7, #16]
 80014a8:	1ad3      	subs	r3, r2, r3
 80014aa:	2b64      	cmp	r3, #100	@ 0x64
 80014ac:	d901      	bls.n	80014b2 <HAL_RCC_OscConfig+0x2ba>
          {
            return HAL_TIMEOUT;
 80014ae:	2303      	movs	r3, #3
 80014b0:	e276      	b.n	80019a0 <HAL_RCC_OscConfig+0x7a8>
        while(READ_BIT(RCC->CR, RCC_CR_HSERDY) == 0U)
 80014b2:	4b92      	ldr	r3, [pc, #584]	@ (80016fc <HAL_RCC_OscConfig+0x504>)
 80014b4:	681b      	ldr	r3, [r3, #0]
 80014b6:	f403 3300 	and.w	r3, r3, #131072	@ 0x20000
 80014ba:	2b00      	cmp	r3, #0
 80014bc:	d0f0      	beq.n	80014a0 <HAL_RCC_OscConfig+0x2a8>
 80014be:	e014      	b.n	80014ea <HAL_RCC_OscConfig+0x2f2>
        }
      }
      else
      {
        /* Get Start Tick*/
        tickstart = HAL_GetTick();
 80014c0:	f7ff fb82 	bl	8000bc8 <HAL_GetTick>
 80014c4:	6138      	str	r0, [r7, #16]

        /* Wait till HSE is disabled */
        while(READ_BIT(RCC->CR, RCC_CR_HSERDY) != 0U)
 80014c6:	e008      	b.n	80014da <HAL_RCC_OscConfig+0x2e2>
        {
          if((HAL_GetTick() - tickstart) > HSE_TIMEOUT_VALUE)
 80014c8:	f7ff fb7e 	bl	8000bc8 <HAL_GetTick>
 80014cc:	4602      	mov	r2, r0
 80014ce:	693b      	ldr	r3, [r7, #16]
 80014d0:	1ad3      	subs	r3, r2, r3
 80014d2:	2b64      	cmp	r3, #100	@ 0x64
 80014d4:	d901      	bls.n	80014da <HAL_RCC_OscConfig+0x2e2>
          {
            return HAL_TIMEOUT;
 80014d6:	2303      	movs	r3, #3
 80014d8:	e262      	b.n	80019a0 <HAL_RCC_OscConfig+0x7a8>
        while(READ_BIT(RCC->CR, RCC_CR_HSERDY) != 0U)
 80014da:	4b88      	ldr	r3, [pc, #544]	@ (80016fc <HAL_RCC_OscConfig+0x504>)
 80014dc:	681b      	ldr	r3, [r3, #0]
 80014de:	f403 3300 	and.w	r3, r3, #131072	@ 0x20000
 80014e2:	2b00      	cmp	r3, #0
 80014e4:	d1f0      	bne.n	80014c8 <HAL_RCC_OscConfig+0x2d0>
 80014e6:	e000      	b.n	80014ea <HAL_RCC_OscConfig+0x2f2>
      if((READ_BIT(RCC->CR, RCC_CR_HSERDY) != 0U) && (RCC_OscInitStruct->HSEState == RCC_HSE_OFF))
 80014e8:	bf00      	nop
        }
      }
    }
  }
  /*----------------------------- HSI Configuration --------------------------*/
  if(((RCC_OscInitStruct->OscillatorType) & RCC_OSCILLATORTYPE_HSI) == RCC_OSCILLATORTYPE_HSI)
 80014ea:	687b      	ldr	r3, [r7, #4]
 80014ec:	681b      	ldr	r3, [r3, #0]
 80014ee:	f003 0302 	and.w	r3, r3, #2
 80014f2:	2b00      	cmp	r3, #0
 80014f4:	d060      	beq.n	80015b8 <HAL_RCC_OscConfig+0x3c0>
    /* Check the parameters */
    assert_param(IS_RCC_HSI(RCC_OscInitStruct->HSIState));
    assert_param(IS_RCC_HSI_CALIBRATION_VALUE(RCC_OscInitStruct->HSICalibrationValue));

    /* Check if HSI is used as system clock or as PLL source when PLL is selected as system clock */
    if((sysclk_source == RCC_CFGR_SWS_HSI) ||
 80014f6:	69bb      	ldr	r3, [r7, #24]
 80014f8:	2b04      	cmp	r3, #4
 80014fa:	d005      	beq.n	8001508 <HAL_RCC_OscConfig+0x310>
 80014fc:	69bb      	ldr	r3, [r7, #24]
 80014fe:	2b0c      	cmp	r3, #12
 8001500:	d119      	bne.n	8001536 <HAL_RCC_OscConfig+0x33e>
       ((sysclk_source == RCC_CFGR_SWS_PLL) && (pll_config == RCC_PLLSOURCE_HSI)))
 8001502:	697b      	ldr	r3, [r7, #20]
 8001504:	2b02      	cmp	r3, #2
 8001506:	d116      	bne.n	8001536 <HAL_RCC_OscConfig+0x33e>
    {
      /* When HSI is used as system clock it will not be disabled */
      if((READ_BIT(RCC->CR, RCC_CR_HSIRDY) != 0U) && (RCC_OscInitStruct->HSIState == RCC_HSI_OFF))
 8001508:	4b7c      	ldr	r3, [pc, #496]	@ (80016fc <HAL_RCC_OscConfig+0x504>)
 800150a:	681b      	ldr	r3, [r3, #0]
 800150c:	f403 6380 	and.w	r3, r3, #1024	@ 0x400
 8001510:	2b00      	cmp	r3, #0
 8001512:	d005      	beq.n	8001520 <HAL_RCC_OscConfig+0x328>
 8001514:	687b      	ldr	r3, [r7, #4]
 8001516:	68db      	ldr	r3, [r3, #12]
 8001518:	2b00      	cmp	r3, #0
 800151a:	d101      	bne.n	8001520 <HAL_RCC_OscConfig+0x328>
      {
        return HAL_ERROR;
 800151c:	2301      	movs	r3, #1
 800151e:	e23f      	b.n	80019a0 <HAL_RCC_OscConfig+0x7a8>
      }
      /* Otherwise, just the calibration is allowed */
      else
      {
        /* Adjusts the Internal High Speed oscillator (HSI) calibration value.*/
        __HAL_RCC_HSI_CALIBRATIONVALUE_ADJUST(RCC_OscInitStruct->HSICalibrationValue);
 8001520:	4b76      	ldr	r3, [pc, #472]	@ (80016fc <HAL_RCC_OscConfig+0x504>)
 8001522:	685b      	ldr	r3, [r3, #4]
 8001524:	f023 52f8 	bic.w	r2, r3, #520093696	@ 0x1f000000
 8001528:	687b      	ldr	r3, [r7, #4]
 800152a:	691b      	ldr	r3, [r3, #16]
 800152c:	061b      	lsls	r3, r3, #24
 800152e:	4973      	ldr	r1, [pc, #460]	@ (80016fc <HAL_RCC_OscConfig+0x504>)
 8001530:	4313      	orrs	r3, r2
 8001532:	604b      	str	r3, [r1, #4]
      if((READ_BIT(RCC->CR, RCC_CR_HSIRDY) != 0U) && (RCC_OscInitStruct->HSIState == RCC_HSI_OFF))
 8001534:	e040      	b.n	80015b8 <HAL_RCC_OscConfig+0x3c0>
      }
    }
    else
    {
      /* Check the HSI State */
      if(RCC_OscInitStruct->HSIState != RCC_HSI_OFF)
 8001536:	687b      	ldr	r3, [r7, #4]
 8001538:	68db      	ldr	r3, [r3, #12]
 800153a:	2b00      	cmp	r3, #0
 800153c:	d023      	beq.n	8001586 <HAL_RCC_OscConfig+0x38e>
      {
        /* Enable the Internal High Speed oscillator (HSI). */
        __HAL_RCC_HSI_ENABLE();
 800153e:	4b6f      	ldr	r3, [pc, #444]	@ (80016fc <HAL_RCC_OscConfig+0x504>)
 8001540:	681b      	ldr	r3, [r3, #0]
 8001542:	4a6e      	ldr	r2, [pc, #440]	@ (80016fc <HAL_RCC_OscConfig+0x504>)
 8001544:	f443 7380 	orr.w	r3, r3, #256	@ 0x100
 8001548:	6013      	str	r3, [r2, #0]

        /* Get Start Tick*/
        tickstart = HAL_GetTick();
 800154a:	f7ff fb3d 	bl	8000bc8 <HAL_GetTick>
 800154e:	6138      	str	r0, [r7, #16]

        /* Wait till HSI is ready */
        while(READ_BIT(RCC->CR, RCC_CR_HSIRDY) == 0U)
 8001550:	e008      	b.n	8001564 <HAL_RCC_OscConfig+0x36c>
        {
          if((HAL_GetTick() - tickstart) > HSI_TIMEOUT_VALUE)
 8001552:	f7ff fb39 	bl	8000bc8 <HAL_GetTick>
 8001556:	4602      	mov	r2, r0
 8001558:	693b      	ldr	r3, [r7, #16]
 800155a:	1ad3      	subs	r3, r2, r3
 800155c:	2b02      	cmp	r3, #2
 800155e:	d901      	bls.n	8001564 <HAL_RCC_OscConfig+0x36c>
          {
            return HAL_TIMEOUT;
 8001560:	2303      	movs	r3, #3
 8001562:	e21d      	b.n	80019a0 <HAL_RCC_OscConfig+0x7a8>
        while(READ_BIT(RCC->CR, RCC_CR_HSIRDY) == 0U)
 8001564:	4b65      	ldr	r3, [pc, #404]	@ (80016fc <HAL_RCC_OscConfig+0x504>)
 8001566:	681b      	ldr	r3, [r3, #0]
 8001568:	f403 6380 	and.w	r3, r3, #1024	@ 0x400
 800156c:	2b00      	cmp	r3, #0
 800156e:	d0f0      	beq.n	8001552 <HAL_RCC_OscConfig+0x35a>
          }
        }

        /* Adjusts the Internal High Speed oscillator (HSI) calibration value.*/
        __HAL_RCC_HSI_CALIBRATIONVALUE_ADJUST(RCC_OscInitStruct->HSICalibrationValue);
 8001570:	4b62      	ldr	r3, [pc, #392]	@ (80016fc <HAL_RCC_OscConfig+0x504>)
 8001572:	685b      	ldr	r3, [r3, #4]
 8001574:	f023 52f8 	bic.w	r2, r3, #520093696	@ 0x1f000000
 8001578:	687b      	ldr	r3, [r7, #4]
 800157a:	691b      	ldr	r3, [r3, #16]
 800157c:	061b      	lsls	r3, r3, #24
 800157e:	495f      	ldr	r1, [pc, #380]	@ (80016fc <HAL_RCC_OscConfig+0x504>)
 8001580:	4313      	orrs	r3, r2
 8001582:	604b      	str	r3, [r1, #4]
 8001584:	e018      	b.n	80015b8 <HAL_RCC_OscConfig+0x3c0>
      }
      else
      {
        /* Disable the Internal High Speed oscillator (HSI). */
        __HAL_RCC_HSI_DISABLE();
 8001586:	4b5d      	ldr	r3, [pc, #372]	@ (80016fc <HAL_RCC_OscConfig+0x504>)
 8001588:	681b      	ldr	r3, [r3, #0]
 800158a:	4a5c      	ldr	r2, [pc, #368]	@ (80016fc <HAL_RCC_OscConfig+0x504>)
 800158c:	f423 7380 	bic.w	r3, r3, #256	@ 0x100
 8001590:	6013      	str	r3, [r2, #0]

        /* Get Start Tick*/
        tickstart = HAL_GetTick();
 8001592:	f7ff fb19 	bl	8000bc8 <HAL_GetTick>
 8001596:	6138      	str	r0, [r7, #16]

        /* Wait till HSI is disabled */
        while(READ_BIT(RCC->CR, RCC_CR_HSIRDY) != 0U)
 8001598:	e008      	b.n	80015ac <HAL_RCC_OscConfig+0x3b4>
        {
          if((HAL_GetTick() - tickstart) > HSI_TIMEOUT_VALUE)
 800159a:	f7ff fb15 	bl	8000bc8 <HAL_GetTick>
 800159e:	4602      	mov	r2, r0
 80015a0:	693b      	ldr	r3, [r7, #16]
 80015a2:	1ad3      	subs	r3, r2, r3
 80015a4:	2b02      	cmp	r3, #2
 80015a6:	d901      	bls.n	80015ac <HAL_RCC_OscConfig+0x3b4>
          {
            return HAL_TIMEOUT;
 80015a8:	2303      	movs	r3, #3
 80015aa:	e1f9      	b.n	80019a0 <HAL_RCC_OscConfig+0x7a8>
        while(READ_BIT(RCC->CR, RCC_CR_HSIRDY) != 0U)
 80015ac:	4b53      	ldr	r3, [pc, #332]	@ (80016fc <HAL_RCC_OscConfig+0x504>)
 80015ae:	681b      	ldr	r3, [r3, #0]
 80015b0:	f403 6380 	and.w	r3, r3, #1024	@ 0x400
 80015b4:	2b00      	cmp	r3, #0
 80015b6:	d1f0      	bne.n	800159a <HAL_RCC_OscConfig+0x3a2>
        }
      }
    }
  }
  /*------------------------------ LSI Configuration -------------------------*/
  if(((RCC_OscInitStruct->OscillatorType) & RCC_OSCILLATORTYPE_LSI) == RCC_OSCILLATORTYPE_LSI)
 80015b8:	687b      	ldr	r3, [r7, #4]
 80015ba:	681b      	ldr	r3, [r3, #0]
 80015bc:	f003 0308 	and.w	r3, r3, #8
 80015c0:	2b00      	cmp	r3, #0
 80015c2:	d03c      	beq.n	800163e <HAL_RCC_OscConfig+0x446>
  {
    /* Check the parameters */
    assert_param(IS_RCC_LSI(RCC_OscInitStruct->LSIState));

    /* Check the LSI State */
    if(RCC_OscInitStruct->LSIState != RCC_LSI_OFF)
 80015c4:	687b      	ldr	r3, [r7, #4]
 80015c6:	695b      	ldr	r3, [r3, #20]
 80015c8:	2b00      	cmp	r3, #0
 80015ca:	d01c      	beq.n	8001606 <HAL_RCC_OscConfig+0x40e>
        MODIFY_REG(RCC->CSR, RCC_CSR_LSIPREDIV, RCC_OscInitStruct->LSIDiv);
      }
#endif /* RCC_CSR_LSIPREDIV */

      /* Enable the Internal Low Speed oscillator (LSI). */
      __HAL_RCC_LSI_ENABLE();
 80015cc:	4b4b      	ldr	r3, [pc, #300]	@ (80016fc <HAL_RCC_OscConfig+0x504>)
 80015ce:	f8d3 3094 	ldr.w	r3, [r3, #148]	@ 0x94
 80015d2:	4a4a      	ldr	r2, [pc, #296]	@ (80016fc <HAL_RCC_OscConfig+0x504>)
 80015d4:	f043 0301 	orr.w	r3, r3, #1
 80015d8:	f8c2 3094 	str.w	r3, [r2, #148]	@ 0x94

      /* Get Start Tick*/
      tickstart = HAL_GetTick();
 80015dc:	f7ff faf4 	bl	8000bc8 <HAL_GetTick>
 80015e0:	6138      	str	r0, [r7, #16]

      /* Wait till LSI is ready */
      while(READ_BIT(RCC->CSR, RCC_CSR_LSIRDY) == 0U)
 80015e2:	e008      	b.n	80015f6 <HAL_RCC_OscConfig+0x3fe>
      {
        if((HAL_GetTick() - tickstart) > LSI_TIMEOUT_VALUE)
 80015e4:	f7ff faf0 	bl	8000bc8 <HAL_GetTick>
 80015e8:	4602      	mov	r2, r0
 80015ea:	693b      	ldr	r3, [r7, #16]
 80015ec:	1ad3      	subs	r3, r2, r3
 80015ee:	2b02      	cmp	r3, #2
 80015f0:	d901      	bls.n	80015f6 <HAL_RCC_OscConfig+0x3fe>
        {
          return HAL_TIMEOUT;
 80015f2:	2303      	movs	r3, #3
 80015f4:	e1d4      	b.n	80019a0 <HAL_RCC_OscConfig+0x7a8>
      while(READ_BIT(RCC->CSR, RCC_CSR_LSIRDY) == 0U)
 80015f6:	4b41      	ldr	r3, [pc, #260]	@ (80016fc <HAL_RCC_OscConfig+0x504>)
 80015f8:	f8d3 3094 	ldr.w	r3, [r3, #148]	@ 0x94
 80015fc:	f003 0302 	and.w	r3, r3, #2
 8001600:	2b00      	cmp	r3, #0
 8001602:	d0ef      	beq.n	80015e4 <HAL_RCC_OscConfig+0x3ec>
 8001604:	e01b      	b.n	800163e <HAL_RCC_OscConfig+0x446>
      }
    }
    else
    {
      /* Disable the Internal Low Speed oscillator (LSI). */
      __HAL_RCC_LSI_DISABLE();
 8001606:	4b3d      	ldr	r3, [pc, #244]	@ (80016fc <HAL_RCC_OscConfig+0x504>)
 8001608:	f8d3 3094 	ldr.w	r3, [r3, #148]	@ 0x94
 800160c:	4a3b      	ldr	r2, [pc, #236]	@ (80016fc <HAL_RCC_OscConfig+0x504>)
 800160e:	f023 0301 	bic.w	r3, r3, #1
 8001612:	f8c2 3094 	str.w	r3, [r2, #148]	@ 0x94

      /* Get Start Tick*/
      tickstart = HAL_GetTick();
 8001616:	f7ff fad7 	bl	8000bc8 <HAL_GetTick>
 800161a:	6138      	str	r0, [r7, #16]

      /* Wait till LSI is disabled */
      while(READ_BIT(RCC->CSR, RCC_CSR_LSIRDY) != 0U)
 800161c:	e008      	b.n	8001630 <HAL_RCC_OscConfig+0x438>
      {
        if((HAL_GetTick() - tickstart) > LSI_TIMEOUT_VALUE)
 800161e:	f7ff fad3 	bl	8000bc8 <HAL_GetTick>
 8001622:	4602      	mov	r2, r0
 8001624:	693b      	ldr	r3, [r7, #16]
 8001626:	1ad3      	subs	r3, r2, r3
 8001628:	2b02      	cmp	r3, #2
 800162a:	d901      	bls.n	8001630 <HAL_RCC_OscConfig+0x438>
        {
          return HAL_TIMEOUT;
 800162c:	2303      	movs	r3, #3
 800162e:	e1b7      	b.n	80019a0 <HAL_RCC_OscConfig+0x7a8>
      while(READ_BIT(RCC->CSR, RCC_CSR_LSIRDY) != 0U)
 8001630:	4b32      	ldr	r3, [pc, #200]	@ (80016fc <HAL_RCC_OscConfig+0x504>)
 8001632:	f8d3 3094 	ldr.w	r3, [r3, #148]	@ 0x94
 8001636:	f003 0302 	and.w	r3, r3, #2
 800163a:	2b00      	cmp	r3, #0
 800163c:	d1ef      	bne.n	800161e <HAL_RCC_OscConfig+0x426>
        }
      }
    }
  }
  /*------------------------------ LSE Configuration -------------------------*/
  if(((RCC_OscInitStruct->OscillatorType) & RCC_OSCILLATORTYPE_LSE) == RCC_OSCILLATORTYPE_LSE)
 800163e:	687b      	ldr	r3, [r7, #4]
 8001640:	681b      	ldr	r3, [r3, #0]
 8001642:	f003 0304 	and.w	r3, r3, #4
 8001646:	2b00      	cmp	r3, #0
 8001648:	f000 80a6 	beq.w	8001798 <HAL_RCC_OscConfig+0x5a0>
  {
    FlagStatus       pwrclkchanged = RESET;
 800164c:	2300      	movs	r3, #0
 800164e:	77fb      	strb	r3, [r7, #31]
    /* Check the parameters */
    assert_param(IS_RCC_LSE(RCC_OscInitStruct->LSEState));

    /* Update LSE configuration in Backup Domain control register    */
    /* Requires to enable write access to Backup Domain of necessary */
    if(HAL_IS_BIT_CLR(RCC->APB1ENR1, RCC_APB1ENR1_PWREN))
 8001650:	4b2a      	ldr	r3, [pc, #168]	@ (80016fc <HAL_RCC_OscConfig+0x504>)
 8001652:	6d9b      	ldr	r3, [r3, #88]	@ 0x58
 8001654:	f003 5380 	and.w	r3, r3, #268435456	@ 0x10000000
 8001658:	2b00      	cmp	r3, #0
 800165a:	d10d      	bne.n	8001678 <HAL_RCC_OscConfig+0x480>
    {
      __HAL_RCC_PWR_CLK_ENABLE();
 800165c:	4b27      	ldr	r3, [pc, #156]	@ (80016fc <HAL_RCC_OscConfig+0x504>)
 800165e:	6d9b      	ldr	r3, [r3, #88]	@ 0x58
 8001660:	4a26      	ldr	r2, [pc, #152]	@ (80016fc <HAL_RCC_OscConfig+0x504>)
 8001662:	f043 5380 	orr.w	r3, r3, #268435456	@ 0x10000000
 8001666:	6593      	str	r3, [r2, #88]	@ 0x58
 8001668:	4b24      	ldr	r3, [pc, #144]	@ (80016fc <HAL_RCC_OscConfig+0x504>)
 800166a:	6d9b      	ldr	r3, [r3, #88]	@ 0x58
 800166c:	f003 5380 	and.w	r3, r3, #268435456	@ 0x10000000
 8001670:	60bb      	str	r3, [r7, #8]
 8001672:	68bb      	ldr	r3, [r7, #8]
      pwrclkchanged = SET;
 8001674:	2301      	movs	r3, #1
 8001676:	77fb      	strb	r3, [r7, #31]
    }

    if(HAL_IS_BIT_CLR(PWR->CR1, PWR_CR1_DBP))
 8001678:	4b21      	ldr	r3, [pc, #132]	@ (8001700 <HAL_RCC_OscConfig+0x508>)
 800167a:	681b      	ldr	r3, [r3, #0]
 800167c:	f403 7380 	and.w	r3, r3, #256	@ 0x100
 8001680:	2b00      	cmp	r3, #0
 8001682:	d118      	bne.n	80016b6 <HAL_RCC_OscConfig+0x4be>
    {
      /* Enable write access to Backup domain */
      SET_BIT(PWR->CR1, PWR_CR1_DBP);
 8001684:	4b1e      	ldr	r3, [pc, #120]	@ (8001700 <HAL_RCC_OscConfig+0x508>)
 8001686:	681b      	ldr	r3, [r3, #0]
 8001688:	4a1d      	ldr	r2, [pc, #116]	@ (8001700 <HAL_RCC_OscConfig+0x508>)
 800168a:	f443 7380 	orr.w	r3, r3, #256	@ 0x100
 800168e:	6013      	str	r3, [r2, #0]

      /* Wait for Backup domain Write protection disable */
      tickstart = HAL_GetTick();
 8001690:	f7ff fa9a 	bl	8000bc8 <HAL_GetTick>
 8001694:	6138      	str	r0, [r7, #16]

      while(HAL_IS_BIT_CLR(PWR->CR1, PWR_CR1_DBP))
 8001696:	e008      	b.n	80016aa <HAL_RCC_OscConfig+0x4b2>
      {
        if((HAL_GetTick() - tickstart) > RCC_DBP_TIMEOUT_VALUE)
 8001698:	f7ff fa96 	bl	8000bc8 <HAL_GetTick>
 800169c:	4602      	mov	r2, r0
 800169e:	693b      	ldr	r3, [r7, #16]
 80016a0:	1ad3      	subs	r3, r2, r3
 80016a2:	2b02      	cmp	r3, #2
 80016a4:	d901      	bls.n	80016aa <HAL_RCC_OscConfig+0x4b2>
        {
          return HAL_TIMEOUT;
 80016a6:	2303      	movs	r3, #3
 80016a8:	e17a      	b.n	80019a0 <HAL_RCC_OscConfig+0x7a8>
      while(HAL_IS_BIT_CLR(PWR->CR1, PWR_CR1_DBP))
 80016aa:	4b15      	ldr	r3, [pc, #84]	@ (8001700 <HAL_RCC_OscConfig+0x508>)
 80016ac:	681b      	ldr	r3, [r3, #0]
 80016ae:	f403 7380 	and.w	r3, r3, #256	@ 0x100
 80016b2:	2b00      	cmp	r3, #0
 80016b4:	d0f0      	beq.n	8001698 <HAL_RCC_OscConfig+0x4a0>
    {
      CLEAR_BIT(RCC->BDCR, RCC_BDCR_LSEON);
      CLEAR_BIT(RCC->BDCR, RCC_BDCR_LSEBYP);
    }
#else
    __HAL_RCC_LSE_CONFIG(RCC_OscInitStruct->LSEState);
 80016b6:	687b      	ldr	r3, [r7, #4]
 80016b8:	689b      	ldr	r3, [r3, #8]
 80016ba:	2b01      	cmp	r3, #1
 80016bc:	d108      	bne.n	80016d0 <HAL_RCC_OscConfig+0x4d8>
 80016be:	4b0f      	ldr	r3, [pc, #60]	@ (80016fc <HAL_RCC_OscConfig+0x504>)
 80016c0:	f8d3 3090 	ldr.w	r3, [r3, #144]	@ 0x90
 80016c4:	4a0d      	ldr	r2, [pc, #52]	@ (80016fc <HAL_RCC_OscConfig+0x504>)
 80016c6:	f043 0301 	orr.w	r3, r3, #1
 80016ca:	f8c2 3090 	str.w	r3, [r2, #144]	@ 0x90
 80016ce:	e029      	b.n	8001724 <HAL_RCC_OscConfig+0x52c>
 80016d0:	687b      	ldr	r3, [r7, #4]
 80016d2:	689b      	ldr	r3, [r3, #8]
 80016d4:	2b05      	cmp	r3, #5
 80016d6:	d115      	bne.n	8001704 <HAL_RCC_OscConfig+0x50c>
 80016d8:	4b08      	ldr	r3, [pc, #32]	@ (80016fc <HAL_RCC_OscConfig+0x504>)
 80016da:	f8d3 3090 	ldr.w	r3, [r3, #144]	@ 0x90
 80016de:	4a07      	ldr	r2, [pc, #28]	@ (80016fc <HAL_RCC_OscConfig+0x504>)
 80016e0:	f043 0304 	orr.w	r3, r3, #4
 80016e4:	f8c2 3090 	str.w	r3, [r2, #144]	@ 0x90
 80016e8:	4b04      	ldr	r3, [pc, #16]	@ (80016fc <HAL_RCC_OscConfig+0x504>)
 80016ea:	f8d3 3090 	ldr.w	r3, [r3, #144]	@ 0x90
 80016ee:	4a03      	ldr	r2, [pc, #12]	@ (80016fc <HAL_RCC_OscConfig+0x504>)
 80016f0:	f043 0301 	orr.w	r3, r3, #1
 80016f4:	f8c2 3090 	str.w	r3, [r2, #144]	@ 0x90
 80016f8:	e014      	b.n	8001724 <HAL_RCC_OscConfig+0x52c>
 80016fa:	bf00      	nop
 80016fc:	40021000 	.word	0x40021000
 8001700:	40007000 	.word	0x40007000
 8001704:	4b9c      	ldr	r3, [pc, #624]	@ (8001978 <HAL_RCC_OscConfig+0x780>)
 8001706:	f8d3 3090 	ldr.w	r3, [r3, #144]	@ 0x90
 800170a:	4a9b      	ldr	r2, [pc, #620]	@ (8001978 <HAL_RCC_OscConfig+0x780>)
 800170c:	f023 0301 	bic.w	r3, r3, #1
 8001710:	f8c2 3090 	str.w	r3, [r2, #144]	@ 0x90
 8001714:	4b98      	ldr	r3, [pc, #608]	@ (8001978 <HAL_RCC_OscConfig+0x780>)
 8001716:	f8d3 3090 	ldr.w	r3, [r3, #144]	@ 0x90
 800171a:	4a97      	ldr	r2, [pc, #604]	@ (8001978 <HAL_RCC_OscConfig+0x780>)
 800171c:	f023 0304 	bic.w	r3, r3, #4
 8001720:	f8c2 3090 	str.w	r3, [r2, #144]	@ 0x90
#endif /* RCC_BDCR_LSESYSDIS */

    /* Check the LSE State */
    if(RCC_OscInitStruct->LSEState != RCC_LSE_OFF)
 8001724:	687b      	ldr	r3, [r7, #4]
 8001726:	689b      	ldr	r3, [r3, #8]
 8001728:	2b00      	cmp	r3, #0
 800172a:	d016      	beq.n	800175a <HAL_RCC_OscConfig+0x562>
    {
      /* Get Start Tick*/
      tickstart = HAL_GetTick();
 800172c:	f7ff fa4c 	bl	8000bc8 <HAL_GetTick>
 8001730:	6138      	str	r0, [r7, #16]

      /* Wait till LSE is ready */
      while(READ_BIT(RCC->BDCR, RCC_BDCR_LSERDY) == 0U)
 8001732:	e00a      	b.n	800174a <HAL_RCC_OscConfig+0x552>
      {
        if((HAL_GetTick() - tickstart) > RCC_LSE_TIMEOUT_VALUE)
 8001734:	f7ff fa48 	bl	8000bc8 <HAL_GetTick>
 8001738:	4602      	mov	r2, r0
 800173a:	693b      	ldr	r3, [r7, #16]
 800173c:	1ad3      	subs	r3, r2, r3
 800173e:	f241 3288 	movw	r2, #5000	@ 0x1388
 8001742:	4293      	cmp	r3, r2
 8001744:	d901      	bls.n	800174a <HAL_RCC_OscConfig+0x552>
        {
          return HAL_TIMEOUT;
 8001746:	2303      	movs	r3, #3
 8001748:	e12a      	b.n	80019a0 <HAL_RCC_OscConfig+0x7a8>
      while(READ_BIT(RCC->BDCR, RCC_BDCR_LSERDY) == 0U)
 800174a:	4b8b      	ldr	r3, [pc, #556]	@ (8001978 <HAL_RCC_OscConfig+0x780>)
 800174c:	f8d3 3090 	ldr.w	r3, [r3, #144]	@ 0x90
 8001750:	f003 0302 	and.w	r3, r3, #2
 8001754:	2b00      	cmp	r3, #0
 8001756:	d0ed      	beq.n	8001734 <HAL_RCC_OscConfig+0x53c>
 8001758:	e015      	b.n	8001786 <HAL_RCC_OscConfig+0x58e>
      }
    }
    else
    {
      /* Get Start Tick*/
      tickstart = HAL_GetTick();
 800175a:	f7ff fa35 	bl	8000bc8 <HAL_GetTick>
 800175e:	6138      	str	r0, [r7, #16]

      /* Wait till LSE is disabled */
      while(READ_BIT(RCC->BDCR, RCC_BDCR_LSERDY) != 0U)
 8001760:	e00a      	b.n	8001778 <HAL_RCC_OscConfig+0x580>
      {
        if((HAL_GetTick() - tickstart) > RCC_LSE_TIMEOUT_VALUE)
 8001762:	f7ff fa31 	bl	8000bc8 <HAL_GetTick>
 8001766:	4602      	mov	r2, r0
 8001768:	693b      	ldr	r3, [r7, #16]
 800176a:	1ad3      	subs	r3, r2, r3
 800176c:	f241 3288 	movw	r2, #5000	@ 0x1388
 8001770:	4293      	cmp	r3, r2
 8001772:	d901      	bls.n	8001778 <HAL_RCC_OscConfig+0x580>
        {
          return HAL_TIMEOUT;
 8001774:	2303      	movs	r3, #3
 8001776:	e113      	b.n	80019a0 <HAL_RCC_OscConfig+0x7a8>
      while(READ_BIT(RCC->BDCR, RCC_BDCR_LSERDY) != 0U)
 8001778:	4b7f      	ldr	r3, [pc, #508]	@ (8001978 <HAL_RCC_OscConfig+0x780>)
 800177a:	f8d3 3090 	ldr.w	r3, [r3, #144]	@ 0x90
 800177e:	f003 0302 	and.w	r3, r3, #2
 8001782:	2b00      	cmp	r3, #0
 8001784:	d1ed      	bne.n	8001762 <HAL_RCC_OscConfig+0x56a>
      CLEAR_BIT(RCC->BDCR, RCC_BDCR_LSESYSDIS);
#endif /* RCC_BDCR_LSESYSDIS */
    }

    /* Restore clock configuration if changed */
    if(pwrclkchanged == SET)
 8001786:	7ffb      	ldrb	r3, [r7, #31]
 8001788:	2b01      	cmp	r3, #1
 800178a:	d105      	bne.n	8001798 <HAL_RCC_OscConfig+0x5a0>
    {
      __HAL_RCC_PWR_CLK_DISABLE();
 800178c:	4b7a      	ldr	r3, [pc, #488]	@ (8001978 <HAL_RCC_OscConfig+0x780>)
 800178e:	6d9b      	ldr	r3, [r3, #88]	@ 0x58
 8001790:	4a79      	ldr	r2, [pc, #484]	@ (8001978 <HAL_RCC_OscConfig+0x780>)
 8001792:	f023 5380 	bic.w	r3, r3, #268435456	@ 0x10000000
 8001796:	6593      	str	r3, [r2, #88]	@ 0x58
#endif /* RCC_HSI48_SUPPORT */
  /*-------------------------------- PLL Configuration -----------------------*/
  /* Check the parameters */
  assert_param(IS_RCC_PLL(RCC_OscInitStruct->PLL.PLLState));

  if(RCC_OscInitStruct->PLL.PLLState != RCC_PLL_NONE)
 8001798:	687b      	ldr	r3, [r7, #4]
 800179a:	6a9b      	ldr	r3, [r3, #40]	@ 0x28
 800179c:	2b00      	cmp	r3, #0
 800179e:	f000 80fe 	beq.w	800199e <HAL_RCC_OscConfig+0x7a6>
  {
    /* PLL On ? */
    if(RCC_OscInitStruct->PLL.PLLState == RCC_PLL_ON)
 80017a2:	687b      	ldr	r3, [r7, #4]
 80017a4:	6a9b      	ldr	r3, [r3, #40]	@ 0x28
 80017a6:	2b02      	cmp	r3, #2
 80017a8:	f040 80d0 	bne.w	800194c <HAL_RCC_OscConfig+0x754>
#endif /* RCC_PLLP_SUPPORT */
      assert_param(IS_RCC_PLLQ_VALUE(RCC_OscInitStruct->PLL.PLLQ));
      assert_param(IS_RCC_PLLR_VALUE(RCC_OscInitStruct->PLL.PLLR));

      /* Do nothing if PLL configuration is the unchanged */
      pll_config = RCC->PLLCFGR;
 80017ac:	4b72      	ldr	r3, [pc, #456]	@ (8001978 <HAL_RCC_OscConfig+0x780>)
 80017ae:	68db      	ldr	r3, [r3, #12]
 80017b0:	617b      	str	r3, [r7, #20]
      if((READ_BIT(pll_config, RCC_PLLCFGR_PLLSRC)  != RCC_OscInitStruct->PLL.PLLSource) ||
 80017b2:	697b      	ldr	r3, [r7, #20]
 80017b4:	f003 0203 	and.w	r2, r3, #3
 80017b8:	687b      	ldr	r3, [r7, #4]
 80017ba:	6adb      	ldr	r3, [r3, #44]	@ 0x2c
 80017bc:	429a      	cmp	r2, r3
 80017be:	d130      	bne.n	8001822 <HAL_RCC_OscConfig+0x62a>
         (READ_BIT(pll_config, RCC_PLLCFGR_PLLM)    != ((RCC_OscInitStruct->PLL.PLLM - 1U) << RCC_PLLCFGR_PLLM_Pos)) ||
 80017c0:	697b      	ldr	r3, [r7, #20]
 80017c2:	f003 0270 	and.w	r2, r3, #112	@ 0x70
 80017c6:	687b      	ldr	r3, [r7, #4]
 80017c8:	6b1b      	ldr	r3, [r3, #48]	@ 0x30
 80017ca:	3b01      	subs	r3, #1
 80017cc:	011b      	lsls	r3, r3, #4
      if((READ_BIT(pll_config, RCC_PLLCFGR_PLLSRC)  != RCC_OscInitStruct->PLL.PLLSource) ||
 80017ce:	429a      	cmp	r2, r3
 80017d0:	d127      	bne.n	8001822 <HAL_RCC_OscConfig+0x62a>
         (READ_BIT(pll_config, RCC_PLLCFGR_PLLN)    != (RCC_OscInitStruct->PLL.PLLN << RCC_PLLCFGR_PLLN_Pos)) ||
 80017d2:	697b      	ldr	r3, [r7, #20]
 80017d4:	f403 42fe 	and.w	r2, r3, #32512	@ 0x7f00
 80017d8:	687b      	ldr	r3, [r7, #4]
 80017da:	6b5b      	ldr	r3, [r3, #52]	@ 0x34
 80017dc:	021b      	lsls	r3, r3, #8
         (READ_BIT(pll_config, RCC_PLLCFGR_PLLM)    != ((RCC_OscInitStruct->PLL.PLLM - 1U) << RCC_PLLCFGR_PLLM_Pos)) ||
 80017de:	429a      	cmp	r2, r3
 80017e0:	d11f      	bne.n	8001822 <HAL_RCC_OscConfig+0x62a>
#if defined(RCC_PLLP_SUPPORT)
#if defined(RCC_PLLP_DIV_2_31_SUPPORT)
         (READ_BIT(pll_config, RCC_PLLCFGR_PLLPDIV) != (RCC_OscInitStruct->PLL.PLLP << RCC_PLLCFGR_PLLPDIV_Pos)) ||
#else
         (READ_BIT(pll_config, RCC_PLLCFGR_PLLP)    != ((RCC_OscInitStruct->PLL.PLLP == RCC_PLLP_DIV7) ? 0U : 1U)) ||
 80017e2:	697b      	ldr	r3, [r7, #20]
 80017e4:	f403 3300 	and.w	r3, r3, #131072	@ 0x20000
 80017e8:	687a      	ldr	r2, [r7, #4]
 80017ea:	6b92      	ldr	r2, [r2, #56]	@ 0x38
 80017ec:	2a07      	cmp	r2, #7
 80017ee:	bf14      	ite	ne
 80017f0:	2201      	movne	r2, #1
 80017f2:	2200      	moveq	r2, #0
 80017f4:	b2d2      	uxtb	r2, r2
         (READ_BIT(pll_config, RCC_PLLCFGR_PLLN)    != (RCC_OscInitStruct->PLL.PLLN << RCC_PLLCFGR_PLLN_Pos)) ||
 80017f6:	4293      	cmp	r3, r2
 80017f8:	d113      	bne.n	8001822 <HAL_RCC_OscConfig+0x62a>
#endif
#endif
         (READ_BIT(pll_config, RCC_PLLCFGR_PLLQ)    != ((((RCC_OscInitStruct->PLL.PLLQ) >> 1U) - 1U) << RCC_PLLCFGR_PLLQ_Pos)) ||
 80017fa:	697b      	ldr	r3, [r7, #20]
 80017fc:	f403 02c0 	and.w	r2, r3, #6291456	@ 0x600000
 8001800:	687b      	ldr	r3, [r7, #4]
 8001802:	6bdb      	ldr	r3, [r3, #60]	@ 0x3c
 8001804:	085b      	lsrs	r3, r3, #1
 8001806:	3b01      	subs	r3, #1
 8001808:	055b      	lsls	r3, r3, #21
         (READ_BIT(pll_config, RCC_PLLCFGR_PLLP)    != ((RCC_OscInitStruct->PLL.PLLP == RCC_PLLP_DIV7) ? 0U : 1U)) ||
 800180a:	429a      	cmp	r2, r3
 800180c:	d109      	bne.n	8001822 <HAL_RCC_OscConfig+0x62a>
         (READ_BIT(pll_config, RCC_PLLCFGR_PLLR)    != ((((RCC_OscInitStruct->PLL.PLLR) >> 1U) - 1U) << RCC_PLLCFGR_PLLR_Pos)))
 800180e:	697b      	ldr	r3, [r7, #20]
 8001810:	f003 62c0 	and.w	r2, r3, #100663296	@ 0x6000000
 8001814:	687b      	ldr	r3, [r7, #4]
 8001816:	6c1b      	ldr	r3, [r3, #64]	@ 0x40
 8001818:	085b      	lsrs	r3, r3, #1
 800181a:	3b01      	subs	r3, #1
 800181c:	065b      	lsls	r3, r3, #25
         (READ_BIT(pll_config, RCC_PLLCFGR_PLLQ)    != ((((RCC_OscInitStruct->PLL.PLLQ) >> 1U) - 1U) << RCC_PLLCFGR_PLLQ_Pos)) ||
 800181e:	429a      	cmp	r2, r3
 8001820:	d06e      	beq.n	8001900 <HAL_RCC_OscConfig+0x708>
      {
        /* Check if the PLL is used as system clock or not */
        if(sysclk_source != RCC_CFGR_SWS_PLL)
 8001822:	69bb      	ldr	r3, [r7, #24]
 8001824:	2b0c      	cmp	r3, #12
 8001826:	d069      	beq.n	80018fc <HAL_RCC_OscConfig+0x704>
        {
#if defined(RCC_PLLSAI1_SUPPORT) || defined(RCC_PLLSAI2_SUPPORT)
          /* Check if main PLL can be updated */
          /* Not possible if the source is shared by other enabled PLLSAIx */
          if((READ_BIT(RCC->CR, RCC_CR_PLLSAI1ON) != 0U)
 8001828:	4b53      	ldr	r3, [pc, #332]	@ (8001978 <HAL_RCC_OscConfig+0x780>)
 800182a:	681b      	ldr	r3, [r3, #0]
 800182c:	f003 6380 	and.w	r3, r3, #67108864	@ 0x4000000
 8001830:	2b00      	cmp	r3, #0
 8001832:	d105      	bne.n	8001840 <HAL_RCC_OscConfig+0x648>
#if defined(RCC_PLLSAI2_SUPPORT)
             || (READ_BIT(RCC->CR, RCC_CR_PLLSAI2ON) != 0U)
 8001834:	4b50      	ldr	r3, [pc, #320]	@ (8001978 <HAL_RCC_OscConfig+0x780>)
 8001836:	681b      	ldr	r3, [r3, #0]
 8001838:	f003 5380 	and.w	r3, r3, #268435456	@ 0x10000000
 800183c:	2b00      	cmp	r3, #0
 800183e:	d001      	beq.n	8001844 <HAL_RCC_OscConfig+0x64c>
#endif
            )
          {
            return HAL_ERROR;
 8001840:	2301      	movs	r3, #1
 8001842:	e0ad      	b.n	80019a0 <HAL_RCC_OscConfig+0x7a8>
          }
          else
#endif /* RCC_PLLSAI1_SUPPORT || RCC_PLLSAI2_SUPPORT */
          {
            /* Disable the main PLL. */
            __HAL_RCC_PLL_DISABLE();
 8001844:	4b4c      	ldr	r3, [pc, #304]	@ (8001978 <HAL_RCC_OscConfig+0x780>)
 8001846:	681b      	ldr	r3, [r3, #0]
 8001848:	4a4b      	ldr	r2, [pc, #300]	@ (8001978 <HAL_RCC_OscConfig+0x780>)
 800184a:	f023 7380 	bic.w	r3, r3, #16777216	@ 0x1000000
 800184e:	6013      	str	r3, [r2, #0]

            /* Get Start Tick*/
            tickstart = HAL_GetTick();
 8001850:	f7ff f9ba 	bl	8000bc8 <HAL_GetTick>
 8001854:	6138      	str	r0, [r7, #16]

            /* Wait till PLL is ready */
            while(READ_BIT(RCC->CR, RCC_CR_PLLRDY) != 0U)
 8001856:	e008      	b.n	800186a <HAL_RCC_OscConfig+0x672>
            {
              if((HAL_GetTick() - tickstart) > PLL_TIMEOUT_VALUE)
 8001858:	f7ff f9b6 	bl	8000bc8 <HAL_GetTick>
 800185c:	4602      	mov	r2, r0
 800185e:	693b      	ldr	r3, [r7, #16]
 8001860:	1ad3      	subs	r3, r2, r3
 8001862:	2b02      	cmp	r3, #2
 8001864:	d901      	bls.n	800186a <HAL_RCC_OscConfig+0x672>
              {
                return HAL_TIMEOUT;
 8001866:	2303      	movs	r3, #3
 8001868:	e09a      	b.n	80019a0 <HAL_RCC_OscConfig+0x7a8>
            while(READ_BIT(RCC->CR, RCC_CR_PLLRDY) != 0U)
 800186a:	4b43      	ldr	r3, [pc, #268]	@ (8001978 <HAL_RCC_OscConfig+0x780>)
 800186c:	681b      	ldr	r3, [r3, #0]
 800186e:	f003 7300 	and.w	r3, r3, #33554432	@ 0x2000000
 8001872:	2b00      	cmp	r3, #0
 8001874:	d1f0      	bne.n	8001858 <HAL_RCC_OscConfig+0x660>
              }
            }

            /* Configure the main PLL clock source, multiplication and division factors. */
#if defined(RCC_PLLP_SUPPORT)
            __HAL_RCC_PLL_CONFIG(RCC_OscInitStruct->PLL.PLLSource,
 8001876:	4b40      	ldr	r3, [pc, #256]	@ (8001978 <HAL_RCC_OscConfig+0x780>)
 8001878:	68da      	ldr	r2, [r3, #12]
 800187a:	4b40      	ldr	r3, [pc, #256]	@ (800197c <HAL_RCC_OscConfig+0x784>)
 800187c:	4013      	ands	r3, r2
 800187e:	687a      	ldr	r2, [r7, #4]
 8001880:	6ad1      	ldr	r1, [r2, #44]	@ 0x2c
 8001882:	687a      	ldr	r2, [r7, #4]
 8001884:	6b12      	ldr	r2, [r2, #48]	@ 0x30
 8001886:	3a01      	subs	r2, #1
 8001888:	0112      	lsls	r2, r2, #4
 800188a:	4311      	orrs	r1, r2
 800188c:	687a      	ldr	r2, [r7, #4]
 800188e:	6b52      	ldr	r2, [r2, #52]	@ 0x34
 8001890:	0212      	lsls	r2, r2, #8
 8001892:	4311      	orrs	r1, r2
 8001894:	687a      	ldr	r2, [r7, #4]
 8001896:	6bd2      	ldr	r2, [r2, #60]	@ 0x3c
 8001898:	0852      	lsrs	r2, r2, #1
 800189a:	3a01      	subs	r2, #1
 800189c:	0552      	lsls	r2, r2, #21
 800189e:	4311      	orrs	r1, r2
 80018a0:	687a      	ldr	r2, [r7, #4]
 80018a2:	6c12      	ldr	r2, [r2, #64]	@ 0x40
 80018a4:	0852      	lsrs	r2, r2, #1
 80018a6:	3a01      	subs	r2, #1
 80018a8:	0652      	lsls	r2, r2, #25
 80018aa:	4311      	orrs	r1, r2
 80018ac:	687a      	ldr	r2, [r7, #4]
 80018ae:	6b92      	ldr	r2, [r2, #56]	@ 0x38
 80018b0:	0912      	lsrs	r2, r2, #4
 80018b2:	0452      	lsls	r2, r2, #17
 80018b4:	430a      	orrs	r2, r1
 80018b6:	4930      	ldr	r1, [pc, #192]	@ (8001978 <HAL_RCC_OscConfig+0x780>)
 80018b8:	4313      	orrs	r3, r2
 80018ba:	60cb      	str	r3, [r1, #12]
                                 RCC_OscInitStruct->PLL.PLLQ,
                                 RCC_OscInitStruct->PLL.PLLR);
#endif

            /* Enable the main PLL. */
            __HAL_RCC_PLL_ENABLE();
 80018bc:	4b2e      	ldr	r3, [pc, #184]	@ (8001978 <HAL_RCC_OscConfig+0x780>)
 80018be:	681b      	ldr	r3, [r3, #0]
 80018c0:	4a2d      	ldr	r2, [pc, #180]	@ (8001978 <HAL_RCC_OscConfig+0x780>)
 80018c2:	f043 7380 	orr.w	r3, r3, #16777216	@ 0x1000000
 80018c6:	6013      	str	r3, [r2, #0]

            /* Enable PLL System Clock output. */
            __HAL_RCC_PLLCLKOUT_ENABLE(RCC_PLL_SYSCLK);
 80018c8:	4b2b      	ldr	r3, [pc, #172]	@ (8001978 <HAL_RCC_OscConfig+0x780>)
 80018ca:	68db      	ldr	r3, [r3, #12]
 80018cc:	4a2a      	ldr	r2, [pc, #168]	@ (8001978 <HAL_RCC_OscConfig+0x780>)
 80018ce:	f043 7380 	orr.w	r3, r3, #16777216	@ 0x1000000
 80018d2:	60d3      	str	r3, [r2, #12]

            /* Get Start Tick*/
            tickstart = HAL_GetTick();
 80018d4:	f7ff f978 	bl	8000bc8 <HAL_GetTick>
 80018d8:	6138      	str	r0, [r7, #16]

            /* Wait till PLL is ready */
            while(READ_BIT(RCC->CR, RCC_CR_PLLRDY) == 0U)
 80018da:	e008      	b.n	80018ee <HAL_RCC_OscConfig+0x6f6>
            {
              if((HAL_GetTick() - tickstart) > PLL_TIMEOUT_VALUE)
 80018dc:	f7ff f974 	bl	8000bc8 <HAL_GetTick>
 80018e0:	4602      	mov	r2, r0
 80018e2:	693b      	ldr	r3, [r7, #16]
 80018e4:	1ad3      	subs	r3, r2, r3
 80018e6:	2b02      	cmp	r3, #2
 80018e8:	d901      	bls.n	80018ee <HAL_RCC_OscConfig+0x6f6>
              {
                return HAL_TIMEOUT;
 80018ea:	2303      	movs	r3, #3
 80018ec:	e058      	b.n	80019a0 <HAL_RCC_OscConfig+0x7a8>
            while(READ_BIT(RCC->CR, RCC_CR_PLLRDY) == 0U)
 80018ee:	4b22      	ldr	r3, [pc, #136]	@ (8001978 <HAL_RCC_OscConfig+0x780>)
 80018f0:	681b      	ldr	r3, [r3, #0]
 80018f2:	f003 7300 	and.w	r3, r3, #33554432	@ 0x2000000
 80018f6:	2b00      	cmp	r3, #0
 80018f8:	d0f0      	beq.n	80018dc <HAL_RCC_OscConfig+0x6e4>
        if(sysclk_source != RCC_CFGR_SWS_PLL)
 80018fa:	e050      	b.n	800199e <HAL_RCC_OscConfig+0x7a6>
          }
        }
        else
        {
          /* PLL is already used as System core clock */
          return HAL_ERROR;
 80018fc:	2301      	movs	r3, #1
 80018fe:	e04f      	b.n	80019a0 <HAL_RCC_OscConfig+0x7a8>
      }
      else
      {
        /* PLL configuration is unchanged */
        /* Re-enable PLL if it was disabled (ie. low power mode) */
        if(READ_BIT(RCC->CR, RCC_CR_PLLRDY) == 0U)
 8001900:	4b1d      	ldr	r3, [pc, #116]	@ (8001978 <HAL_RCC_OscConfig+0x780>)
 8001902:	681b      	ldr	r3, [r3, #0]
 8001904:	f003 7300 	and.w	r3, r3, #33554432	@ 0x2000000
 8001908:	2b00      	cmp	r3, #0
 800190a:	d148      	bne.n	800199e <HAL_RCC_OscConfig+0x7a6>
        {
          /* Enable the main PLL. */
          __HAL_RCC_PLL_ENABLE();
 800190c:	4b1a      	ldr	r3, [pc, #104]	@ (8001978 <HAL_RCC_OscConfig+0x780>)
 800190e:	681b      	ldr	r3, [r3, #0]
 8001910:	4a19      	ldr	r2, [pc, #100]	@ (8001978 <HAL_RCC_OscConfig+0x780>)
 8001912:	f043 7380 	orr.w	r3, r3, #16777216	@ 0x1000000
 8001916:	6013      	str	r3, [r2, #0]

          /* Enable PLL System Clock output. */
          __HAL_RCC_PLLCLKOUT_ENABLE(RCC_PLL_SYSCLK);
 8001918:	4b17      	ldr	r3, [pc, #92]	@ (8001978 <HAL_RCC_OscConfig+0x780>)
 800191a:	68db      	ldr	r3, [r3, #12]
 800191c:	4a16      	ldr	r2, [pc, #88]	@ (8001978 <HAL_RCC_OscConfig+0x780>)
 800191e:	f043 7380 	orr.w	r3, r3, #16777216	@ 0x1000000
 8001922:	60d3      	str	r3, [r2, #12]

          /* Get Start Tick*/
          tickstart = HAL_GetTick();
 8001924:	f7ff f950 	bl	8000bc8 <HAL_GetTick>
 8001928:	6138      	str	r0, [r7, #16]

          /* Wait till PLL is ready */
          while(READ_BIT(RCC->CR, RCC_CR_PLLRDY) == 0U)
 800192a:	e008      	b.n	800193e <HAL_RCC_OscConfig+0x746>
          {
            if((HAL_GetTick() - tickstart) > PLL_TIMEOUT_VALUE)
 800192c:	f7ff f94c 	bl	8000bc8 <HAL_GetTick>
 8001930:	4602      	mov	r2, r0
 8001932:	693b      	ldr	r3, [r7, #16]
 8001934:	1ad3      	subs	r3, r2, r3
 8001936:	2b02      	cmp	r3, #2
 8001938:	d901      	bls.n	800193e <HAL_RCC_OscConfig+0x746>
            {
              return HAL_TIMEOUT;
 800193a:	2303      	movs	r3, #3
 800193c:	e030      	b.n	80019a0 <HAL_RCC_OscConfig+0x7a8>
          while(READ_BIT(RCC->CR, RCC_CR_PLLRDY) == 0U)
 800193e:	4b0e      	ldr	r3, [pc, #56]	@ (8001978 <HAL_RCC_OscConfig+0x780>)
 8001940:	681b      	ldr	r3, [r3, #0]
 8001942:	f003 7300 	and.w	r3, r3, #33554432	@ 0x2000000
 8001946:	2b00      	cmp	r3, #0
 8001948:	d0f0      	beq.n	800192c <HAL_RCC_OscConfig+0x734>
 800194a:	e028      	b.n	800199e <HAL_RCC_OscConfig+0x7a6>
      }
    }
    else
    {
      /* Check that PLL is not used as system clock or not */
      if(sysclk_source != RCC_CFGR_SWS_PLL)
 800194c:	69bb      	ldr	r3, [r7, #24]
 800194e:	2b0c      	cmp	r3, #12
 8001950:	d023      	beq.n	800199a <HAL_RCC_OscConfig+0x7a2>
      {
        /* Disable the main PLL. */
        __HAL_RCC_PLL_DISABLE();
 8001952:	4b09      	ldr	r3, [pc, #36]	@ (8001978 <HAL_RCC_OscConfig+0x780>)
 8001954:	681b      	ldr	r3, [r3, #0]
 8001956:	4a08      	ldr	r2, [pc, #32]	@ (8001978 <HAL_RCC_OscConfig+0x780>)
 8001958:	f023 7380 	bic.w	r3, r3, #16777216	@ 0x1000000
 800195c:	6013      	str	r3, [r2, #0]

        /* Get Start Tick*/
        tickstart = HAL_GetTick();
 800195e:	f7ff f933 	bl	8000bc8 <HAL_GetTick>
 8001962:	6138      	str	r0, [r7, #16]

        /* Wait till PLL is disabled */
        while(READ_BIT(RCC->CR, RCC_CR_PLLRDY) != 0U)
 8001964:	e00c      	b.n	8001980 <HAL_RCC_OscConfig+0x788>
        {
          if((HAL_GetTick() - tickstart) > PLL_TIMEOUT_VALUE)
 8001966:	f7ff f92f 	bl	8000bc8 <HAL_GetTick>
 800196a:	4602      	mov	r2, r0
 800196c:	693b      	ldr	r3, [r7, #16]
 800196e:	1ad3      	subs	r3, r2, r3
 8001970:	2b02      	cmp	r3, #2
 8001972:	d905      	bls.n	8001980 <HAL_RCC_OscConfig+0x788>
          {
            return HAL_TIMEOUT;
 8001974:	2303      	movs	r3, #3
 8001976:	e013      	b.n	80019a0 <HAL_RCC_OscConfig+0x7a8>
 8001978:	40021000 	.word	0x40021000
 800197c:	f99d808c 	.word	0xf99d808c
        while(READ_BIT(RCC->CR, RCC_CR_PLLRDY) != 0U)
 8001980:	4b09      	ldr	r3, [pc, #36]	@ (80019a8 <HAL_RCC_OscConfig+0x7b0>)
 8001982:	681b      	ldr	r3, [r3, #0]
 8001984:	f003 7300 	and.w	r3, r3, #33554432	@ 0x2000000
 8001988:	2b00      	cmp	r3, #0
 800198a:	d1ec      	bne.n	8001966 <HAL_RCC_OscConfig+0x76e>
          }
        }
        /* Unselect main PLL clock source and disable main PLL outputs to save power */
#if defined(RCC_PLLSAI2_SUPPORT)
        RCC->PLLCFGR &= ~(RCC_PLLCFGR_PLLSRC | RCC_PLL_SYSCLK | RCC_PLL_48M1CLK | RCC_PLL_SAI3CLK);
 800198c:	4b06      	ldr	r3, [pc, #24]	@ (80019a8 <HAL_RCC_OscConfig+0x7b0>)
 800198e:	68da      	ldr	r2, [r3, #12]
 8001990:	4905      	ldr	r1, [pc, #20]	@ (80019a8 <HAL_RCC_OscConfig+0x7b0>)
 8001992:	4b06      	ldr	r3, [pc, #24]	@ (80019ac <HAL_RCC_OscConfig+0x7b4>)
 8001994:	4013      	ands	r3, r2
 8001996:	60cb      	str	r3, [r1, #12]
 8001998:	e001      	b.n	800199e <HAL_RCC_OscConfig+0x7a6>
#endif /* RCC_PLLSAI2_SUPPORT */
      }
      else
      {
        /* PLL is already used as System core clock */
        return HAL_ERROR;
 800199a:	2301      	movs	r3, #1
 800199c:	e000      	b.n	80019a0 <HAL_RCC_OscConfig+0x7a8>
      }
    }
  }
  return HAL_OK;
 800199e:	2300      	movs	r3, #0
}
 80019a0:	4618      	mov	r0, r3
 80019a2:	3720      	adds	r7, #32
 80019a4:	46bd      	mov	sp, r7
 80019a6:	bd80      	pop	{r7, pc}
 80019a8:	40021000 	.word	0x40021000
 80019ac:	feeefffc 	.word	0xfeeefffc

080019b0 <HAL_RCC_ClockConfig>:
  *         HPRE[3:0] bits to ensure that HCLK not exceed the maximum allowed frequency
  *         (for more details refer to section above "Initialization/de-initialization functions")
  * @retval None
  */
HAL_StatusTypeDef HAL_RCC_ClockConfig(const RCC_ClkInitTypeDef  *RCC_ClkInitStruct, uint32_t FLatency)
{
 80019b0:	b580      	push	{r7, lr}
 80019b2:	b084      	sub	sp, #16
 80019b4:	af00      	add	r7, sp, #0
 80019b6:	6078      	str	r0, [r7, #4]
 80019b8:	6039      	str	r1, [r7, #0]
  uint32_t hpre = RCC_SYSCLK_DIV1;
#endif
  HAL_StatusTypeDef status;

  /* Check Null pointer */
  if(RCC_ClkInitStruct == NULL)
 80019ba:	687b      	ldr	r3, [r7, #4]
 80019bc:	2b00      	cmp	r3, #0
 80019be:	d101      	bne.n	80019c4 <HAL_RCC_ClockConfig+0x14>
  {
    return HAL_ERROR;
 80019c0:	2301      	movs	r3, #1
 80019c2:	e0e7      	b.n	8001b94 <HAL_RCC_ClockConfig+0x1e4>
  /* To correctly read data from FLASH memory, the number of wait states (LATENCY)
    must be correctly programmed according to the frequency of the CPU clock
    (HCLK) and the supply voltage of the device. */

  /* Increasing the number of wait states because of higher CPU frequency */
  if(FLatency > __HAL_FLASH_GET_LATENCY())
 80019c4:	4b75      	ldr	r3, [pc, #468]	@ (8001b9c <HAL_RCC_ClockConfig+0x1ec>)
 80019c6:	681b      	ldr	r3, [r3, #0]
 80019c8:	f003 0307 	and.w	r3, r3, #7
 80019cc:	683a      	ldr	r2, [r7, #0]
 80019ce:	429a      	cmp	r2, r3
 80019d0:	d910      	bls.n	80019f4 <HAL_RCC_ClockConfig+0x44>
  {
    /* Program the new number of wait states to the LATENCY bits in the FLASH_ACR register */
    __HAL_FLASH_SET_LATENCY(FLatency);
 80019d2:	4b72      	ldr	r3, [pc, #456]	@ (8001b9c <HAL_RCC_ClockConfig+0x1ec>)
 80019d4:	681b      	ldr	r3, [r3, #0]
 80019d6:	f023 0207 	bic.w	r2, r3, #7
 80019da:	4970      	ldr	r1, [pc, #448]	@ (8001b9c <HAL_RCC_ClockConfig+0x1ec>)
 80019dc:	683b      	ldr	r3, [r7, #0]
 80019de:	4313      	orrs	r3, r2
 80019e0:	600b      	str	r3, [r1, #0]

    /* Check that the new number of wait states is taken into account to access the Flash
    memory by reading the FLASH_ACR register */
    if(__HAL_FLASH_GET_LATENCY() != FLatency)
 80019e2:	4b6e      	ldr	r3, [pc, #440]	@ (8001b9c <HAL_RCC_ClockConfig+0x1ec>)
 80019e4:	681b      	ldr	r3, [r3, #0]
 80019e6:	f003 0307 	and.w	r3, r3, #7
 80019ea:	683a      	ldr	r2, [r7, #0]
 80019ec:	429a      	cmp	r2, r3
 80019ee:	d001      	beq.n	80019f4 <HAL_RCC_ClockConfig+0x44>
    {
      return HAL_ERROR;
 80019f0:	2301      	movs	r3, #1
 80019f2:	e0cf      	b.n	8001b94 <HAL_RCC_ClockConfig+0x1e4>
    }
  }

  /*----------------- HCLK Configuration prior to SYSCLK----------------------*/
  /* Apply higher HCLK prescaler request here to ensure CPU clock is not of of spec when SYSCLK is increased */
  if(((RCC_ClkInitStruct->ClockType) & RCC_CLOCKTYPE_HCLK) == RCC_CLOCKTYPE_HCLK)
 80019f4:	687b      	ldr	r3, [r7, #4]
 80019f6:	681b      	ldr	r3, [r3, #0]
 80019f8:	f003 0302 	and.w	r3, r3, #2
 80019fc:	2b00      	cmp	r3, #0
 80019fe:	d010      	beq.n	8001a22 <HAL_RCC_ClockConfig+0x72>
  {
    assert_param(IS_RCC_HCLK(RCC_ClkInitStruct->AHBCLKDivider));

    if(RCC_ClkInitStruct->AHBCLKDivider > READ_BIT(RCC->CFGR, RCC_CFGR_HPRE))
 8001a00:	687b      	ldr	r3, [r7, #4]
 8001a02:	689a      	ldr	r2, [r3, #8]
 8001a04:	4b66      	ldr	r3, [pc, #408]	@ (8001ba0 <HAL_RCC_ClockConfig+0x1f0>)
 8001a06:	689b      	ldr	r3, [r3, #8]
 8001a08:	f003 03f0 	and.w	r3, r3, #240	@ 0xf0
 8001a0c:	429a      	cmp	r2, r3
 8001a0e:	d908      	bls.n	8001a22 <HAL_RCC_ClockConfig+0x72>
    {
      MODIFY_REG(RCC->CFGR, RCC_CFGR_HPRE, RCC_ClkInitStruct->AHBCLKDivider);
 8001a10:	4b63      	ldr	r3, [pc, #396]	@ (8001ba0 <HAL_RCC_ClockConfig+0x1f0>)
 8001a12:	689b      	ldr	r3, [r3, #8]
 8001a14:	f023 02f0 	bic.w	r2, r3, #240	@ 0xf0
 8001a18:	687b      	ldr	r3, [r7, #4]
 8001a1a:	689b      	ldr	r3, [r3, #8]
 8001a1c:	4960      	ldr	r1, [pc, #384]	@ (8001ba0 <HAL_RCC_ClockConfig+0x1f0>)
 8001a1e:	4313      	orrs	r3, r2
 8001a20:	608b      	str	r3, [r1, #8]
    }
  }

  /*------------------------- SYSCLK Configuration ---------------------------*/
  if(((RCC_ClkInitStruct->ClockType) & RCC_CLOCKTYPE_SYSCLK) == RCC_CLOCKTYPE_SYSCLK)
 8001a22:	687b      	ldr	r3, [r7, #4]
 8001a24:	681b      	ldr	r3, [r3, #0]
 8001a26:	f003 0301 	and.w	r3, r3, #1
 8001a2a:	2b00      	cmp	r3, #0
 8001a2c:	d04c      	beq.n	8001ac8 <HAL_RCC_ClockConfig+0x118>
  {
    assert_param(IS_RCC_SYSCLKSOURCE(RCC_ClkInitStruct->SYSCLKSource));

    /* PLL is selected as System Clock Source */
    if(RCC_ClkInitStruct->SYSCLKSource == RCC_SYSCLKSOURCE_PLLCLK)
 8001a2e:	687b      	ldr	r3, [r7, #4]
 8001a30:	685b      	ldr	r3, [r3, #4]
 8001a32:	2b03      	cmp	r3, #3
 8001a34:	d107      	bne.n	8001a46 <HAL_RCC_ClockConfig+0x96>
    {
      /* Check the PLL ready flag */
      if(READ_BIT(RCC->CR, RCC_CR_PLLRDY) == 0U)
 8001a36:	4b5a      	ldr	r3, [pc, #360]	@ (8001ba0 <HAL_RCC_ClockConfig+0x1f0>)
 8001a38:	681b      	ldr	r3, [r3, #0]
 8001a3a:	f003 7300 	and.w	r3, r3, #33554432	@ 0x2000000
 8001a3e:	2b00      	cmp	r3, #0
 8001a40:	d121      	bne.n	8001a86 <HAL_RCC_ClockConfig+0xd6>
      {
        return HAL_ERROR;
 8001a42:	2301      	movs	r3, #1
 8001a44:	e0a6      	b.n	8001b94 <HAL_RCC_ClockConfig+0x1e4>
#endif
    }
    else
    {
      /* HSE is selected as System Clock Source */
      if(RCC_ClkInitStruct->SYSCLKSource == RCC_SYSCLKSOURCE_HSE)
 8001a46:	687b      	ldr	r3, [r7, #4]
 8001a48:	685b      	ldr	r3, [r3, #4]
 8001a4a:	2b02      	cmp	r3, #2
 8001a4c:	d107      	bne.n	8001a5e <HAL_RCC_ClockConfig+0xae>
      {
        /* Check the HSE ready flag */
        if(READ_BIT(RCC->CR, RCC_CR_HSERDY) == 0U)
 8001a4e:	4b54      	ldr	r3, [pc, #336]	@ (8001ba0 <HAL_RCC_ClockConfig+0x1f0>)
 8001a50:	681b      	ldr	r3, [r3, #0]
 8001a52:	f403 3300 	and.w	r3, r3, #131072	@ 0x20000
 8001a56:	2b00      	cmp	r3, #0
 8001a58:	d115      	bne.n	8001a86 <HAL_RCC_ClockConfig+0xd6>
        {
          return HAL_ERROR;
 8001a5a:	2301      	movs	r3, #1
 8001a5c:	e09a      	b.n	8001b94 <HAL_RCC_ClockConfig+0x1e4>
        }
      }
      /* MSI is selected as System Clock Source */
      else if(RCC_ClkInitStruct->SYSCLKSource == RCC_SYSCLKSOURCE_MSI)
 8001a5e:	687b      	ldr	r3, [r7, #4]
 8001a60:	685b      	ldr	r3, [r3, #4]
 8001a62:	2b00      	cmp	r3, #0
 8001a64:	d107      	bne.n	8001a76 <HAL_RCC_ClockConfig+0xc6>
      {
        /* Check the MSI ready flag */
        if(READ_BIT(RCC->CR, RCC_CR_MSIRDY) == 0U)
 8001a66:	4b4e      	ldr	r3, [pc, #312]	@ (8001ba0 <HAL_RCC_ClockConfig+0x1f0>)
 8001a68:	681b      	ldr	r3, [r3, #0]
 8001a6a:	f003 0302 	and.w	r3, r3, #2
 8001a6e:	2b00      	cmp	r3, #0
 8001a70:	d109      	bne.n	8001a86 <HAL_RCC_ClockConfig+0xd6>
        {
          return HAL_ERROR;
 8001a72:	2301      	movs	r3, #1
 8001a74:	e08e      	b.n	8001b94 <HAL_RCC_ClockConfig+0x1e4>
      }
      /* HSI is selected as System Clock Source */
      else
      {
        /* Check the HSI ready flag */
        if(READ_BIT(RCC->CR, RCC_CR_HSIRDY) == 0U)
 8001a76:	4b4a      	ldr	r3, [pc, #296]	@ (8001ba0 <HAL_RCC_ClockConfig+0x1f0>)
 8001a78:	681b      	ldr	r3, [r3, #0]
 8001a7a:	f403 6380 	and.w	r3, r3, #1024	@ 0x400
 8001a7e:	2b00      	cmp	r3, #0
 8001a80:	d101      	bne.n	8001a86 <HAL_RCC_ClockConfig+0xd6>
        {
          return HAL_ERROR;
 8001a82:	2301      	movs	r3, #1
 8001a84:	e086      	b.n	8001b94 <HAL_RCC_ClockConfig+0x1e4>
      }
#endif

    }

    MODIFY_REG(RCC->CFGR, RCC_CFGR_SW, RCC_ClkInitStruct->SYSCLKSource);
 8001a86:	4b46      	ldr	r3, [pc, #280]	@ (8001ba0 <HAL_RCC_ClockConfig+0x1f0>)
 8001a88:	689b      	ldr	r3, [r3, #8]
 8001a8a:	f023 0203 	bic.w	r2, r3, #3
 8001a8e:	687b      	ldr	r3, [r7, #4]
 8001a90:	685b      	ldr	r3, [r3, #4]
 8001a92:	4943      	ldr	r1, [pc, #268]	@ (8001ba0 <HAL_RCC_ClockConfig+0x1f0>)
 8001a94:	4313      	orrs	r3, r2
 8001a96:	608b      	str	r3, [r1, #8]

    /* Get Start Tick*/
    tickstart = HAL_GetTick();
 8001a98:	f7ff f896 	bl	8000bc8 <HAL_GetTick>
 8001a9c:	60f8      	str	r0, [r7, #12]

    while(__HAL_RCC_GET_SYSCLK_SOURCE() != (RCC_ClkInitStruct->SYSCLKSource << RCC_CFGR_SWS_Pos))
 8001a9e:	e00a      	b.n	8001ab6 <HAL_RCC_ClockConfig+0x106>
    {
      if((HAL_GetTick() - tickstart) > CLOCKSWITCH_TIMEOUT_VALUE)
 8001aa0:	f7ff f892 	bl	8000bc8 <HAL_GetTick>
 8001aa4:	4602      	mov	r2, r0
 8001aa6:	68fb      	ldr	r3, [r7, #12]
 8001aa8:	1ad3      	subs	r3, r2, r3
 8001aaa:	f241 3288 	movw	r2, #5000	@ 0x1388
 8001aae:	4293      	cmp	r3, r2
 8001ab0:	d901      	bls.n	8001ab6 <HAL_RCC_ClockConfig+0x106>
      {
        return HAL_TIMEOUT;
 8001ab2:	2303      	movs	r3, #3
 8001ab4:	e06e      	b.n	8001b94 <HAL_RCC_ClockConfig+0x1e4>
    while(__HAL_RCC_GET_SYSCLK_SOURCE() != (RCC_ClkInitStruct->SYSCLKSource << RCC_CFGR_SWS_Pos))
 8001ab6:	4b3a      	ldr	r3, [pc, #232]	@ (8001ba0 <HAL_RCC_ClockConfig+0x1f0>)
 8001ab8:	689b      	ldr	r3, [r3, #8]
 8001aba:	f003 020c 	and.w	r2, r3, #12
 8001abe:	687b      	ldr	r3, [r7, #4]
 8001ac0:	685b      	ldr	r3, [r3, #4]
 8001ac2:	009b      	lsls	r3, r3, #2
 8001ac4:	429a      	cmp	r2, r3
 8001ac6:	d1eb      	bne.n	8001aa0 <HAL_RCC_ClockConfig+0xf0>
  }
#endif

  /*----------------- HCLK Configuration after SYSCLK-------------------------*/
  /* Apply lower HCLK prescaler request here to ensure CPU clock is not of of spec when SYSCLK is set */
  if(((RCC_ClkInitStruct->ClockType) & RCC_CLOCKTYPE_HCLK) == RCC_CLOCKTYPE_HCLK)
 8001ac8:	687b      	ldr	r3, [r7, #4]
 8001aca:	681b      	ldr	r3, [r3, #0]
 8001acc:	f003 0302 	and.w	r3, r3, #2
 8001ad0:	2b00      	cmp	r3, #0
 8001ad2:	d010      	beq.n	8001af6 <HAL_RCC_ClockConfig+0x146>
  {
    if(RCC_ClkInitStruct->AHBCLKDivider < READ_BIT(RCC->CFGR, RCC_CFGR_HPRE))
 8001ad4:	687b      	ldr	r3, [r7, #4]
 8001ad6:	689a      	ldr	r2, [r3, #8]
 8001ad8:	4b31      	ldr	r3, [pc, #196]	@ (8001ba0 <HAL_RCC_ClockConfig+0x1f0>)
 8001ada:	689b      	ldr	r3, [r3, #8]
 8001adc:	f003 03f0 	and.w	r3, r3, #240	@ 0xf0
 8001ae0:	429a      	cmp	r2, r3
 8001ae2:	d208      	bcs.n	8001af6 <HAL_RCC_ClockConfig+0x146>
    {
      MODIFY_REG(RCC->CFGR, RCC_CFGR_HPRE, RCC_ClkInitStruct->AHBCLKDivider);
 8001ae4:	4b2e      	ldr	r3, [pc, #184]	@ (8001ba0 <HAL_RCC_ClockConfig+0x1f0>)
 8001ae6:	689b      	ldr	r3, [r3, #8]
 8001ae8:	f023 02f0 	bic.w	r2, r3, #240	@ 0xf0
 8001aec:	687b      	ldr	r3, [r7, #4]
 8001aee:	689b      	ldr	r3, [r3, #8]
 8001af0:	492b      	ldr	r1, [pc, #172]	@ (8001ba0 <HAL_RCC_ClockConfig+0x1f0>)
 8001af2:	4313      	orrs	r3, r2
 8001af4:	608b      	str	r3, [r1, #8]
    }
  }

  /* Allow decreasing of the number of wait states (because of lower CPU frequency expected) */
  if(FLatency < __HAL_FLASH_GET_LATENCY())
 8001af6:	4b29      	ldr	r3, [pc, #164]	@ (8001b9c <HAL_RCC_ClockConfig+0x1ec>)
 8001af8:	681b      	ldr	r3, [r3, #0]
 8001afa:	f003 0307 	and.w	r3, r3, #7
 8001afe:	683a      	ldr	r2, [r7, #0]
 8001b00:	429a      	cmp	r2, r3
 8001b02:	d210      	bcs.n	8001b26 <HAL_RCC_ClockConfig+0x176>
  {
    /* Program the new number of wait states to the LATENCY bits in the FLASH_ACR register */
    __HAL_FLASH_SET_LATENCY(FLatency);
 8001b04:	4b25      	ldr	r3, [pc, #148]	@ (8001b9c <HAL_RCC_ClockConfig+0x1ec>)
 8001b06:	681b      	ldr	r3, [r3, #0]
 8001b08:	f023 0207 	bic.w	r2, r3, #7
 8001b0c:	4923      	ldr	r1, [pc, #140]	@ (8001b9c <HAL_RCC_ClockConfig+0x1ec>)
 8001b0e:	683b      	ldr	r3, [r7, #0]
 8001b10:	4313      	orrs	r3, r2
 8001b12:	600b      	str	r3, [r1, #0]

    /* Check that the new number of wait states is taken into account to access the Flash
    memory by reading the FLASH_ACR register */
    if(__HAL_FLASH_GET_LATENCY() != FLatency)
 8001b14:	4b21      	ldr	r3, [pc, #132]	@ (8001b9c <HAL_RCC_ClockConfig+0x1ec>)
 8001b16:	681b      	ldr	r3, [r3, #0]
 8001b18:	f003 0307 	and.w	r3, r3, #7
 8001b1c:	683a      	ldr	r2, [r7, #0]
 8001b1e:	429a      	cmp	r2, r3
 8001b20:	d001      	beq.n	8001b26 <HAL_RCC_ClockConfig+0x176>
    {
      return HAL_ERROR;
 8001b22:	2301      	movs	r3, #1
 8001b24:	e036      	b.n	8001b94 <HAL_RCC_ClockConfig+0x1e4>
    }
  }

  /*-------------------------- PCLK1 Configuration ---------------------------*/
  if(((RCC_ClkInitStruct->ClockType) & RCC_CLOCKTYPE_PCLK1) == RCC_CLOCKTYPE_PCLK1)
 8001b26:	687b      	ldr	r3, [r7, #4]
 8001b28:	681b      	ldr	r3, [r3, #0]
 8001b2a:	f003 0304 	and.w	r3, r3, #4
 8001b2e:	2b00      	cmp	r3, #0
 8001b30:	d008      	beq.n	8001b44 <HAL_RCC_ClockConfig+0x194>
  {
    assert_param(IS_RCC_PCLK(RCC_ClkInitStruct->APB1CLKDivider));
    MODIFY_REG(RCC->CFGR, RCC_CFGR_PPRE1, RCC_ClkInitStruct->APB1CLKDivider);
 8001b32:	4b1b      	ldr	r3, [pc, #108]	@ (8001ba0 <HAL_RCC_ClockConfig+0x1f0>)
 8001b34:	689b      	ldr	r3, [r3, #8]
 8001b36:	f423 62e0 	bic.w	r2, r3, #1792	@ 0x700
 8001b3a:	687b      	ldr	r3, [r7, #4]
 8001b3c:	68db      	ldr	r3, [r3, #12]
 8001b3e:	4918      	ldr	r1, [pc, #96]	@ (8001ba0 <HAL_RCC_ClockConfig+0x1f0>)
 8001b40:	4313      	orrs	r3, r2
 8001b42:	608b      	str	r3, [r1, #8]
  }

  /*-------------------------- PCLK2 Configuration ---------------------------*/
  if(((RCC_ClkInitStruct->ClockType) & RCC_CLOCKTYPE_PCLK2) == RCC_CLOCKTYPE_PCLK2)
 8001b44:	687b      	ldr	r3, [r7, #4]
 8001b46:	681b      	ldr	r3, [r3, #0]
 8001b48:	f003 0308 	and.w	r3, r3, #8
 8001b4c:	2b00      	cmp	r3, #0
 8001b4e:	d009      	beq.n	8001b64 <HAL_RCC_ClockConfig+0x1b4>
  {
    assert_param(IS_RCC_PCLK(RCC_ClkInitStruct->APB2CLKDivider));
    MODIFY_REG(RCC->CFGR, RCC_CFGR_PPRE2, ((RCC_ClkInitStruct->APB2CLKDivider) << 3U));
 8001b50:	4b13      	ldr	r3, [pc, #76]	@ (8001ba0 <HAL_RCC_ClockConfig+0x1f0>)
 8001b52:	689b      	ldr	r3, [r3, #8]
 8001b54:	f423 5260 	bic.w	r2, r3, #14336	@ 0x3800
 8001b58:	687b      	ldr	r3, [r7, #4]
 8001b5a:	691b      	ldr	r3, [r3, #16]
 8001b5c:	00db      	lsls	r3, r3, #3
 8001b5e:	4910      	ldr	r1, [pc, #64]	@ (8001ba0 <HAL_RCC_ClockConfig+0x1f0>)
 8001b60:	4313      	orrs	r3, r2
 8001b62:	608b      	str	r3, [r1, #8]
  }

  /* Update the SystemCoreClock global variable */
  SystemCoreClock = HAL_RCC_GetSysClockFreq() >> (AHBPrescTable[READ_BIT(RCC->CFGR, RCC_CFGR_HPRE) >> RCC_CFGR_HPRE_Pos] & 0x1FU);
 8001b64:	f000 f824 	bl	8001bb0 <HAL_RCC_GetSysClockFreq>
 8001b68:	4602      	mov	r2, r0
 8001b6a:	4b0d      	ldr	r3, [pc, #52]	@ (8001ba0 <HAL_RCC_ClockConfig+0x1f0>)
 8001b6c:	689b      	ldr	r3, [r3, #8]
 8001b6e:	091b      	lsrs	r3, r3, #4
 8001b70:	f003 030f 	and.w	r3, r3, #15
 8001b74:	490b      	ldr	r1, [pc, #44]	@ (8001ba4 <HAL_RCC_ClockConfig+0x1f4>)
 8001b76:	5ccb      	ldrb	r3, [r1, r3]
 8001b78:	f003 031f 	and.w	r3, r3, #31
 8001b7c:	fa22 f303 	lsr.w	r3, r2, r3
 8001b80:	4a09      	ldr	r2, [pc, #36]	@ (8001ba8 <HAL_RCC_ClockConfig+0x1f8>)
 8001b82:	6013      	str	r3, [r2, #0]

  /* Configure the source of time base considering new system clocks settings*/
  status = HAL_InitTick(uwTickPrio);
 8001b84:	4b09      	ldr	r3, [pc, #36]	@ (8001bac <HAL_RCC_ClockConfig+0x1fc>)
 8001b86:	681b      	ldr	r3, [r3, #0]
 8001b88:	4618      	mov	r0, r3
 8001b8a:	f7fe ffcd 	bl	8000b28 <HAL_InitTick>
 8001b8e:	4603      	mov	r3, r0
 8001b90:	72fb      	strb	r3, [r7, #11]

  return status;
 8001b92:	7afb      	ldrb	r3, [r7, #11]
}
 8001b94:	4618      	mov	r0, r3
 8001b96:	3710      	adds	r7, #16
 8001b98:	46bd      	mov	sp, r7
 8001b9a:	bd80      	pop	{r7, pc}
 8001b9c:	40022000 	.word	0x40022000
 8001ba0:	40021000 	.word	0x40021000
 8001ba4:	08003924 	.word	0x08003924
 8001ba8:	20000000 	.word	0x20000000
 8001bac:	20000004 	.word	0x20000004

08001bb0 <HAL_RCC_GetSysClockFreq>:
  *
  *
  * @retval SYSCLK frequency
  */
uint32_t HAL_RCC_GetSysClockFreq(void)
{
 8001bb0:	b480      	push	{r7}
 8001bb2:	b089      	sub	sp, #36	@ 0x24
 8001bb4:	af00      	add	r7, sp, #0
  uint32_t msirange = 0U, sysclockfreq = 0U;
 8001bb6:	2300      	movs	r3, #0
 8001bb8:	61fb      	str	r3, [r7, #28]
 8001bba:	2300      	movs	r3, #0
 8001bbc:	61bb      	str	r3, [r7, #24]
  uint32_t pllvco, pllsource, pllr, pllm;    /* no init needed */
  uint32_t sysclk_source, pll_oscsource;

  sysclk_source = __HAL_RCC_GET_SYSCLK_SOURCE();
 8001bbe:	4b3e      	ldr	r3, [pc, #248]	@ (8001cb8 <HAL_RCC_GetSysClockFreq+0x108>)
 8001bc0:	689b      	ldr	r3, [r3, #8]
 8001bc2:	f003 030c 	and.w	r3, r3, #12
 8001bc6:	613b      	str	r3, [r7, #16]
  pll_oscsource = __HAL_RCC_GET_PLL_OSCSOURCE();
 8001bc8:	4b3b      	ldr	r3, [pc, #236]	@ (8001cb8 <HAL_RCC_GetSysClockFreq+0x108>)
 8001bca:	68db      	ldr	r3, [r3, #12]
 8001bcc:	f003 0303 	and.w	r3, r3, #3
 8001bd0:	60fb      	str	r3, [r7, #12]

  if((sysclk_source == RCC_CFGR_SWS_MSI) ||
 8001bd2:	693b      	ldr	r3, [r7, #16]
 8001bd4:	2b00      	cmp	r3, #0
 8001bd6:	d005      	beq.n	8001be4 <HAL_RCC_GetSysClockFreq+0x34>
 8001bd8:	693b      	ldr	r3, [r7, #16]
 8001bda:	2b0c      	cmp	r3, #12
 8001bdc:	d121      	bne.n	8001c22 <HAL_RCC_GetSysClockFreq+0x72>
     ((sysclk_source == RCC_CFGR_SWS_PLL) && (pll_oscsource == RCC_PLLSOURCE_MSI)))
 8001bde:	68fb      	ldr	r3, [r7, #12]
 8001be0:	2b01      	cmp	r3, #1
 8001be2:	d11e      	bne.n	8001c22 <HAL_RCC_GetSysClockFreq+0x72>
  {
    /* MSI or PLL with MSI source used as system clock source */

    /* Get SYSCLK source */
    if(READ_BIT(RCC->CR, RCC_CR_MSIRGSEL) == 0U)
 8001be4:	4b34      	ldr	r3, [pc, #208]	@ (8001cb8 <HAL_RCC_GetSysClockFreq+0x108>)
 8001be6:	681b      	ldr	r3, [r3, #0]
 8001be8:	f003 0308 	and.w	r3, r3, #8
 8001bec:	2b00      	cmp	r3, #0
 8001bee:	d107      	bne.n	8001c00 <HAL_RCC_GetSysClockFreq+0x50>
    { /* MSISRANGE from RCC_CSR applies */
      msirange = READ_BIT(RCC->CSR, RCC_CSR_MSISRANGE) >> RCC_CSR_MSISRANGE_Pos;
 8001bf0:	4b31      	ldr	r3, [pc, #196]	@ (8001cb8 <HAL_RCC_GetSysClockFreq+0x108>)
 8001bf2:	f8d3 3094 	ldr.w	r3, [r3, #148]	@ 0x94
 8001bf6:	0a1b      	lsrs	r3, r3, #8
 8001bf8:	f003 030f 	and.w	r3, r3, #15
 8001bfc:	61fb      	str	r3, [r7, #28]
 8001bfe:	e005      	b.n	8001c0c <HAL_RCC_GetSysClockFreq+0x5c>
    }
    else
    { /* MSIRANGE from RCC_CR applies */
      msirange = READ_BIT(RCC->CR, RCC_CR_MSIRANGE) >> RCC_CR_MSIRANGE_Pos;
 8001c00:	4b2d      	ldr	r3, [pc, #180]	@ (8001cb8 <HAL_RCC_GetSysClockFreq+0x108>)
 8001c02:	681b      	ldr	r3, [r3, #0]
 8001c04:	091b      	lsrs	r3, r3, #4
 8001c06:	f003 030f 	and.w	r3, r3, #15
 8001c0a:	61fb      	str	r3, [r7, #28]
    }
    /*MSI frequency range in HZ*/
    msirange = MSIRangeTable[msirange];
 8001c0c:	4a2b      	ldr	r2, [pc, #172]	@ (8001cbc <HAL_RCC_GetSysClockFreq+0x10c>)
 8001c0e:	69fb      	ldr	r3, [r7, #28]
 8001c10:	f852 3023 	ldr.w	r3, [r2, r3, lsl #2]
 8001c14:	61fb      	str	r3, [r7, #28]

    if(sysclk_source == RCC_CFGR_SWS_MSI)
 8001c16:	693b      	ldr	r3, [r7, #16]
 8001c18:	2b00      	cmp	r3, #0
 8001c1a:	d10d      	bne.n	8001c38 <HAL_RCC_GetSysClockFreq+0x88>
    {
      /* MSI used as system clock source */
      sysclockfreq = msirange;
 8001c1c:	69fb      	ldr	r3, [r7, #28]
 8001c1e:	61bb      	str	r3, [r7, #24]
    if(sysclk_source == RCC_CFGR_SWS_MSI)
 8001c20:	e00a      	b.n	8001c38 <HAL_RCC_GetSysClockFreq+0x88>
    }
  }
  else if(sysclk_source == RCC_CFGR_SWS_HSI)
 8001c22:	693b      	ldr	r3, [r7, #16]
 8001c24:	2b04      	cmp	r3, #4
 8001c26:	d102      	bne.n	8001c2e <HAL_RCC_GetSysClockFreq+0x7e>
  {
    /* HSI used as system clock source */
    sysclockfreq = HSI_VALUE;
 8001c28:	4b25      	ldr	r3, [pc, #148]	@ (8001cc0 <HAL_RCC_GetSysClockFreq+0x110>)
 8001c2a:	61bb      	str	r3, [r7, #24]
 8001c2c:	e004      	b.n	8001c38 <HAL_RCC_GetSysClockFreq+0x88>
  }
  else if(sysclk_source == RCC_CFGR_SWS_HSE)
 8001c2e:	693b      	ldr	r3, [r7, #16]
 8001c30:	2b08      	cmp	r3, #8
 8001c32:	d101      	bne.n	8001c38 <HAL_RCC_GetSysClockFreq+0x88>
  {
    /* HSE used as system clock source */
    sysclockfreq = HSE_VALUE;
 8001c34:	4b23      	ldr	r3, [pc, #140]	@ (8001cc4 <HAL_RCC_GetSysClockFreq+0x114>)
 8001c36:	61bb      	str	r3, [r7, #24]
  else
  {
    /* unexpected case: sysclockfreq at 0 */
  }

  if(sysclk_source == RCC_CFGR_SWS_PLL)
 8001c38:	693b      	ldr	r3, [r7, #16]
 8001c3a:	2b0c      	cmp	r3, #12
 8001c3c:	d134      	bne.n	8001ca8 <HAL_RCC_GetSysClockFreq+0xf8>
    /* PLL used as system clock  source */

    /* PLL_VCO = (HSE_VALUE or HSI_VALUE or MSI_VALUE) * PLLN / PLLM
    SYSCLK = PLL_VCO / PLLR
    */
    pllsource = READ_BIT(RCC->PLLCFGR, RCC_PLLCFGR_PLLSRC);
 8001c3e:	4b1e      	ldr	r3, [pc, #120]	@ (8001cb8 <HAL_RCC_GetSysClockFreq+0x108>)
 8001c40:	68db      	ldr	r3, [r3, #12]
 8001c42:	f003 0303 	and.w	r3, r3, #3
 8001c46:	60bb      	str	r3, [r7, #8]

    switch (pllsource)
 8001c48:	68bb      	ldr	r3, [r7, #8]
 8001c4a:	2b02      	cmp	r3, #2
 8001c4c:	d003      	beq.n	8001c56 <HAL_RCC_GetSysClockFreq+0xa6>
 8001c4e:	68bb      	ldr	r3, [r7, #8]
 8001c50:	2b03      	cmp	r3, #3
 8001c52:	d003      	beq.n	8001c5c <HAL_RCC_GetSysClockFreq+0xac>
 8001c54:	e005      	b.n	8001c62 <HAL_RCC_GetSysClockFreq+0xb2>
    {
    case RCC_PLLSOURCE_HSI:  /* HSI used as PLL clock source */
      pllvco = HSI_VALUE;
 8001c56:	4b1a      	ldr	r3, [pc, #104]	@ (8001cc0 <HAL_RCC_GetSysClockFreq+0x110>)
 8001c58:	617b      	str	r3, [r7, #20]
      break;
 8001c5a:	e005      	b.n	8001c68 <HAL_RCC_GetSysClockFreq+0xb8>

    case RCC_PLLSOURCE_HSE:  /* HSE used as PLL clock source */
      pllvco = HSE_VALUE;
 8001c5c:	4b19      	ldr	r3, [pc, #100]	@ (8001cc4 <HAL_RCC_GetSysClockFreq+0x114>)
 8001c5e:	617b      	str	r3, [r7, #20]
      break;
 8001c60:	e002      	b.n	8001c68 <HAL_RCC_GetSysClockFreq+0xb8>

    case RCC_PLLSOURCE_MSI:  /* MSI used as PLL clock source */
    default:
      pllvco = msirange;
 8001c62:	69fb      	ldr	r3, [r7, #28]
 8001c64:	617b      	str	r3, [r7, #20]
      break;
 8001c66:	bf00      	nop
    }
    pllm = (READ_BIT(RCC->PLLCFGR, RCC_PLLCFGR_PLLM) >> RCC_PLLCFGR_PLLM_Pos) + 1U ;
 8001c68:	4b13      	ldr	r3, [pc, #76]	@ (8001cb8 <HAL_RCC_GetSysClockFreq+0x108>)
 8001c6a:	68db      	ldr	r3, [r3, #12]
 8001c6c:	091b      	lsrs	r3, r3, #4
 8001c6e:	f003 0307 	and.w	r3, r3, #7
 8001c72:	3301      	adds	r3, #1
 8001c74:	607b      	str	r3, [r7, #4]
    pllvco = (pllvco * (READ_BIT(RCC->PLLCFGR, RCC_PLLCFGR_PLLN) >> RCC_PLLCFGR_PLLN_Pos)) / pllm;
 8001c76:	4b10      	ldr	r3, [pc, #64]	@ (8001cb8 <HAL_RCC_GetSysClockFreq+0x108>)
 8001c78:	68db      	ldr	r3, [r3, #12]
 8001c7a:	0a1b      	lsrs	r3, r3, #8
 8001c7c:	f003 037f 	and.w	r3, r3, #127	@ 0x7f
 8001c80:	697a      	ldr	r2, [r7, #20]
 8001c82:	fb03 f202 	mul.w	r2, r3, r2
 8001c86:	687b      	ldr	r3, [r7, #4]
 8001c88:	fbb2 f3f3 	udiv	r3, r2, r3
 8001c8c:	617b      	str	r3, [r7, #20]
    pllr = ((READ_BIT(RCC->PLLCFGR, RCC_PLLCFGR_PLLR) >> RCC_PLLCFGR_PLLR_Pos) + 1U ) * 2U;
 8001c8e:	4b0a      	ldr	r3, [pc, #40]	@ (8001cb8 <HAL_RCC_GetSysClockFreq+0x108>)
 8001c90:	68db      	ldr	r3, [r3, #12]
 8001c92:	0e5b      	lsrs	r3, r3, #25
 8001c94:	f003 0303 	and.w	r3, r3, #3
 8001c98:	3301      	adds	r3, #1
 8001c9a:	005b      	lsls	r3, r3, #1
 8001c9c:	603b      	str	r3, [r7, #0]
    sysclockfreq = pllvco / pllr;
 8001c9e:	697a      	ldr	r2, [r7, #20]
 8001ca0:	683b      	ldr	r3, [r7, #0]
 8001ca2:	fbb2 f3f3 	udiv	r3, r2, r3
 8001ca6:	61bb      	str	r3, [r7, #24]
  }

  return sysclockfreq;
 8001ca8:	69bb      	ldr	r3, [r7, #24]
}
 8001caa:	4618      	mov	r0, r3
 8001cac:	3724      	adds	r7, #36	@ 0x24
 8001cae:	46bd      	mov	sp, r7
 8001cb0:	f85d 7b04 	ldr.w	r7, [sp], #4
 8001cb4:	4770      	bx	lr
 8001cb6:	bf00      	nop
 8001cb8:	40021000 	.word	0x40021000
 8001cbc:	0800393c 	.word	0x0800393c
 8001cc0:	00f42400 	.word	0x00f42400
 8001cc4:	007a1200 	.word	0x007a1200

08001cc8 <HAL_RCC_GetHCLKFreq>:
  *
  * @note   The SystemCoreClock CMSIS variable is used to store System Clock Frequency.
  * @retval HCLK frequency in Hz
  */
uint32_t HAL_RCC_GetHCLKFreq(void)
{
 8001cc8:	b480      	push	{r7}
 8001cca:	af00      	add	r7, sp, #0
  return SystemCoreClock;
 8001ccc:	4b03      	ldr	r3, [pc, #12]	@ (8001cdc <HAL_RCC_GetHCLKFreq+0x14>)
 8001cce:	681b      	ldr	r3, [r3, #0]
}
 8001cd0:	4618      	mov	r0, r3
 8001cd2:	46bd      	mov	sp, r7
 8001cd4:	f85d 7b04 	ldr.w	r7, [sp], #4
 8001cd8:	4770      	bx	lr
 8001cda:	bf00      	nop
 8001cdc:	20000000 	.word	0x20000000

08001ce0 <HAL_RCC_GetPCLK1Freq>:
  * @note   Each time PCLK1 changes, this function must be called to update the
  *         right PCLK1 value. Otherwise, any configuration based on this function will be incorrect.
  * @retval PCLK1 frequency in Hz
  */
uint32_t HAL_RCC_GetPCLK1Freq(void)
{
 8001ce0:	b580      	push	{r7, lr}
 8001ce2:	af00      	add	r7, sp, #0
  /* Get HCLK source and Compute PCLK1 frequency ---------------------------*/
  return (HAL_RCC_GetHCLKFreq() >> (APBPrescTable[READ_BIT(RCC->CFGR, RCC_CFGR_PPRE1) >> RCC_CFGR_PPRE1_Pos] & 0x1FU));
 8001ce4:	f7ff fff0 	bl	8001cc8 <HAL_RCC_GetHCLKFreq>
 8001ce8:	4602      	mov	r2, r0
 8001cea:	4b06      	ldr	r3, [pc, #24]	@ (8001d04 <HAL_RCC_GetPCLK1Freq+0x24>)
 8001cec:	689b      	ldr	r3, [r3, #8]
 8001cee:	0a1b      	lsrs	r3, r3, #8
 8001cf0:	f003 0307 	and.w	r3, r3, #7
 8001cf4:	4904      	ldr	r1, [pc, #16]	@ (8001d08 <HAL_RCC_GetPCLK1Freq+0x28>)
 8001cf6:	5ccb      	ldrb	r3, [r1, r3]
 8001cf8:	f003 031f 	and.w	r3, r3, #31
 8001cfc:	fa22 f303 	lsr.w	r3, r2, r3
}
 8001d00:	4618      	mov	r0, r3
 8001d02:	bd80      	pop	{r7, pc}
 8001d04:	40021000 	.word	0x40021000
 8001d08:	08003934 	.word	0x08003934

08001d0c <HAL_RCC_GetPCLK2Freq>:
  * @note   Each time PCLK2 changes, this function must be called to update the
  *         right PCLK2 value. Otherwise, any configuration based on this function will be incorrect.
  * @retval PCLK2 frequency in Hz
  */
uint32_t HAL_RCC_GetPCLK2Freq(void)
{
 8001d0c:	b580      	push	{r7, lr}
 8001d0e:	af00      	add	r7, sp, #0
  /* Get HCLK source and Compute PCLK2 frequency ---------------------------*/
  return (HAL_RCC_GetHCLKFreq()>> (APBPrescTable[READ_BIT(RCC->CFGR, RCC_CFGR_PPRE2) >> RCC_CFGR_PPRE2_Pos] & 0x1FU));
 8001d10:	f7ff ffda 	bl	8001cc8 <HAL_RCC_GetHCLKFreq>
 8001d14:	4602      	mov	r2, r0
 8001d16:	4b06      	ldr	r3, [pc, #24]	@ (8001d30 <HAL_RCC_GetPCLK2Freq+0x24>)
 8001d18:	689b      	ldr	r3, [r3, #8]
 8001d1a:	0adb      	lsrs	r3, r3, #11
 8001d1c:	f003 0307 	and.w	r3, r3, #7
 8001d20:	4904      	ldr	r1, [pc, #16]	@ (8001d34 <HAL_RCC_GetPCLK2Freq+0x28>)
 8001d22:	5ccb      	ldrb	r3, [r1, r3]
 8001d24:	f003 031f 	and.w	r3, r3, #31
 8001d28:	fa22 f303 	lsr.w	r3, r2, r3
}
 8001d2c:	4618      	mov	r0, r3
 8001d2e:	bd80      	pop	{r7, pc}
 8001d30:	40021000 	.word	0x40021000
 8001d34:	08003934 	.word	0x08003934

08001d38 <RCC_SetFlashLatencyFromMSIRange>:
            voltage range.
  * @param  msirange  MSI range value from RCC_MSIRANGE_0 to RCC_MSIRANGE_11
  * @retval HAL status
  */
static HAL_StatusTypeDef RCC_SetFlashLatencyFromMSIRange(uint32_t msirange)
{
 8001d38:	b580      	push	{r7, lr}
 8001d3a:	b086      	sub	sp, #24
 8001d3c:	af00      	add	r7, sp, #0
 8001d3e:	6078      	str	r0, [r7, #4]
  uint32_t vos;
  uint32_t latency = FLASH_LATENCY_0;  /* default value 0WS */
 8001d40:	2300      	movs	r3, #0
 8001d42:	613b      	str	r3, [r7, #16]

  if(__HAL_RCC_PWR_IS_CLK_ENABLED())
 8001d44:	4b2a      	ldr	r3, [pc, #168]	@ (8001df0 <RCC_SetFlashLatencyFromMSIRange+0xb8>)
 8001d46:	6d9b      	ldr	r3, [r3, #88]	@ 0x58
 8001d48:	f003 5380 	and.w	r3, r3, #268435456	@ 0x10000000
 8001d4c:	2b00      	cmp	r3, #0
 8001d4e:	d003      	beq.n	8001d58 <RCC_SetFlashLatencyFromMSIRange+0x20>
  {
    vos = HAL_PWREx_GetVoltageRange();
 8001d50:	f7ff f9ee 	bl	8001130 <HAL_PWREx_GetVoltageRange>
 8001d54:	6178      	str	r0, [r7, #20]
 8001d56:	e014      	b.n	8001d82 <RCC_SetFlashLatencyFromMSIRange+0x4a>
  }
  else
  {
    __HAL_RCC_PWR_CLK_ENABLE();
 8001d58:	4b25      	ldr	r3, [pc, #148]	@ (8001df0 <RCC_SetFlashLatencyFromMSIRange+0xb8>)
 8001d5a:	6d9b      	ldr	r3, [r3, #88]	@ 0x58
 8001d5c:	4a24      	ldr	r2, [pc, #144]	@ (8001df0 <RCC_SetFlashLatencyFromMSIRange+0xb8>)
 8001d5e:	f043 5380 	orr.w	r3, r3, #268435456	@ 0x10000000
 8001d62:	6593      	str	r3, [r2, #88]	@ 0x58
 8001d64:	4b22      	ldr	r3, [pc, #136]	@ (8001df0 <RCC_SetFlashLatencyFromMSIRange+0xb8>)
 8001d66:	6d9b      	ldr	r3, [r3, #88]	@ 0x58
 8001d68:	f003 5380 	and.w	r3, r3, #268435456	@ 0x10000000
 8001d6c:	60fb      	str	r3, [r7, #12]
 8001d6e:	68fb      	ldr	r3, [r7, #12]
    vos = HAL_PWREx_GetVoltageRange();
 8001d70:	f7ff f9de 	bl	8001130 <HAL_PWREx_GetVoltageRange>
 8001d74:	6178      	str	r0, [r7, #20]
    __HAL_RCC_PWR_CLK_DISABLE();
 8001d76:	4b1e      	ldr	r3, [pc, #120]	@ (8001df0 <RCC_SetFlashLatencyFromMSIRange+0xb8>)
 8001d78:	6d9b      	ldr	r3, [r3, #88]	@ 0x58
 8001d7a:	4a1d      	ldr	r2, [pc, #116]	@ (8001df0 <RCC_SetFlashLatencyFromMSIRange+0xb8>)
 8001d7c:	f023 5380 	bic.w	r3, r3, #268435456	@ 0x10000000
 8001d80:	6593      	str	r3, [r2, #88]	@ 0x58
  }

  if(vos == PWR_REGULATOR_VOLTAGE_SCALE1)
 8001d82:	697b      	ldr	r3, [r7, #20]
 8001d84:	f5b3 7f00 	cmp.w	r3, #512	@ 0x200
 8001d88:	d10b      	bne.n	8001da2 <RCC_SetFlashLatencyFromMSIRange+0x6a>
  {
    if(msirange > RCC_MSIRANGE_8)
 8001d8a:	687b      	ldr	r3, [r7, #4]
 8001d8c:	2b80      	cmp	r3, #128	@ 0x80
 8001d8e:	d919      	bls.n	8001dc4 <RCC_SetFlashLatencyFromMSIRange+0x8c>
    {
      /* MSI > 16Mhz */
      if(msirange > RCC_MSIRANGE_10)
 8001d90:	687b      	ldr	r3, [r7, #4]
 8001d92:	2ba0      	cmp	r3, #160	@ 0xa0
 8001d94:	d902      	bls.n	8001d9c <RCC_SetFlashLatencyFromMSIRange+0x64>
      {
        /* MSI 48Mhz */
        latency = FLASH_LATENCY_2; /* 2WS */
 8001d96:	2302      	movs	r3, #2
 8001d98:	613b      	str	r3, [r7, #16]
 8001d9a:	e013      	b.n	8001dc4 <RCC_SetFlashLatencyFromMSIRange+0x8c>
      }
      else
      {
        /* MSI 24Mhz or 32Mhz */
        latency = FLASH_LATENCY_1; /* 1WS */
 8001d9c:	2301      	movs	r3, #1
 8001d9e:	613b      	str	r3, [r7, #16]
 8001da0:	e010      	b.n	8001dc4 <RCC_SetFlashLatencyFromMSIRange+0x8c>
        latency = FLASH_LATENCY_1; /* 1WS */
      }
      /* else MSI < 8Mhz default FLASH_LATENCY_0 0WS */
    }
#else
    if(msirange > RCC_MSIRANGE_8)
 8001da2:	687b      	ldr	r3, [r7, #4]
 8001da4:	2b80      	cmp	r3, #128	@ 0x80
 8001da6:	d902      	bls.n	8001dae <RCC_SetFlashLatencyFromMSIRange+0x76>
    {
      /* MSI > 16Mhz */
      latency = FLASH_LATENCY_3; /* 3WS */
 8001da8:	2303      	movs	r3, #3
 8001daa:	613b      	str	r3, [r7, #16]
 8001dac:	e00a      	b.n	8001dc4 <RCC_SetFlashLatencyFromMSIRange+0x8c>
    }
    else
    {
      if(msirange == RCC_MSIRANGE_8)
 8001dae:	687b      	ldr	r3, [r7, #4]
 8001db0:	2b80      	cmp	r3, #128	@ 0x80
 8001db2:	d102      	bne.n	8001dba <RCC_SetFlashLatencyFromMSIRange+0x82>
      {
        /* MSI 16Mhz */
        latency = FLASH_LATENCY_2; /* 2WS */
 8001db4:	2302      	movs	r3, #2
 8001db6:	613b      	str	r3, [r7, #16]
 8001db8:	e004      	b.n	8001dc4 <RCC_SetFlashLatencyFromMSIRange+0x8c>
      }
      else if(msirange == RCC_MSIRANGE_7)
 8001dba:	687b      	ldr	r3, [r7, #4]
 8001dbc:	2b70      	cmp	r3, #112	@ 0x70
 8001dbe:	d101      	bne.n	8001dc4 <RCC_SetFlashLatencyFromMSIRange+0x8c>
      {
        /* MSI 8Mhz */
        latency = FLASH_LATENCY_1; /* 1WS */
 8001dc0:	2301      	movs	r3, #1
 8001dc2:	613b      	str	r3, [r7, #16]
      }
    }
#endif
  }

  __HAL_FLASH_SET_LATENCY(latency);
 8001dc4:	4b0b      	ldr	r3, [pc, #44]	@ (8001df4 <RCC_SetFlashLatencyFromMSIRange+0xbc>)
 8001dc6:	681b      	ldr	r3, [r3, #0]
 8001dc8:	f023 0207 	bic.w	r2, r3, #7
 8001dcc:	4909      	ldr	r1, [pc, #36]	@ (8001df4 <RCC_SetFlashLatencyFromMSIRange+0xbc>)
 8001dce:	693b      	ldr	r3, [r7, #16]
 8001dd0:	4313      	orrs	r3, r2
 8001dd2:	600b      	str	r3, [r1, #0]

  /* Check that the new number of wait states is taken into account to access the Flash
     memory by reading the FLASH_ACR register */
  if(__HAL_FLASH_GET_LATENCY() != latency)
 8001dd4:	4b07      	ldr	r3, [pc, #28]	@ (8001df4 <RCC_SetFlashLatencyFromMSIRange+0xbc>)
 8001dd6:	681b      	ldr	r3, [r3, #0]
 8001dd8:	f003 0307 	and.w	r3, r3, #7
 8001ddc:	693a      	ldr	r2, [r7, #16]
 8001dde:	429a      	cmp	r2, r3
 8001de0:	d001      	beq.n	8001de6 <RCC_SetFlashLatencyFromMSIRange+0xae>
  {
    return HAL_ERROR;
 8001de2:	2301      	movs	r3, #1
 8001de4:	e000      	b.n	8001de8 <RCC_SetFlashLatencyFromMSIRange+0xb0>
  }

  return HAL_OK;
 8001de6:	2300      	movs	r3, #0
}
 8001de8:	4618      	mov	r0, r3
 8001dea:	3718      	adds	r7, #24
 8001dec:	46bd      	mov	sp, r7
 8001dee:	bd80      	pop	{r7, pc}
 8001df0:	40021000 	.word	0x40021000
 8001df4:	40022000 	.word	0x40022000

08001df8 <HAL_RCCEx_PeriphCLKConfig>:
  *         the RTC clock source: in this case the access to Backup domain is enabled.
  *
  * @retval HAL status
  */
HAL_StatusTypeDef HAL_RCCEx_PeriphCLKConfig(RCC_PeriphCLKInitTypeDef  *PeriphClkInit)
{
 8001df8:	b580      	push	{r7, lr}
 8001dfa:	b086      	sub	sp, #24
 8001dfc:	af00      	add	r7, sp, #0
 8001dfe:	6078      	str	r0, [r7, #4]
  uint32_t tmpregister, tickstart;     /* no init needed */
  HAL_StatusTypeDef ret = HAL_OK;      /* Intermediate status */
 8001e00:	2300      	movs	r3, #0
 8001e02:	74fb      	strb	r3, [r7, #19]
  HAL_StatusTypeDef status = HAL_OK;   /* Final status */
 8001e04:	2300      	movs	r3, #0
 8001e06:	74bb      	strb	r3, [r7, #18]
  assert_param(IS_RCC_PERIPHCLOCK(PeriphClkInit->PeriphClockSelection));

#if defined(SAI1)

  /*-------------------------- SAI1 clock source configuration ---------------------*/
  if((((PeriphClkInit->PeriphClockSelection) & RCC_PERIPHCLK_SAI1) == RCC_PERIPHCLK_SAI1))
 8001e08:	687b      	ldr	r3, [r7, #4]
 8001e0a:	681b      	ldr	r3, [r3, #0]
 8001e0c:	f403 6300 	and.w	r3, r3, #2048	@ 0x800
 8001e10:	2b00      	cmp	r3, #0
 8001e12:	d041      	beq.n	8001e98 <HAL_RCCEx_PeriphCLKConfig+0xa0>
  {
    /* Check the parameters */
    assert_param(IS_RCC_SAI1CLK(PeriphClkInit->Sai1ClockSelection));

    switch(PeriphClkInit->Sai1ClockSelection)
 8001e14:	687b      	ldr	r3, [r7, #4]
 8001e16:	6e5b      	ldr	r3, [r3, #100]	@ 0x64
 8001e18:	f5b3 0f40 	cmp.w	r3, #12582912	@ 0xc00000
 8001e1c:	d02a      	beq.n	8001e74 <HAL_RCCEx_PeriphCLKConfig+0x7c>
 8001e1e:	f5b3 0f40 	cmp.w	r3, #12582912	@ 0xc00000
 8001e22:	d824      	bhi.n	8001e6e <HAL_RCCEx_PeriphCLKConfig+0x76>
 8001e24:	f5b3 0f00 	cmp.w	r3, #8388608	@ 0x800000
 8001e28:	d008      	beq.n	8001e3c <HAL_RCCEx_PeriphCLKConfig+0x44>
 8001e2a:	f5b3 0f00 	cmp.w	r3, #8388608	@ 0x800000
 8001e2e:	d81e      	bhi.n	8001e6e <HAL_RCCEx_PeriphCLKConfig+0x76>
 8001e30:	2b00      	cmp	r3, #0
 8001e32:	d00a      	beq.n	8001e4a <HAL_RCCEx_PeriphCLKConfig+0x52>
 8001e34:	f5b3 0f80 	cmp.w	r3, #4194304	@ 0x400000
 8001e38:	d010      	beq.n	8001e5c <HAL_RCCEx_PeriphCLKConfig+0x64>
 8001e3a:	e018      	b.n	8001e6e <HAL_RCCEx_PeriphCLKConfig+0x76>
    {
    case RCC_SAI1CLKSOURCE_PLL:      /* PLL is used as clock source for SAI1*/
      /* Enable SAI Clock output generated from System PLL . */
#if defined(RCC_PLLSAI2_SUPPORT)
      __HAL_RCC_PLLCLKOUT_ENABLE(RCC_PLL_SAI3CLK);
 8001e3c:	4b86      	ldr	r3, [pc, #536]	@ (8002058 <HAL_RCCEx_PeriphCLKConfig+0x260>)
 8001e3e:	68db      	ldr	r3, [r3, #12]
 8001e40:	4a85      	ldr	r2, [pc, #532]	@ (8002058 <HAL_RCCEx_PeriphCLKConfig+0x260>)
 8001e42:	f443 3380 	orr.w	r3, r3, #65536	@ 0x10000
 8001e46:	60d3      	str	r3, [r2, #12]
#else
      __HAL_RCC_PLLCLKOUT_ENABLE(RCC_PLL_SAI2CLK);
#endif /* RCC_PLLSAI2_SUPPORT */
      /* SAI1 clock source config set later after clock selection check */
      break;
 8001e48:	e015      	b.n	8001e76 <HAL_RCCEx_PeriphCLKConfig+0x7e>

    case RCC_SAI1CLKSOURCE_PLLSAI1:  /* PLLSAI1 is used as clock source for SAI1*/
      /* PLLSAI1 input clock, parameters M, N & P configuration and clock output (PLLSAI1ClockOut) */
      ret = RCCEx_PLLSAI1_Config(&(PeriphClkInit->PLLSAI1), DIVIDER_P_UPDATE);
 8001e4a:	687b      	ldr	r3, [r7, #4]
 8001e4c:	3304      	adds	r3, #4
 8001e4e:	2100      	movs	r1, #0
 8001e50:	4618      	mov	r0, r3
 8001e52:	f000 fabb 	bl	80023cc <RCCEx_PLLSAI1_Config>
 8001e56:	4603      	mov	r3, r0
 8001e58:	74fb      	strb	r3, [r7, #19]
      /* SAI1 clock source config set later after clock selection check */
      break;
 8001e5a:	e00c      	b.n	8001e76 <HAL_RCCEx_PeriphCLKConfig+0x7e>

#if defined(RCC_PLLSAI2_SUPPORT)

    case RCC_SAI1CLKSOURCE_PLLSAI2:  /* PLLSAI2 is used as clock source for SAI1*/
      /* PLLSAI2 input clock, parameters M, N & P configuration clock output (PLLSAI2ClockOut) */
      ret = RCCEx_PLLSAI2_Config(&(PeriphClkInit->PLLSAI2), DIVIDER_P_UPDATE);
 8001e5c:	687b      	ldr	r3, [r7, #4]
 8001e5e:	3320      	adds	r3, #32
 8001e60:	2100      	movs	r1, #0
 8001e62:	4618      	mov	r0, r3
 8001e64:	f000 fba6 	bl	80025b4 <RCCEx_PLLSAI2_Config>
 8001e68:	4603      	mov	r3, r0
 8001e6a:	74fb      	strb	r3, [r7, #19]
      /* SAI1 clock source config set later after clock selection check */
      break;
 8001e6c:	e003      	b.n	8001e76 <HAL_RCCEx_PeriphCLKConfig+0x7e>
#endif /* STM32L4P5xx || STM32L4Q5xx || STM32L4R5xx || STM32L4R7xx || STM32L4R9xx || STM32L4S5xx || STM32L4S7xx || STM32L4S9xx */
      /* SAI1 clock source config set later after clock selection check */
      break;

    default:
      ret = HAL_ERROR;
 8001e6e:	2301      	movs	r3, #1
 8001e70:	74fb      	strb	r3, [r7, #19]
      break;
 8001e72:	e000      	b.n	8001e76 <HAL_RCCEx_PeriphCLKConfig+0x7e>
      break;
 8001e74:	bf00      	nop
    }

    if(ret == HAL_OK)
 8001e76:	7cfb      	ldrb	r3, [r7, #19]
 8001e78:	2b00      	cmp	r3, #0
 8001e7a:	d10b      	bne.n	8001e94 <HAL_RCCEx_PeriphCLKConfig+0x9c>
    {
      /* Set the source of SAI1 clock*/
      __HAL_RCC_SAI1_CONFIG(PeriphClkInit->Sai1ClockSelection);
 8001e7c:	4b76      	ldr	r3, [pc, #472]	@ (8002058 <HAL_RCCEx_PeriphCLKConfig+0x260>)
 8001e7e:	f8d3 3088 	ldr.w	r3, [r3, #136]	@ 0x88
 8001e82:	f423 0240 	bic.w	r2, r3, #12582912	@ 0xc00000
 8001e86:	687b      	ldr	r3, [r7, #4]
 8001e88:	6e5b      	ldr	r3, [r3, #100]	@ 0x64
 8001e8a:	4973      	ldr	r1, [pc, #460]	@ (8002058 <HAL_RCCEx_PeriphCLKConfig+0x260>)
 8001e8c:	4313      	orrs	r3, r2
 8001e8e:	f8c1 3088 	str.w	r3, [r1, #136]	@ 0x88
 8001e92:	e001      	b.n	8001e98 <HAL_RCCEx_PeriphCLKConfig+0xa0>
    }
    else
    {
      /* set overall return value */
      status = ret;
 8001e94:	7cfb      	ldrb	r3, [r7, #19]
 8001e96:	74bb      	strb	r3, [r7, #18]
#endif /* SAI1 */

#if defined(SAI2)

  /*-------------------------- SAI2 clock source configuration ---------------------*/
  if((((PeriphClkInit->PeriphClockSelection) & RCC_PERIPHCLK_SAI2) == RCC_PERIPHCLK_SAI2))
 8001e98:	687b      	ldr	r3, [r7, #4]
 8001e9a:	681b      	ldr	r3, [r3, #0]
 8001e9c:	f403 5380 	and.w	r3, r3, #4096	@ 0x1000
 8001ea0:	2b00      	cmp	r3, #0
 8001ea2:	d041      	beq.n	8001f28 <HAL_RCCEx_PeriphCLKConfig+0x130>
  {
    /* Check the parameters */
    assert_param(IS_RCC_SAI2CLK(PeriphClkInit->Sai2ClockSelection));

    switch(PeriphClkInit->Sai2ClockSelection)
 8001ea4:	687b      	ldr	r3, [r7, #4]
 8001ea6:	6e9b      	ldr	r3, [r3, #104]	@ 0x68
 8001ea8:	f1b3 7f40 	cmp.w	r3, #50331648	@ 0x3000000
 8001eac:	d02a      	beq.n	8001f04 <HAL_RCCEx_PeriphCLKConfig+0x10c>
 8001eae:	f1b3 7f40 	cmp.w	r3, #50331648	@ 0x3000000
 8001eb2:	d824      	bhi.n	8001efe <HAL_RCCEx_PeriphCLKConfig+0x106>
 8001eb4:	f1b3 7f00 	cmp.w	r3, #33554432	@ 0x2000000
 8001eb8:	d008      	beq.n	8001ecc <HAL_RCCEx_PeriphCLKConfig+0xd4>
 8001eba:	f1b3 7f00 	cmp.w	r3, #33554432	@ 0x2000000
 8001ebe:	d81e      	bhi.n	8001efe <HAL_RCCEx_PeriphCLKConfig+0x106>
 8001ec0:	2b00      	cmp	r3, #0
 8001ec2:	d00a      	beq.n	8001eda <HAL_RCCEx_PeriphCLKConfig+0xe2>
 8001ec4:	f1b3 7f80 	cmp.w	r3, #16777216	@ 0x1000000
 8001ec8:	d010      	beq.n	8001eec <HAL_RCCEx_PeriphCLKConfig+0xf4>
 8001eca:	e018      	b.n	8001efe <HAL_RCCEx_PeriphCLKConfig+0x106>
    {
    case RCC_SAI2CLKSOURCE_PLL:      /* PLL is used as clock source for SAI2*/
      /* Enable SAI Clock output generated from System PLL . */
      __HAL_RCC_PLLCLKOUT_ENABLE(RCC_PLL_SAI3CLK);
 8001ecc:	4b62      	ldr	r3, [pc, #392]	@ (8002058 <HAL_RCCEx_PeriphCLKConfig+0x260>)
 8001ece:	68db      	ldr	r3, [r3, #12]
 8001ed0:	4a61      	ldr	r2, [pc, #388]	@ (8002058 <HAL_RCCEx_PeriphCLKConfig+0x260>)
 8001ed2:	f443 3380 	orr.w	r3, r3, #65536	@ 0x10000
 8001ed6:	60d3      	str	r3, [r2, #12]
      /* SAI2 clock source config set later after clock selection check */
      break;
 8001ed8:	e015      	b.n	8001f06 <HAL_RCCEx_PeriphCLKConfig+0x10e>

    case RCC_SAI2CLKSOURCE_PLLSAI1: /* PLLSAI1 is used as clock source for SAI2*/
      /* PLLSAI1 input clock, parameters M, N & P configuration and clock output (PLLSAI1ClockOut) */
      ret = RCCEx_PLLSAI1_Config(&(PeriphClkInit->PLLSAI1), DIVIDER_P_UPDATE);
 8001eda:	687b      	ldr	r3, [r7, #4]
 8001edc:	3304      	adds	r3, #4
 8001ede:	2100      	movs	r1, #0
 8001ee0:	4618      	mov	r0, r3
 8001ee2:	f000 fa73 	bl	80023cc <RCCEx_PLLSAI1_Config>
 8001ee6:	4603      	mov	r3, r0
 8001ee8:	74fb      	strb	r3, [r7, #19]
      /* SAI2 clock source config set later after clock selection check */
      break;
 8001eea:	e00c      	b.n	8001f06 <HAL_RCCEx_PeriphCLKConfig+0x10e>

    case RCC_SAI2CLKSOURCE_PLLSAI2:  /* PLLSAI2 is used as clock source for SAI2*/
      /* PLLSAI2 input clock, parameters M, N & P configuration and clock output (PLLSAI2ClockOut) */
      ret = RCCEx_PLLSAI2_Config(&(PeriphClkInit->PLLSAI2), DIVIDER_P_UPDATE);
 8001eec:	687b      	ldr	r3, [r7, #4]
 8001eee:	3320      	adds	r3, #32
 8001ef0:	2100      	movs	r1, #0
 8001ef2:	4618      	mov	r0, r3
 8001ef4:	f000 fb5e 	bl	80025b4 <RCCEx_PLLSAI2_Config>
 8001ef8:	4603      	mov	r3, r0
 8001efa:	74fb      	strb	r3, [r7, #19]
      /* SAI2 clock source config set later after clock selection check */
      break;
 8001efc:	e003      	b.n	8001f06 <HAL_RCCEx_PeriphCLKConfig+0x10e>
#endif /* STM32L4P5xx || STM32L4Q5xx || STM32L4R5xx || STM32L4R7xx || STM32L4R9xx || STM32L4S5xx || STM32L4S7xx || STM32L4S9xx */
      /* SAI2 clock source config set later after clock selection check */
      break;

    default:
      ret = HAL_ERROR;
 8001efe:	2301      	movs	r3, #1
 8001f00:	74fb      	strb	r3, [r7, #19]
      break;
 8001f02:	e000      	b.n	8001f06 <HAL_RCCEx_PeriphCLKConfig+0x10e>
      break;
 8001f04:	bf00      	nop
    }

    if(ret == HAL_OK)
 8001f06:	7cfb      	ldrb	r3, [r7, #19]
 8001f08:	2b00      	cmp	r3, #0
 8001f0a:	d10b      	bne.n	8001f24 <HAL_RCCEx_PeriphCLKConfig+0x12c>
    {
      /* Set the source of SAI2 clock*/
      __HAL_RCC_SAI2_CONFIG(PeriphClkInit->Sai2ClockSelection);
 8001f0c:	4b52      	ldr	r3, [pc, #328]	@ (8002058 <HAL_RCCEx_PeriphCLKConfig+0x260>)
 8001f0e:	f8d3 3088 	ldr.w	r3, [r3, #136]	@ 0x88
 8001f12:	f023 7240 	bic.w	r2, r3, #50331648	@ 0x3000000
 8001f16:	687b      	ldr	r3, [r7, #4]
 8001f18:	6e9b      	ldr	r3, [r3, #104]	@ 0x68
 8001f1a:	494f      	ldr	r1, [pc, #316]	@ (8002058 <HAL_RCCEx_PeriphCLKConfig+0x260>)
 8001f1c:	4313      	orrs	r3, r2
 8001f1e:	f8c1 3088 	str.w	r3, [r1, #136]	@ 0x88
 8001f22:	e001      	b.n	8001f28 <HAL_RCCEx_PeriphCLKConfig+0x130>
    }
    else
    {
      /* set overall return value */
      status = ret;
 8001f24:	7cfb      	ldrb	r3, [r7, #19]
 8001f26:	74bb      	strb	r3, [r7, #18]
    }
  }
#endif /* SAI2 */

  /*-------------------------- RTC clock source configuration ----------------------*/
  if((PeriphClkInit->PeriphClockSelection & RCC_PERIPHCLK_RTC) == RCC_PERIPHCLK_RTC)
 8001f28:	687b      	ldr	r3, [r7, #4]
 8001f2a:	681b      	ldr	r3, [r3, #0]
 8001f2c:	f403 3300 	and.w	r3, r3, #131072	@ 0x20000
 8001f30:	2b00      	cmp	r3, #0
 8001f32:	f000 80a0 	beq.w	8002076 <HAL_RCCEx_PeriphCLKConfig+0x27e>
  {
    FlagStatus       pwrclkchanged = RESET;
 8001f36:	2300      	movs	r3, #0
 8001f38:	747b      	strb	r3, [r7, #17]

    /* Check for RTC Parameters used to output RTCCLK */
    assert_param(IS_RCC_RTCCLKSOURCE(PeriphClkInit->RTCClockSelection));

    /* Enable Power Clock */
    if(__HAL_RCC_PWR_IS_CLK_DISABLED() != 0U)
 8001f3a:	4b47      	ldr	r3, [pc, #284]	@ (8002058 <HAL_RCCEx_PeriphCLKConfig+0x260>)
 8001f3c:	6d9b      	ldr	r3, [r3, #88]	@ 0x58
 8001f3e:	f003 5380 	and.w	r3, r3, #268435456	@ 0x10000000
 8001f42:	2b00      	cmp	r3, #0
 8001f44:	d101      	bne.n	8001f4a <HAL_RCCEx_PeriphCLKConfig+0x152>
 8001f46:	2301      	movs	r3, #1
 8001f48:	e000      	b.n	8001f4c <HAL_RCCEx_PeriphCLKConfig+0x154>
 8001f4a:	2300      	movs	r3, #0
 8001f4c:	2b00      	cmp	r3, #0
 8001f4e:	d00d      	beq.n	8001f6c <HAL_RCCEx_PeriphCLKConfig+0x174>
    {
      __HAL_RCC_PWR_CLK_ENABLE();
 8001f50:	4b41      	ldr	r3, [pc, #260]	@ (8002058 <HAL_RCCEx_PeriphCLKConfig+0x260>)
 8001f52:	6d9b      	ldr	r3, [r3, #88]	@ 0x58
 8001f54:	4a40      	ldr	r2, [pc, #256]	@ (8002058 <HAL_RCCEx_PeriphCLKConfig+0x260>)
 8001f56:	f043 5380 	orr.w	r3, r3, #268435456	@ 0x10000000
 8001f5a:	6593      	str	r3, [r2, #88]	@ 0x58
 8001f5c:	4b3e      	ldr	r3, [pc, #248]	@ (8002058 <HAL_RCCEx_PeriphCLKConfig+0x260>)
 8001f5e:	6d9b      	ldr	r3, [r3, #88]	@ 0x58
 8001f60:	f003 5380 	and.w	r3, r3, #268435456	@ 0x10000000
 8001f64:	60bb      	str	r3, [r7, #8]
 8001f66:	68bb      	ldr	r3, [r7, #8]
      pwrclkchanged = SET;
 8001f68:	2301      	movs	r3, #1
 8001f6a:	747b      	strb	r3, [r7, #17]
    }

    /* Enable write access to Backup domain */
    SET_BIT(PWR->CR1, PWR_CR1_DBP);
 8001f6c:	4b3b      	ldr	r3, [pc, #236]	@ (800205c <HAL_RCCEx_PeriphCLKConfig+0x264>)
 8001f6e:	681b      	ldr	r3, [r3, #0]
 8001f70:	4a3a      	ldr	r2, [pc, #232]	@ (800205c <HAL_RCCEx_PeriphCLKConfig+0x264>)
 8001f72:	f443 7380 	orr.w	r3, r3, #256	@ 0x100
 8001f76:	6013      	str	r3, [r2, #0]

    /* Wait for Backup domain Write protection disable */
    tickstart = HAL_GetTick();
 8001f78:	f7fe fe26 	bl	8000bc8 <HAL_GetTick>
 8001f7c:	60f8      	str	r0, [r7, #12]

    while(READ_BIT(PWR->CR1, PWR_CR1_DBP) == 0U)
 8001f7e:	e009      	b.n	8001f94 <HAL_RCCEx_PeriphCLKConfig+0x19c>
    {
      if((HAL_GetTick() - tickstart) > RCC_DBP_TIMEOUT_VALUE)
 8001f80:	f7fe fe22 	bl	8000bc8 <HAL_GetTick>
 8001f84:	4602      	mov	r2, r0
 8001f86:	68fb      	ldr	r3, [r7, #12]
 8001f88:	1ad3      	subs	r3, r2, r3
 8001f8a:	2b02      	cmp	r3, #2
 8001f8c:	d902      	bls.n	8001f94 <HAL_RCCEx_PeriphCLKConfig+0x19c>
      {
        ret = HAL_TIMEOUT;
 8001f8e:	2303      	movs	r3, #3
 8001f90:	74fb      	strb	r3, [r7, #19]
        break;
 8001f92:	e005      	b.n	8001fa0 <HAL_RCCEx_PeriphCLKConfig+0x1a8>
    while(READ_BIT(PWR->CR1, PWR_CR1_DBP) == 0U)
 8001f94:	4b31      	ldr	r3, [pc, #196]	@ (800205c <HAL_RCCEx_PeriphCLKConfig+0x264>)
 8001f96:	681b      	ldr	r3, [r3, #0]
 8001f98:	f403 7380 	and.w	r3, r3, #256	@ 0x100
 8001f9c:	2b00      	cmp	r3, #0
 8001f9e:	d0ef      	beq.n	8001f80 <HAL_RCCEx_PeriphCLKConfig+0x188>
      }
    }

    if(ret == HAL_OK)
 8001fa0:	7cfb      	ldrb	r3, [r7, #19]
 8001fa2:	2b00      	cmp	r3, #0
 8001fa4:	d15c      	bne.n	8002060 <HAL_RCCEx_PeriphCLKConfig+0x268>
    {
      /* Reset the Backup domain only if the RTC Clock source selection is modified from default */
      tmpregister = READ_BIT(RCC->BDCR, RCC_BDCR_RTCSEL);
 8001fa6:	4b2c      	ldr	r3, [pc, #176]	@ (8002058 <HAL_RCCEx_PeriphCLKConfig+0x260>)
 8001fa8:	f8d3 3090 	ldr.w	r3, [r3, #144]	@ 0x90
 8001fac:	f403 7340 	and.w	r3, r3, #768	@ 0x300
 8001fb0:	617b      	str	r3, [r7, #20]

      if((tmpregister != RCC_RTCCLKSOURCE_NONE) && (tmpregister != PeriphClkInit->RTCClockSelection))
 8001fb2:	697b      	ldr	r3, [r7, #20]
 8001fb4:	2b00      	cmp	r3, #0
 8001fb6:	d01f      	beq.n	8001ff8 <HAL_RCCEx_PeriphCLKConfig+0x200>
 8001fb8:	687b      	ldr	r3, [r7, #4]
 8001fba:	f8d3 3084 	ldr.w	r3, [r3, #132]	@ 0x84
 8001fbe:	697a      	ldr	r2, [r7, #20]
 8001fc0:	429a      	cmp	r2, r3
 8001fc2:	d019      	beq.n	8001ff8 <HAL_RCCEx_PeriphCLKConfig+0x200>
      {
        /* Store the content of BDCR register before the reset of Backup Domain */
        tmpregister = READ_BIT(RCC->BDCR, ~(RCC_BDCR_RTCSEL));
 8001fc4:	4b24      	ldr	r3, [pc, #144]	@ (8002058 <HAL_RCCEx_PeriphCLKConfig+0x260>)
 8001fc6:	f8d3 3090 	ldr.w	r3, [r3, #144]	@ 0x90
 8001fca:	f423 7340 	bic.w	r3, r3, #768	@ 0x300
 8001fce:	617b      	str	r3, [r7, #20]
        /* RTC Clock selection can be changed only if the Backup Domain is reset */
        __HAL_RCC_BACKUPRESET_FORCE();
 8001fd0:	4b21      	ldr	r3, [pc, #132]	@ (8002058 <HAL_RCCEx_PeriphCLKConfig+0x260>)
 8001fd2:	f8d3 3090 	ldr.w	r3, [r3, #144]	@ 0x90
 8001fd6:	4a20      	ldr	r2, [pc, #128]	@ (8002058 <HAL_RCCEx_PeriphCLKConfig+0x260>)
 8001fd8:	f443 3380 	orr.w	r3, r3, #65536	@ 0x10000
 8001fdc:	f8c2 3090 	str.w	r3, [r2, #144]	@ 0x90
        __HAL_RCC_BACKUPRESET_RELEASE();
 8001fe0:	4b1d      	ldr	r3, [pc, #116]	@ (8002058 <HAL_RCCEx_PeriphCLKConfig+0x260>)
 8001fe2:	f8d3 3090 	ldr.w	r3, [r3, #144]	@ 0x90
 8001fe6:	4a1c      	ldr	r2, [pc, #112]	@ (8002058 <HAL_RCCEx_PeriphCLKConfig+0x260>)
 8001fe8:	f423 3380 	bic.w	r3, r3, #65536	@ 0x10000
 8001fec:	f8c2 3090 	str.w	r3, [r2, #144]	@ 0x90
        /* Restore the Content of BDCR register */
        RCC->BDCR = tmpregister;
 8001ff0:	4a19      	ldr	r2, [pc, #100]	@ (8002058 <HAL_RCCEx_PeriphCLKConfig+0x260>)
 8001ff2:	697b      	ldr	r3, [r7, #20]
 8001ff4:	f8c2 3090 	str.w	r3, [r2, #144]	@ 0x90
      }

      /* Wait for LSE reactivation if LSE was enable prior to Backup Domain reset */
      if (HAL_IS_BIT_SET(tmpregister, RCC_BDCR_LSEON))
 8001ff8:	697b      	ldr	r3, [r7, #20]
 8001ffa:	f003 0301 	and.w	r3, r3, #1
 8001ffe:	2b00      	cmp	r3, #0
 8002000:	d016      	beq.n	8002030 <HAL_RCCEx_PeriphCLKConfig+0x238>
      {
        /* Get Start Tick*/
        tickstart = HAL_GetTick();
 8002002:	f7fe fde1 	bl	8000bc8 <HAL_GetTick>
 8002006:	60f8      	str	r0, [r7, #12]

        /* Wait till LSE is ready */
        while(READ_BIT(RCC->BDCR, RCC_BDCR_LSERDY) == 0U)
 8002008:	e00b      	b.n	8002022 <HAL_RCCEx_PeriphCLKConfig+0x22a>
        {
          if((HAL_GetTick() - tickstart) > RCC_LSE_TIMEOUT_VALUE)
 800200a:	f7fe fddd 	bl	8000bc8 <HAL_GetTick>
 800200e:	4602      	mov	r2, r0
 8002010:	68fb      	ldr	r3, [r7, #12]
 8002012:	1ad3      	subs	r3, r2, r3
 8002014:	f241 3288 	movw	r2, #5000	@ 0x1388
 8002018:	4293      	cmp	r3, r2
 800201a:	d902      	bls.n	8002022 <HAL_RCCEx_PeriphCLKConfig+0x22a>
          {
            ret = HAL_TIMEOUT;
 800201c:	2303      	movs	r3, #3
 800201e:	74fb      	strb	r3, [r7, #19]
            break;
 8002020:	e006      	b.n	8002030 <HAL_RCCEx_PeriphCLKConfig+0x238>
        while(READ_BIT(RCC->BDCR, RCC_BDCR_LSERDY) == 0U)
 8002022:	4b0d      	ldr	r3, [pc, #52]	@ (8002058 <HAL_RCCEx_PeriphCLKConfig+0x260>)
 8002024:	f8d3 3090 	ldr.w	r3, [r3, #144]	@ 0x90
 8002028:	f003 0302 	and.w	r3, r3, #2
 800202c:	2b00      	cmp	r3, #0
 800202e:	d0ec      	beq.n	800200a <HAL_RCCEx_PeriphCLKConfig+0x212>
          }
        }
      }

      if(ret == HAL_OK)
 8002030:	7cfb      	ldrb	r3, [r7, #19]
 8002032:	2b00      	cmp	r3, #0
 8002034:	d10c      	bne.n	8002050 <HAL_RCCEx_PeriphCLKConfig+0x258>
      {
        /* Apply new RTC clock source selection */
        __HAL_RCC_RTC_CONFIG(PeriphClkInit->RTCClockSelection);
 8002036:	4b08      	ldr	r3, [pc, #32]	@ (8002058 <HAL_RCCEx_PeriphCLKConfig+0x260>)
 8002038:	f8d3 3090 	ldr.w	r3, [r3, #144]	@ 0x90
 800203c:	f423 7240 	bic.w	r2, r3, #768	@ 0x300
 8002040:	687b      	ldr	r3, [r7, #4]
 8002042:	f8d3 3084 	ldr.w	r3, [r3, #132]	@ 0x84
 8002046:	4904      	ldr	r1, [pc, #16]	@ (8002058 <HAL_RCCEx_PeriphCLKConfig+0x260>)
 8002048:	4313      	orrs	r3, r2
 800204a:	f8c1 3090 	str.w	r3, [r1, #144]	@ 0x90
 800204e:	e009      	b.n	8002064 <HAL_RCCEx_PeriphCLKConfig+0x26c>
      }
      else
      {
        /* set overall return value */
        status = ret;
 8002050:	7cfb      	ldrb	r3, [r7, #19]
 8002052:	74bb      	strb	r3, [r7, #18]
 8002054:	e006      	b.n	8002064 <HAL_RCCEx_PeriphCLKConfig+0x26c>
 8002056:	bf00      	nop
 8002058:	40021000 	.word	0x40021000
 800205c:	40007000 	.word	0x40007000
      }
    }
    else
    {
      /* set overall return value */
      status = ret;
 8002060:	7cfb      	ldrb	r3, [r7, #19]
 8002062:	74bb      	strb	r3, [r7, #18]
    }

    /* Restore clock configuration if changed */
    if(pwrclkchanged == SET)
 8002064:	7c7b      	ldrb	r3, [r7, #17]
 8002066:	2b01      	cmp	r3, #1
 8002068:	d105      	bne.n	8002076 <HAL_RCCEx_PeriphCLKConfig+0x27e>
    {
      __HAL_RCC_PWR_CLK_DISABLE();
 800206a:	4b9e      	ldr	r3, [pc, #632]	@ (80022e4 <HAL_RCCEx_PeriphCLKConfig+0x4ec>)
 800206c:	6d9b      	ldr	r3, [r3, #88]	@ 0x58
 800206e:	4a9d      	ldr	r2, [pc, #628]	@ (80022e4 <HAL_RCCEx_PeriphCLKConfig+0x4ec>)
 8002070:	f023 5380 	bic.w	r3, r3, #268435456	@ 0x10000000
 8002074:	6593      	str	r3, [r2, #88]	@ 0x58
    }
  }

  /*-------------------------- USART1 clock source configuration -------------------*/
  if(((PeriphClkInit->PeriphClockSelection) & RCC_PERIPHCLK_USART1) == RCC_PERIPHCLK_USART1)
 8002076:	687b      	ldr	r3, [r7, #4]
 8002078:	681b      	ldr	r3, [r3, #0]
 800207a:	f003 0301 	and.w	r3, r3, #1
 800207e:	2b00      	cmp	r3, #0
 8002080:	d00a      	beq.n	8002098 <HAL_RCCEx_PeriphCLKConfig+0x2a0>
  {
    /* Check the parameters */
    assert_param(IS_RCC_USART1CLKSOURCE(PeriphClkInit->Usart1ClockSelection));

    /* Configure the USART1 clock source */
    __HAL_RCC_USART1_CONFIG(PeriphClkInit->Usart1ClockSelection);
 8002082:	4b98      	ldr	r3, [pc, #608]	@ (80022e4 <HAL_RCCEx_PeriphCLKConfig+0x4ec>)
 8002084:	f8d3 3088 	ldr.w	r3, [r3, #136]	@ 0x88
 8002088:	f023 0203 	bic.w	r2, r3, #3
 800208c:	687b      	ldr	r3, [r7, #4]
 800208e:	6b9b      	ldr	r3, [r3, #56]	@ 0x38
 8002090:	4994      	ldr	r1, [pc, #592]	@ (80022e4 <HAL_RCCEx_PeriphCLKConfig+0x4ec>)
 8002092:	4313      	orrs	r3, r2
 8002094:	f8c1 3088 	str.w	r3, [r1, #136]	@ 0x88
  }

  /*-------------------------- USART2 clock source configuration -------------------*/
  if(((PeriphClkInit->PeriphClockSelection) & RCC_PERIPHCLK_USART2) == RCC_PERIPHCLK_USART2)
 8002098:	687b      	ldr	r3, [r7, #4]
 800209a:	681b      	ldr	r3, [r3, #0]
 800209c:	f003 0302 	and.w	r3, r3, #2
 80020a0:	2b00      	cmp	r3, #0
 80020a2:	d00a      	beq.n	80020ba <HAL_RCCEx_PeriphCLKConfig+0x2c2>
  {
    /* Check the parameters */
    assert_param(IS_RCC_USART2CLKSOURCE(PeriphClkInit->Usart2ClockSelection));

    /* Configure the USART2 clock source */
    __HAL_RCC_USART2_CONFIG(PeriphClkInit->Usart2ClockSelection);
 80020a4:	4b8f      	ldr	r3, [pc, #572]	@ (80022e4 <HAL_RCCEx_PeriphCLKConfig+0x4ec>)
 80020a6:	f8d3 3088 	ldr.w	r3, [r3, #136]	@ 0x88
 80020aa:	f023 020c 	bic.w	r2, r3, #12
 80020ae:	687b      	ldr	r3, [r7, #4]
 80020b0:	6bdb      	ldr	r3, [r3, #60]	@ 0x3c
 80020b2:	498c      	ldr	r1, [pc, #560]	@ (80022e4 <HAL_RCCEx_PeriphCLKConfig+0x4ec>)
 80020b4:	4313      	orrs	r3, r2
 80020b6:	f8c1 3088 	str.w	r3, [r1, #136]	@ 0x88
  }

#if defined(USART3)

  /*-------------------------- USART3 clock source configuration -------------------*/
  if(((PeriphClkInit->PeriphClockSelection) & RCC_PERIPHCLK_USART3) == RCC_PERIPHCLK_USART3)
 80020ba:	687b      	ldr	r3, [r7, #4]
 80020bc:	681b      	ldr	r3, [r3, #0]
 80020be:	f003 0304 	and.w	r3, r3, #4
 80020c2:	2b00      	cmp	r3, #0
 80020c4:	d00a      	beq.n	80020dc <HAL_RCCEx_PeriphCLKConfig+0x2e4>
  {
    /* Check the parameters */
    assert_param(IS_RCC_USART3CLKSOURCE(PeriphClkInit->Usart3ClockSelection));

    /* Configure the USART3 clock source */
    __HAL_RCC_USART3_CONFIG(PeriphClkInit->Usart3ClockSelection);
 80020c6:	4b87      	ldr	r3, [pc, #540]	@ (80022e4 <HAL_RCCEx_PeriphCLKConfig+0x4ec>)
 80020c8:	f8d3 3088 	ldr.w	r3, [r3, #136]	@ 0x88
 80020cc:	f023 0230 	bic.w	r2, r3, #48	@ 0x30
 80020d0:	687b      	ldr	r3, [r7, #4]
 80020d2:	6c1b      	ldr	r3, [r3, #64]	@ 0x40
 80020d4:	4983      	ldr	r1, [pc, #524]	@ (80022e4 <HAL_RCCEx_PeriphCLKConfig+0x4ec>)
 80020d6:	4313      	orrs	r3, r2
 80020d8:	f8c1 3088 	str.w	r3, [r1, #136]	@ 0x88
#endif /* USART3 */

#if defined(UART4)

  /*-------------------------- UART4 clock source configuration --------------------*/
  if(((PeriphClkInit->PeriphClockSelection) & RCC_PERIPHCLK_UART4) == RCC_PERIPHCLK_UART4)
 80020dc:	687b      	ldr	r3, [r7, #4]
 80020de:	681b      	ldr	r3, [r3, #0]
 80020e0:	f003 0308 	and.w	r3, r3, #8
 80020e4:	2b00      	cmp	r3, #0
 80020e6:	d00a      	beq.n	80020fe <HAL_RCCEx_PeriphCLKConfig+0x306>
  {
    /* Check the parameters */
    assert_param(IS_RCC_UART4CLKSOURCE(PeriphClkInit->Uart4ClockSelection));

    /* Configure the UART4 clock source */
    __HAL_RCC_UART4_CONFIG(PeriphClkInit->Uart4ClockSelection);
 80020e8:	4b7e      	ldr	r3, [pc, #504]	@ (80022e4 <HAL_RCCEx_PeriphCLKConfig+0x4ec>)
 80020ea:	f8d3 3088 	ldr.w	r3, [r3, #136]	@ 0x88
 80020ee:	f023 02c0 	bic.w	r2, r3, #192	@ 0xc0
 80020f2:	687b      	ldr	r3, [r7, #4]
 80020f4:	6c5b      	ldr	r3, [r3, #68]	@ 0x44
 80020f6:	497b      	ldr	r1, [pc, #492]	@ (80022e4 <HAL_RCCEx_PeriphCLKConfig+0x4ec>)
 80020f8:	4313      	orrs	r3, r2
 80020fa:	f8c1 3088 	str.w	r3, [r1, #136]	@ 0x88
#endif /* UART4 */

#if defined(UART5)

  /*-------------------------- UART5 clock source configuration --------------------*/
  if(((PeriphClkInit->PeriphClockSelection) & RCC_PERIPHCLK_UART5) == RCC_PERIPHCLK_UART5)
 80020fe:	687b      	ldr	r3, [r7, #4]
 8002100:	681b      	ldr	r3, [r3, #0]
 8002102:	f003 0310 	and.w	r3, r3, #16
 8002106:	2b00      	cmp	r3, #0
 8002108:	d00a      	beq.n	8002120 <HAL_RCCEx_PeriphCLKConfig+0x328>
  {
    /* Check the parameters */
    assert_param(IS_RCC_UART5CLKSOURCE(PeriphClkInit->Uart5ClockSelection));

    /* Configure the UART5 clock source */
    __HAL_RCC_UART5_CONFIG(PeriphClkInit->Uart5ClockSelection);
 800210a:	4b76      	ldr	r3, [pc, #472]	@ (80022e4 <HAL_RCCEx_PeriphCLKConfig+0x4ec>)
 800210c:	f8d3 3088 	ldr.w	r3, [r3, #136]	@ 0x88
 8002110:	f423 7240 	bic.w	r2, r3, #768	@ 0x300
 8002114:	687b      	ldr	r3, [r7, #4]
 8002116:	6c9b      	ldr	r3, [r3, #72]	@ 0x48
 8002118:	4972      	ldr	r1, [pc, #456]	@ (80022e4 <HAL_RCCEx_PeriphCLKConfig+0x4ec>)
 800211a:	4313      	orrs	r3, r2
 800211c:	f8c1 3088 	str.w	r3, [r1, #136]	@ 0x88
  }

#endif /* UART5 */

  /*-------------------------- LPUART1 clock source configuration ------------------*/
  if(((PeriphClkInit->PeriphClockSelection) & RCC_PERIPHCLK_LPUART1) == RCC_PERIPHCLK_LPUART1)
 8002120:	687b      	ldr	r3, [r7, #4]
 8002122:	681b      	ldr	r3, [r3, #0]
 8002124:	f003 0320 	and.w	r3, r3, #32
 8002128:	2b00      	cmp	r3, #0
 800212a:	d00a      	beq.n	8002142 <HAL_RCCEx_PeriphCLKConfig+0x34a>
  {
    /* Check the parameters */
    assert_param(IS_RCC_LPUART1CLKSOURCE(PeriphClkInit->Lpuart1ClockSelection));

    /* Configure the LPUART1 clock source */
    __HAL_RCC_LPUART1_CONFIG(PeriphClkInit->Lpuart1ClockSelection);
 800212c:	4b6d      	ldr	r3, [pc, #436]	@ (80022e4 <HAL_RCCEx_PeriphCLKConfig+0x4ec>)
 800212e:	f8d3 3088 	ldr.w	r3, [r3, #136]	@ 0x88
 8002132:	f423 6240 	bic.w	r2, r3, #3072	@ 0xc00
 8002136:	687b      	ldr	r3, [r7, #4]
 8002138:	6cdb      	ldr	r3, [r3, #76]	@ 0x4c
 800213a:	496a      	ldr	r1, [pc, #424]	@ (80022e4 <HAL_RCCEx_PeriphCLKConfig+0x4ec>)
 800213c:	4313      	orrs	r3, r2
 800213e:	f8c1 3088 	str.w	r3, [r1, #136]	@ 0x88
  }

  /*-------------------------- LPTIM1 clock source configuration -------------------*/
  if(((PeriphClkInit->PeriphClockSelection) & RCC_PERIPHCLK_LPTIM1) == (RCC_PERIPHCLK_LPTIM1))
 8002142:	687b      	ldr	r3, [r7, #4]
 8002144:	681b      	ldr	r3, [r3, #0]
 8002146:	f403 7300 	and.w	r3, r3, #512	@ 0x200
 800214a:	2b00      	cmp	r3, #0
 800214c:	d00a      	beq.n	8002164 <HAL_RCCEx_PeriphCLKConfig+0x36c>
  {
    assert_param(IS_RCC_LPTIM1CLK(PeriphClkInit->Lptim1ClockSelection));
    __HAL_RCC_LPTIM1_CONFIG(PeriphClkInit->Lptim1ClockSelection);
 800214e:	4b65      	ldr	r3, [pc, #404]	@ (80022e4 <HAL_RCCEx_PeriphCLKConfig+0x4ec>)
 8002150:	f8d3 3088 	ldr.w	r3, [r3, #136]	@ 0x88
 8002154:	f423 2240 	bic.w	r2, r3, #786432	@ 0xc0000
 8002158:	687b      	ldr	r3, [r7, #4]
 800215a:	6ddb      	ldr	r3, [r3, #92]	@ 0x5c
 800215c:	4961      	ldr	r1, [pc, #388]	@ (80022e4 <HAL_RCCEx_PeriphCLKConfig+0x4ec>)
 800215e:	4313      	orrs	r3, r2
 8002160:	f8c1 3088 	str.w	r3, [r1, #136]	@ 0x88
  }

  /*-------------------------- LPTIM2 clock source configuration -------------------*/
  if(((PeriphClkInit->PeriphClockSelection) & RCC_PERIPHCLK_LPTIM2) == (RCC_PERIPHCLK_LPTIM2))
 8002164:	687b      	ldr	r3, [r7, #4]
 8002166:	681b      	ldr	r3, [r3, #0]
 8002168:	f403 6380 	and.w	r3, r3, #1024	@ 0x400
 800216c:	2b00      	cmp	r3, #0
 800216e:	d00a      	beq.n	8002186 <HAL_RCCEx_PeriphCLKConfig+0x38e>
  {
    assert_param(IS_RCC_LPTIM2CLK(PeriphClkInit->Lptim2ClockSelection));
    __HAL_RCC_LPTIM2_CONFIG(PeriphClkInit->Lptim2ClockSelection);
 8002170:	4b5c      	ldr	r3, [pc, #368]	@ (80022e4 <HAL_RCCEx_PeriphCLKConfig+0x4ec>)
 8002172:	f8d3 3088 	ldr.w	r3, [r3, #136]	@ 0x88
 8002176:	f423 1240 	bic.w	r2, r3, #3145728	@ 0x300000
 800217a:	687b      	ldr	r3, [r7, #4]
 800217c:	6e1b      	ldr	r3, [r3, #96]	@ 0x60
 800217e:	4959      	ldr	r1, [pc, #356]	@ (80022e4 <HAL_RCCEx_PeriphCLKConfig+0x4ec>)
 8002180:	4313      	orrs	r3, r2
 8002182:	f8c1 3088 	str.w	r3, [r1, #136]	@ 0x88
  }

  /*-------------------------- I2C1 clock source configuration ---------------------*/
  if(((PeriphClkInit->PeriphClockSelection) & RCC_PERIPHCLK_I2C1) == RCC_PERIPHCLK_I2C1)
 8002186:	687b      	ldr	r3, [r7, #4]
 8002188:	681b      	ldr	r3, [r3, #0]
 800218a:	f003 0340 	and.w	r3, r3, #64	@ 0x40
 800218e:	2b00      	cmp	r3, #0
 8002190:	d00a      	beq.n	80021a8 <HAL_RCCEx_PeriphCLKConfig+0x3b0>
  {
    /* Check the parameters */
    assert_param(IS_RCC_I2C1CLKSOURCE(PeriphClkInit->I2c1ClockSelection));

    /* Configure the I2C1 clock source */
    __HAL_RCC_I2C1_CONFIG(PeriphClkInit->I2c1ClockSelection);
 8002192:	4b54      	ldr	r3, [pc, #336]	@ (80022e4 <HAL_RCCEx_PeriphCLKConfig+0x4ec>)
 8002194:	f8d3 3088 	ldr.w	r3, [r3, #136]	@ 0x88
 8002198:	f423 5240 	bic.w	r2, r3, #12288	@ 0x3000
 800219c:	687b      	ldr	r3, [r7, #4]
 800219e:	6d1b      	ldr	r3, [r3, #80]	@ 0x50
 80021a0:	4950      	ldr	r1, [pc, #320]	@ (80022e4 <HAL_RCCEx_PeriphCLKConfig+0x4ec>)
 80021a2:	4313      	orrs	r3, r2
 80021a4:	f8c1 3088 	str.w	r3, [r1, #136]	@ 0x88
  }

#if defined(I2C2)

  /*-------------------------- I2C2 clock source configuration ---------------------*/
  if(((PeriphClkInit->PeriphClockSelection) & RCC_PERIPHCLK_I2C2) == RCC_PERIPHCLK_I2C2)
 80021a8:	687b      	ldr	r3, [r7, #4]
 80021aa:	681b      	ldr	r3, [r3, #0]
 80021ac:	f003 0380 	and.w	r3, r3, #128	@ 0x80
 80021b0:	2b00      	cmp	r3, #0
 80021b2:	d00a      	beq.n	80021ca <HAL_RCCEx_PeriphCLKConfig+0x3d2>
  {
    /* Check the parameters */
    assert_param(IS_RCC_I2C2CLKSOURCE(PeriphClkInit->I2c2ClockSelection));

    /* Configure the I2C2 clock source */
    __HAL_RCC_I2C2_CONFIG(PeriphClkInit->I2c2ClockSelection);
 80021b4:	4b4b      	ldr	r3, [pc, #300]	@ (80022e4 <HAL_RCCEx_PeriphCLKConfig+0x4ec>)
 80021b6:	f8d3 3088 	ldr.w	r3, [r3, #136]	@ 0x88
 80021ba:	f423 4240 	bic.w	r2, r3, #49152	@ 0xc000
 80021be:	687b      	ldr	r3, [r7, #4]
 80021c0:	6d5b      	ldr	r3, [r3, #84]	@ 0x54
 80021c2:	4948      	ldr	r1, [pc, #288]	@ (80022e4 <HAL_RCCEx_PeriphCLKConfig+0x4ec>)
 80021c4:	4313      	orrs	r3, r2
 80021c6:	f8c1 3088 	str.w	r3, [r1, #136]	@ 0x88
  }

#endif /* I2C2 */

  /*-------------------------- I2C3 clock source configuration ---------------------*/
  if(((PeriphClkInit->PeriphClockSelection) & RCC_PERIPHCLK_I2C3) == RCC_PERIPHCLK_I2C3)
 80021ca:	687b      	ldr	r3, [r7, #4]
 80021cc:	681b      	ldr	r3, [r3, #0]
 80021ce:	f403 7380 	and.w	r3, r3, #256	@ 0x100
 80021d2:	2b00      	cmp	r3, #0
 80021d4:	d00a      	beq.n	80021ec <HAL_RCCEx_PeriphCLKConfig+0x3f4>
  {
    /* Check the parameters */
    assert_param(IS_RCC_I2C3CLKSOURCE(PeriphClkInit->I2c3ClockSelection));

    /* Configure the I2C3 clock source */
    __HAL_RCC_I2C3_CONFIG(PeriphClkInit->I2c3ClockSelection);
 80021d6:	4b43      	ldr	r3, [pc, #268]	@ (80022e4 <HAL_RCCEx_PeriphCLKConfig+0x4ec>)
 80021d8:	f8d3 3088 	ldr.w	r3, [r3, #136]	@ 0x88
 80021dc:	f423 3240 	bic.w	r2, r3, #196608	@ 0x30000
 80021e0:	687b      	ldr	r3, [r7, #4]
 80021e2:	6d9b      	ldr	r3, [r3, #88]	@ 0x58
 80021e4:	493f      	ldr	r1, [pc, #252]	@ (80022e4 <HAL_RCCEx_PeriphCLKConfig+0x4ec>)
 80021e6:	4313      	orrs	r3, r2
 80021e8:	f8c1 3088 	str.w	r3, [r1, #136]	@ 0x88
#endif /* I2C4 */

#if defined(USB_OTG_FS) || defined(USB)

  /*-------------------------- USB clock source configuration ----------------------*/
  if(((PeriphClkInit->PeriphClockSelection) & RCC_PERIPHCLK_USB) == (RCC_PERIPHCLK_USB))
 80021ec:	687b      	ldr	r3, [r7, #4]
 80021ee:	681b      	ldr	r3, [r3, #0]
 80021f0:	f403 5300 	and.w	r3, r3, #8192	@ 0x2000
 80021f4:	2b00      	cmp	r3, #0
 80021f6:	d028      	beq.n	800224a <HAL_RCCEx_PeriphCLKConfig+0x452>
  {
    assert_param(IS_RCC_USBCLKSOURCE(PeriphClkInit->UsbClockSelection));
    __HAL_RCC_USB_CONFIG(PeriphClkInit->UsbClockSelection);
 80021f8:	4b3a      	ldr	r3, [pc, #232]	@ (80022e4 <HAL_RCCEx_PeriphCLKConfig+0x4ec>)
 80021fa:	f8d3 3088 	ldr.w	r3, [r3, #136]	@ 0x88
 80021fe:	f023 6240 	bic.w	r2, r3, #201326592	@ 0xc000000
 8002202:	687b      	ldr	r3, [r7, #4]
 8002204:	6edb      	ldr	r3, [r3, #108]	@ 0x6c
 8002206:	4937      	ldr	r1, [pc, #220]	@ (80022e4 <HAL_RCCEx_PeriphCLKConfig+0x4ec>)
 8002208:	4313      	orrs	r3, r2
 800220a:	f8c1 3088 	str.w	r3, [r1, #136]	@ 0x88

    if(PeriphClkInit->UsbClockSelection == RCC_USBCLKSOURCE_PLL)
 800220e:	687b      	ldr	r3, [r7, #4]
 8002210:	6edb      	ldr	r3, [r3, #108]	@ 0x6c
 8002212:	f1b3 6f00 	cmp.w	r3, #134217728	@ 0x8000000
 8002216:	d106      	bne.n	8002226 <HAL_RCCEx_PeriphCLKConfig+0x42e>
    {
      /* Enable PLL48M1CLK output clock */
      __HAL_RCC_PLLCLKOUT_ENABLE(RCC_PLL_48M1CLK);
 8002218:	4b32      	ldr	r3, [pc, #200]	@ (80022e4 <HAL_RCCEx_PeriphCLKConfig+0x4ec>)
 800221a:	68db      	ldr	r3, [r3, #12]
 800221c:	4a31      	ldr	r2, [pc, #196]	@ (80022e4 <HAL_RCCEx_PeriphCLKConfig+0x4ec>)
 800221e:	f443 1380 	orr.w	r3, r3, #1048576	@ 0x100000
 8002222:	60d3      	str	r3, [r2, #12]
 8002224:	e011      	b.n	800224a <HAL_RCCEx_PeriphCLKConfig+0x452>
    }
    else
    {
#if defined(RCC_PLLSAI1_SUPPORT)
      if(PeriphClkInit->UsbClockSelection == RCC_USBCLKSOURCE_PLLSAI1)
 8002226:	687b      	ldr	r3, [r7, #4]
 8002228:	6edb      	ldr	r3, [r3, #108]	@ 0x6c
 800222a:	f1b3 6f80 	cmp.w	r3, #67108864	@ 0x4000000
 800222e:	d10c      	bne.n	800224a <HAL_RCCEx_PeriphCLKConfig+0x452>
      {
        /* PLLSAI1 input clock, parameters M, N & Q configuration and clock output (PLLSAI1ClockOut) */
        ret = RCCEx_PLLSAI1_Config(&(PeriphClkInit->PLLSAI1), DIVIDER_Q_UPDATE);
 8002230:	687b      	ldr	r3, [r7, #4]
 8002232:	3304      	adds	r3, #4
 8002234:	2101      	movs	r1, #1
 8002236:	4618      	mov	r0, r3
 8002238:	f000 f8c8 	bl	80023cc <RCCEx_PLLSAI1_Config>
 800223c:	4603      	mov	r3, r0
 800223e:	74fb      	strb	r3, [r7, #19]

        if(ret != HAL_OK)
 8002240:	7cfb      	ldrb	r3, [r7, #19]
 8002242:	2b00      	cmp	r3, #0
 8002244:	d001      	beq.n	800224a <HAL_RCCEx_PeriphCLKConfig+0x452>
        {
          /* set overall return value */
          status = ret;
 8002246:	7cfb      	ldrb	r3, [r7, #19]
 8002248:	74bb      	strb	r3, [r7, #18]
#endif /* USB_OTG_FS || USB */

#if defined(SDMMC1)

  /*-------------------------- SDMMC1 clock source configuration -------------------*/
  if(((PeriphClkInit->PeriphClockSelection) & RCC_PERIPHCLK_SDMMC1) == (RCC_PERIPHCLK_SDMMC1))
 800224a:	687b      	ldr	r3, [r7, #4]
 800224c:	681b      	ldr	r3, [r3, #0]
 800224e:	f403 2300 	and.w	r3, r3, #524288	@ 0x80000
 8002252:	2b00      	cmp	r3, #0
 8002254:	d028      	beq.n	80022a8 <HAL_RCCEx_PeriphCLKConfig+0x4b0>
  {
    assert_param(IS_RCC_SDMMC1CLKSOURCE(PeriphClkInit->Sdmmc1ClockSelection));
    __HAL_RCC_SDMMC1_CONFIG(PeriphClkInit->Sdmmc1ClockSelection);
 8002256:	4b23      	ldr	r3, [pc, #140]	@ (80022e4 <HAL_RCCEx_PeriphCLKConfig+0x4ec>)
 8002258:	f8d3 3088 	ldr.w	r3, [r3, #136]	@ 0x88
 800225c:	f023 6240 	bic.w	r2, r3, #201326592	@ 0xc000000
 8002260:	687b      	ldr	r3, [r7, #4]
 8002262:	6f1b      	ldr	r3, [r3, #112]	@ 0x70
 8002264:	491f      	ldr	r1, [pc, #124]	@ (80022e4 <HAL_RCCEx_PeriphCLKConfig+0x4ec>)
 8002266:	4313      	orrs	r3, r2
 8002268:	f8c1 3088 	str.w	r3, [r1, #136]	@ 0x88

    if(PeriphClkInit->Sdmmc1ClockSelection == RCC_SDMMC1CLKSOURCE_PLL)   /* PLL "Q" ? */
 800226c:	687b      	ldr	r3, [r7, #4]
 800226e:	6f1b      	ldr	r3, [r3, #112]	@ 0x70
 8002270:	f1b3 6f00 	cmp.w	r3, #134217728	@ 0x8000000
 8002274:	d106      	bne.n	8002284 <HAL_RCCEx_PeriphCLKConfig+0x48c>
    {
      /* Enable PLL48M1CLK output clock */
      __HAL_RCC_PLLCLKOUT_ENABLE(RCC_PLL_48M1CLK);
 8002276:	4b1b      	ldr	r3, [pc, #108]	@ (80022e4 <HAL_RCCEx_PeriphCLKConfig+0x4ec>)
 8002278:	68db      	ldr	r3, [r3, #12]
 800227a:	4a1a      	ldr	r2, [pc, #104]	@ (80022e4 <HAL_RCCEx_PeriphCLKConfig+0x4ec>)
 800227c:	f443 1380 	orr.w	r3, r3, #1048576	@ 0x100000
 8002280:	60d3      	str	r3, [r2, #12]
 8002282:	e011      	b.n	80022a8 <HAL_RCCEx_PeriphCLKConfig+0x4b0>
    {
      /* Enable PLLSAI3CLK output */
      __HAL_RCC_PLLCLKOUT_ENABLE(RCC_PLL_SAI3CLK);
    }
#endif
    else if(PeriphClkInit->Sdmmc1ClockSelection == RCC_SDMMC1CLKSOURCE_PLLSAI1)
 8002284:	687b      	ldr	r3, [r7, #4]
 8002286:	6f1b      	ldr	r3, [r3, #112]	@ 0x70
 8002288:	f1b3 6f80 	cmp.w	r3, #67108864	@ 0x4000000
 800228c:	d10c      	bne.n	80022a8 <HAL_RCCEx_PeriphCLKConfig+0x4b0>
    {
      /* PLLSAI1 input clock, parameters M, N & Q configuration and clock output (PLLSAI1ClockOut) */
      ret = RCCEx_PLLSAI1_Config(&(PeriphClkInit->PLLSAI1), DIVIDER_Q_UPDATE);
 800228e:	687b      	ldr	r3, [r7, #4]
 8002290:	3304      	adds	r3, #4
 8002292:	2101      	movs	r1, #1
 8002294:	4618      	mov	r0, r3
 8002296:	f000 f899 	bl	80023cc <RCCEx_PLLSAI1_Config>
 800229a:	4603      	mov	r3, r0
 800229c:	74fb      	strb	r3, [r7, #19]

      if(ret != HAL_OK)
 800229e:	7cfb      	ldrb	r3, [r7, #19]
 80022a0:	2b00      	cmp	r3, #0
 80022a2:	d001      	beq.n	80022a8 <HAL_RCCEx_PeriphCLKConfig+0x4b0>
      {
        /* set overall return value */
        status = ret;
 80022a4:	7cfb      	ldrb	r3, [r7, #19]
 80022a6:	74bb      	strb	r3, [r7, #18]
  }

#endif /* SDMMC1 */

  /*-------------------------- RNG clock source configuration ----------------------*/
  if(((PeriphClkInit->PeriphClockSelection) & RCC_PERIPHCLK_RNG) == (RCC_PERIPHCLK_RNG))
 80022a8:	687b      	ldr	r3, [r7, #4]
 80022aa:	681b      	ldr	r3, [r3, #0]
 80022ac:	f403 2380 	and.w	r3, r3, #262144	@ 0x40000
 80022b0:	2b00      	cmp	r3, #0
 80022b2:	d02b      	beq.n	800230c <HAL_RCCEx_PeriphCLKConfig+0x514>
  {
    assert_param(IS_RCC_RNGCLKSOURCE(PeriphClkInit->RngClockSelection));
    __HAL_RCC_RNG_CONFIG(PeriphClkInit->RngClockSelection);
 80022b4:	4b0b      	ldr	r3, [pc, #44]	@ (80022e4 <HAL_RCCEx_PeriphCLKConfig+0x4ec>)
 80022b6:	f8d3 3088 	ldr.w	r3, [r3, #136]	@ 0x88
 80022ba:	f023 6240 	bic.w	r2, r3, #201326592	@ 0xc000000
 80022be:	687b      	ldr	r3, [r7, #4]
 80022c0:	6f5b      	ldr	r3, [r3, #116]	@ 0x74
 80022c2:	4908      	ldr	r1, [pc, #32]	@ (80022e4 <HAL_RCCEx_PeriphCLKConfig+0x4ec>)
 80022c4:	4313      	orrs	r3, r2
 80022c6:	f8c1 3088 	str.w	r3, [r1, #136]	@ 0x88

    if(PeriphClkInit->RngClockSelection == RCC_RNGCLKSOURCE_PLL)
 80022ca:	687b      	ldr	r3, [r7, #4]
 80022cc:	6f5b      	ldr	r3, [r3, #116]	@ 0x74
 80022ce:	f1b3 6f00 	cmp.w	r3, #134217728	@ 0x8000000
 80022d2:	d109      	bne.n	80022e8 <HAL_RCCEx_PeriphCLKConfig+0x4f0>
    {
      /* Enable PLL48M1CLK output clock */
      __HAL_RCC_PLLCLKOUT_ENABLE(RCC_PLL_48M1CLK);
 80022d4:	4b03      	ldr	r3, [pc, #12]	@ (80022e4 <HAL_RCCEx_PeriphCLKConfig+0x4ec>)
 80022d6:	68db      	ldr	r3, [r3, #12]
 80022d8:	4a02      	ldr	r2, [pc, #8]	@ (80022e4 <HAL_RCCEx_PeriphCLKConfig+0x4ec>)
 80022da:	f443 1380 	orr.w	r3, r3, #1048576	@ 0x100000
 80022de:	60d3      	str	r3, [r2, #12]
 80022e0:	e014      	b.n	800230c <HAL_RCCEx_PeriphCLKConfig+0x514>
 80022e2:	bf00      	nop
 80022e4:	40021000 	.word	0x40021000
    }
#if defined(RCC_PLLSAI1_SUPPORT)
    else if(PeriphClkInit->RngClockSelection == RCC_RNGCLKSOURCE_PLLSAI1)
 80022e8:	687b      	ldr	r3, [r7, #4]
 80022ea:	6f5b      	ldr	r3, [r3, #116]	@ 0x74
 80022ec:	f1b3 6f80 	cmp.w	r3, #67108864	@ 0x4000000
 80022f0:	d10c      	bne.n	800230c <HAL_RCCEx_PeriphCLKConfig+0x514>
    {
      /* PLLSAI1 input clock, parameters M, N & Q configuration and clock output (PLLSAI1ClockOut) */
      ret = RCCEx_PLLSAI1_Config(&(PeriphClkInit->PLLSAI1), DIVIDER_Q_UPDATE);
 80022f2:	687b      	ldr	r3, [r7, #4]
 80022f4:	3304      	adds	r3, #4
 80022f6:	2101      	movs	r1, #1
 80022f8:	4618      	mov	r0, r3
 80022fa:	f000 f867 	bl	80023cc <RCCEx_PLLSAI1_Config>
 80022fe:	4603      	mov	r3, r0
 8002300:	74fb      	strb	r3, [r7, #19]

      if(ret != HAL_OK)
 8002302:	7cfb      	ldrb	r3, [r7, #19]
 8002304:	2b00      	cmp	r3, #0
 8002306:	d001      	beq.n	800230c <HAL_RCCEx_PeriphCLKConfig+0x514>
      {
        /* set overall return value */
        status = ret;
 8002308:	7cfb      	ldrb	r3, [r7, #19]
 800230a:	74bb      	strb	r3, [r7, #18]
    }
  }

  /*-------------------------- ADC clock source configuration ----------------------*/
#if !defined(STM32L412xx) && !defined(STM32L422xx)
  if(((PeriphClkInit->PeriphClockSelection) & RCC_PERIPHCLK_ADC) == RCC_PERIPHCLK_ADC)
 800230c:	687b      	ldr	r3, [r7, #4]
 800230e:	681b      	ldr	r3, [r3, #0]
 8002310:	f403 4380 	and.w	r3, r3, #16384	@ 0x4000
 8002314:	2b00      	cmp	r3, #0
 8002316:	d02f      	beq.n	8002378 <HAL_RCCEx_PeriphCLKConfig+0x580>
  {
    /* Check the parameters */
    assert_param(IS_RCC_ADCCLKSOURCE(PeriphClkInit->AdcClockSelection));

    /* Configure the ADC interface clock source */
    __HAL_RCC_ADC_CONFIG(PeriphClkInit->AdcClockSelection);
 8002318:	4b2b      	ldr	r3, [pc, #172]	@ (80023c8 <HAL_RCCEx_PeriphCLKConfig+0x5d0>)
 800231a:	f8d3 3088 	ldr.w	r3, [r3, #136]	@ 0x88
 800231e:	f023 5240 	bic.w	r2, r3, #805306368	@ 0x30000000
 8002322:	687b      	ldr	r3, [r7, #4]
 8002324:	6f9b      	ldr	r3, [r3, #120]	@ 0x78
 8002326:	4928      	ldr	r1, [pc, #160]	@ (80023c8 <HAL_RCCEx_PeriphCLKConfig+0x5d0>)
 8002328:	4313      	orrs	r3, r2
 800232a:	f8c1 3088 	str.w	r3, [r1, #136]	@ 0x88

#if defined(RCC_PLLSAI1_SUPPORT)
    if(PeriphClkInit->AdcClockSelection == RCC_ADCCLKSOURCE_PLLSAI1)
 800232e:	687b      	ldr	r3, [r7, #4]
 8002330:	6f9b      	ldr	r3, [r3, #120]	@ 0x78
 8002332:	f1b3 5f80 	cmp.w	r3, #268435456	@ 0x10000000
 8002336:	d10d      	bne.n	8002354 <HAL_RCCEx_PeriphCLKConfig+0x55c>
    {
      /* PLLSAI1 input clock, parameters M, N & R configuration and clock output (PLLSAI1ClockOut) */
      ret = RCCEx_PLLSAI1_Config(&(PeriphClkInit->PLLSAI1), DIVIDER_R_UPDATE);
 8002338:	687b      	ldr	r3, [r7, #4]
 800233a:	3304      	adds	r3, #4
 800233c:	2102      	movs	r1, #2
 800233e:	4618      	mov	r0, r3
 8002340:	f000 f844 	bl	80023cc <RCCEx_PLLSAI1_Config>
 8002344:	4603      	mov	r3, r0
 8002346:	74fb      	strb	r3, [r7, #19]

      if(ret != HAL_OK)
 8002348:	7cfb      	ldrb	r3, [r7, #19]
 800234a:	2b00      	cmp	r3, #0
 800234c:	d014      	beq.n	8002378 <HAL_RCCEx_PeriphCLKConfig+0x580>
      {
        /* set overall return value */
        status = ret;
 800234e:	7cfb      	ldrb	r3, [r7, #19]
 8002350:	74bb      	strb	r3, [r7, #18]
 8002352:	e011      	b.n	8002378 <HAL_RCCEx_PeriphCLKConfig+0x580>
    }
#endif /* RCC_PLLSAI1_SUPPORT */

#if defined(STM32L471xx) || defined(STM32L475xx) || defined(STM32L476xx) || defined(STM32L485xx) || defined(STM32L486xx) || defined(STM32L496xx) || defined(STM32L4A6xx)

    else if(PeriphClkInit->AdcClockSelection == RCC_ADCCLKSOURCE_PLLSAI2)
 8002354:	687b      	ldr	r3, [r7, #4]
 8002356:	6f9b      	ldr	r3, [r3, #120]	@ 0x78
 8002358:	f1b3 5f00 	cmp.w	r3, #536870912	@ 0x20000000
 800235c:	d10c      	bne.n	8002378 <HAL_RCCEx_PeriphCLKConfig+0x580>
    {
      /* PLLSAI2 input clock, parameters M, N & R configuration and clock output (PLLSAI2ClockOut) */
      ret = RCCEx_PLLSAI2_Config(&(PeriphClkInit->PLLSAI2), DIVIDER_R_UPDATE);
 800235e:	687b      	ldr	r3, [r7, #4]
 8002360:	3320      	adds	r3, #32
 8002362:	2102      	movs	r1, #2
 8002364:	4618      	mov	r0, r3
 8002366:	f000 f925 	bl	80025b4 <RCCEx_PLLSAI2_Config>
 800236a:	4603      	mov	r3, r0
 800236c:	74fb      	strb	r3, [r7, #19]

      if(ret != HAL_OK)
 800236e:	7cfb      	ldrb	r3, [r7, #19]
 8002370:	2b00      	cmp	r3, #0
 8002372:	d001      	beq.n	8002378 <HAL_RCCEx_PeriphCLKConfig+0x580>
      {
        /* set overall return value */
        status = ret;
 8002374:	7cfb      	ldrb	r3, [r7, #19]
 8002376:	74bb      	strb	r3, [r7, #18]
#endif /* !STM32L412xx && !STM32L422xx */

#if defined(SWPMI1)

  /*-------------------------- SWPMI1 clock source configuration -------------------*/
  if(((PeriphClkInit->PeriphClockSelection) & RCC_PERIPHCLK_SWPMI1) == RCC_PERIPHCLK_SWPMI1)
 8002378:	687b      	ldr	r3, [r7, #4]
 800237a:	681b      	ldr	r3, [r3, #0]
 800237c:	f403 4300 	and.w	r3, r3, #32768	@ 0x8000
 8002380:	2b00      	cmp	r3, #0
 8002382:	d00a      	beq.n	800239a <HAL_RCCEx_PeriphCLKConfig+0x5a2>
  {
    /* Check the parameters */
    assert_param(IS_RCC_SWPMI1CLKSOURCE(PeriphClkInit->Swpmi1ClockSelection));

    /* Configure the SWPMI1 clock source */
    __HAL_RCC_SWPMI1_CONFIG(PeriphClkInit->Swpmi1ClockSelection);
 8002384:	4b10      	ldr	r3, [pc, #64]	@ (80023c8 <HAL_RCCEx_PeriphCLKConfig+0x5d0>)
 8002386:	f8d3 3088 	ldr.w	r3, [r3, #136]	@ 0x88
 800238a:	f023 4280 	bic.w	r2, r3, #1073741824	@ 0x40000000
 800238e:	687b      	ldr	r3, [r7, #4]
 8002390:	6fdb      	ldr	r3, [r3, #124]	@ 0x7c
 8002392:	490d      	ldr	r1, [pc, #52]	@ (80023c8 <HAL_RCCEx_PeriphCLKConfig+0x5d0>)
 8002394:	4313      	orrs	r3, r2
 8002396:	f8c1 3088 	str.w	r3, [r1, #136]	@ 0x88
#endif /* SWPMI1 */

#if defined(DFSDM1_Filter0)

  /*-------------------------- DFSDM1 clock source configuration -------------------*/
  if(((PeriphClkInit->PeriphClockSelection) & RCC_PERIPHCLK_DFSDM1) == RCC_PERIPHCLK_DFSDM1)
 800239a:	687b      	ldr	r3, [r7, #4]
 800239c:	681b      	ldr	r3, [r3, #0]
 800239e:	f403 3380 	and.w	r3, r3, #65536	@ 0x10000
 80023a2:	2b00      	cmp	r3, #0
 80023a4:	d00b      	beq.n	80023be <HAL_RCCEx_PeriphCLKConfig+0x5c6>
  {
    /* Check the parameters */
    assert_param(IS_RCC_DFSDM1CLKSOURCE(PeriphClkInit->Dfsdm1ClockSelection));

    /* Configure the DFSDM1 interface clock source */
    __HAL_RCC_DFSDM1_CONFIG(PeriphClkInit->Dfsdm1ClockSelection);
 80023a6:	4b08      	ldr	r3, [pc, #32]	@ (80023c8 <HAL_RCCEx_PeriphCLKConfig+0x5d0>)
 80023a8:	f8d3 3088 	ldr.w	r3, [r3, #136]	@ 0x88
 80023ac:	f023 4200 	bic.w	r2, r3, #2147483648	@ 0x80000000
 80023b0:	687b      	ldr	r3, [r7, #4]
 80023b2:	f8d3 3080 	ldr.w	r3, [r3, #128]	@ 0x80
 80023b6:	4904      	ldr	r1, [pc, #16]	@ (80023c8 <HAL_RCCEx_PeriphCLKConfig+0x5d0>)
 80023b8:	4313      	orrs	r3, r2
 80023ba:	f8c1 3088 	str.w	r3, [r1, #136]	@ 0x88
    }
  }

#endif /* OCTOSPI1 || OCTOSPI2 */

  return status;
 80023be:	7cbb      	ldrb	r3, [r7, #18]
}
 80023c0:	4618      	mov	r0, r3
 80023c2:	3718      	adds	r7, #24
 80023c4:	46bd      	mov	sp, r7
 80023c6:	bd80      	pop	{r7, pc}
 80023c8:	40021000 	.word	0x40021000

080023cc <RCCEx_PLLSAI1_Config>:
  * @note   PLLSAI1 is temporary disable to apply new parameters
  *
  * @retval HAL status
  */
static HAL_StatusTypeDef RCCEx_PLLSAI1_Config(RCC_PLLSAI1InitTypeDef *PllSai1, uint32_t Divider)
{
 80023cc:	b580      	push	{r7, lr}
 80023ce:	b084      	sub	sp, #16
 80023d0:	af00      	add	r7, sp, #0
 80023d2:	6078      	str	r0, [r7, #4]
 80023d4:	6039      	str	r1, [r7, #0]
  uint32_t tickstart;
  HAL_StatusTypeDef status = HAL_OK;
 80023d6:	2300      	movs	r3, #0
 80023d8:	73fb      	strb	r3, [r7, #15]
  assert_param(IS_RCC_PLLSAI1M_VALUE(PllSai1->PLLSAI1M));
  assert_param(IS_RCC_PLLSAI1N_VALUE(PllSai1->PLLSAI1N));
  assert_param(IS_RCC_PLLSAI1CLOCKOUT_VALUE(PllSai1->PLLSAI1ClockOut));

  /* Check that PLLSAI1 clock source and divider M can be applied */
  if(__HAL_RCC_GET_PLL_OSCSOURCE() != RCC_PLLSOURCE_NONE)
 80023da:	4b75      	ldr	r3, [pc, #468]	@ (80025b0 <RCCEx_PLLSAI1_Config+0x1e4>)
 80023dc:	68db      	ldr	r3, [r3, #12]
 80023de:	f003 0303 	and.w	r3, r3, #3
 80023e2:	2b00      	cmp	r3, #0
 80023e4:	d018      	beq.n	8002418 <RCCEx_PLLSAI1_Config+0x4c>
  {
    /* PLL clock source and divider M already set, check that no request for change  */
    if((__HAL_RCC_GET_PLL_OSCSOURCE() != PllSai1->PLLSAI1Source)
 80023e6:	4b72      	ldr	r3, [pc, #456]	@ (80025b0 <RCCEx_PLLSAI1_Config+0x1e4>)
 80023e8:	68db      	ldr	r3, [r3, #12]
 80023ea:	f003 0203 	and.w	r2, r3, #3
 80023ee:	687b      	ldr	r3, [r7, #4]
 80023f0:	681b      	ldr	r3, [r3, #0]
 80023f2:	429a      	cmp	r2, r3
 80023f4:	d10d      	bne.n	8002412 <RCCEx_PLLSAI1_Config+0x46>
       ||
       (PllSai1->PLLSAI1Source == RCC_PLLSOURCE_NONE)
 80023f6:	687b      	ldr	r3, [r7, #4]
 80023f8:	681b      	ldr	r3, [r3, #0]
       ||
 80023fa:	2b00      	cmp	r3, #0
 80023fc:	d009      	beq.n	8002412 <RCCEx_PLLSAI1_Config+0x46>
#if !defined(RCC_PLLSAI1M_DIV_1_16_SUPPORT)
       ||
       (((READ_BIT(RCC->PLLCFGR, RCC_PLLCFGR_PLLM) >> RCC_PLLCFGR_PLLM_Pos) + 1U) != PllSai1->PLLSAI1M)
 80023fe:	4b6c      	ldr	r3, [pc, #432]	@ (80025b0 <RCCEx_PLLSAI1_Config+0x1e4>)
 8002400:	68db      	ldr	r3, [r3, #12]
 8002402:	091b      	lsrs	r3, r3, #4
 8002404:	f003 0307 	and.w	r3, r3, #7
 8002408:	1c5a      	adds	r2, r3, #1
 800240a:	687b      	ldr	r3, [r7, #4]
 800240c:	685b      	ldr	r3, [r3, #4]
       ||
 800240e:	429a      	cmp	r2, r3
 8002410:	d047      	beq.n	80024a2 <RCCEx_PLLSAI1_Config+0xd6>
#endif
      )
    {
      status = HAL_ERROR;
 8002412:	2301      	movs	r3, #1
 8002414:	73fb      	strb	r3, [r7, #15]
 8002416:	e044      	b.n	80024a2 <RCCEx_PLLSAI1_Config+0xd6>
    }
  }
  else
  {
    /* Check PLLSAI1 clock source availability */
    switch(PllSai1->PLLSAI1Source)
 8002418:	687b      	ldr	r3, [r7, #4]
 800241a:	681b      	ldr	r3, [r3, #0]
 800241c:	2b03      	cmp	r3, #3
 800241e:	d018      	beq.n	8002452 <RCCEx_PLLSAI1_Config+0x86>
 8002420:	2b03      	cmp	r3, #3
 8002422:	d825      	bhi.n	8002470 <RCCEx_PLLSAI1_Config+0xa4>
 8002424:	2b01      	cmp	r3, #1
 8002426:	d002      	beq.n	800242e <RCCEx_PLLSAI1_Config+0x62>
 8002428:	2b02      	cmp	r3, #2
 800242a:	d009      	beq.n	8002440 <RCCEx_PLLSAI1_Config+0x74>
 800242c:	e020      	b.n	8002470 <RCCEx_PLLSAI1_Config+0xa4>
    {
    case RCC_PLLSOURCE_MSI:
      if(HAL_IS_BIT_CLR(RCC->CR, RCC_CR_MSIRDY))
 800242e:	4b60      	ldr	r3, [pc, #384]	@ (80025b0 <RCCEx_PLLSAI1_Config+0x1e4>)
 8002430:	681b      	ldr	r3, [r3, #0]
 8002432:	f003 0302 	and.w	r3, r3, #2
 8002436:	2b00      	cmp	r3, #0
 8002438:	d11d      	bne.n	8002476 <RCCEx_PLLSAI1_Config+0xaa>
      {
        status = HAL_ERROR;
 800243a:	2301      	movs	r3, #1
 800243c:	73fb      	strb	r3, [r7, #15]
      }
      break;
 800243e:	e01a      	b.n	8002476 <RCCEx_PLLSAI1_Config+0xaa>
    case RCC_PLLSOURCE_HSI:
      if(HAL_IS_BIT_CLR(RCC->CR, RCC_CR_HSIRDY))
 8002440:	4b5b      	ldr	r3, [pc, #364]	@ (80025b0 <RCCEx_PLLSAI1_Config+0x1e4>)
 8002442:	681b      	ldr	r3, [r3, #0]
 8002444:	f403 6380 	and.w	r3, r3, #1024	@ 0x400
 8002448:	2b00      	cmp	r3, #0
 800244a:	d116      	bne.n	800247a <RCCEx_PLLSAI1_Config+0xae>
      {
        status = HAL_ERROR;
 800244c:	2301      	movs	r3, #1
 800244e:	73fb      	strb	r3, [r7, #15]
      }
      break;
 8002450:	e013      	b.n	800247a <RCCEx_PLLSAI1_Config+0xae>
    case RCC_PLLSOURCE_HSE:
      if(HAL_IS_BIT_CLR(RCC->CR, RCC_CR_HSERDY))
 8002452:	4b57      	ldr	r3, [pc, #348]	@ (80025b0 <RCCEx_PLLSAI1_Config+0x1e4>)
 8002454:	681b      	ldr	r3, [r3, #0]
 8002456:	f403 3300 	and.w	r3, r3, #131072	@ 0x20000
 800245a:	2b00      	cmp	r3, #0
 800245c:	d10f      	bne.n	800247e <RCCEx_PLLSAI1_Config+0xb2>
      {
        if(HAL_IS_BIT_CLR(RCC->CR, RCC_CR_HSEBYP))
 800245e:	4b54      	ldr	r3, [pc, #336]	@ (80025b0 <RCCEx_PLLSAI1_Config+0x1e4>)
 8002460:	681b      	ldr	r3, [r3, #0]
 8002462:	f403 2380 	and.w	r3, r3, #262144	@ 0x40000
 8002466:	2b00      	cmp	r3, #0
 8002468:	d109      	bne.n	800247e <RCCEx_PLLSAI1_Config+0xb2>
        {
          status = HAL_ERROR;
 800246a:	2301      	movs	r3, #1
 800246c:	73fb      	strb	r3, [r7, #15]
        }
      }
      break;
 800246e:	e006      	b.n	800247e <RCCEx_PLLSAI1_Config+0xb2>
    default:
      status = HAL_ERROR;
 8002470:	2301      	movs	r3, #1
 8002472:	73fb      	strb	r3, [r7, #15]
      break;
 8002474:	e004      	b.n	8002480 <RCCEx_PLLSAI1_Config+0xb4>
      break;
 8002476:	bf00      	nop
 8002478:	e002      	b.n	8002480 <RCCEx_PLLSAI1_Config+0xb4>
      break;
 800247a:	bf00      	nop
 800247c:	e000      	b.n	8002480 <RCCEx_PLLSAI1_Config+0xb4>
      break;
 800247e:	bf00      	nop
    }

    if(status == HAL_OK)
 8002480:	7bfb      	ldrb	r3, [r7, #15]
 8002482:	2b00      	cmp	r3, #0
 8002484:	d10d      	bne.n	80024a2 <RCCEx_PLLSAI1_Config+0xd6>
#if defined(RCC_PLLSAI1M_DIV_1_16_SUPPORT)
      /* Set PLLSAI1 clock source */
      MODIFY_REG(RCC->PLLCFGR, RCC_PLLCFGR_PLLSRC, PllSai1->PLLSAI1Source);
#else
      /* Set PLLSAI1 clock source and divider M */
      MODIFY_REG(RCC->PLLCFGR, RCC_PLLCFGR_PLLSRC | RCC_PLLCFGR_PLLM, PllSai1->PLLSAI1Source | (PllSai1->PLLSAI1M - 1U) << RCC_PLLCFGR_PLLM_Pos);
 8002486:	4b4a      	ldr	r3, [pc, #296]	@ (80025b0 <RCCEx_PLLSAI1_Config+0x1e4>)
 8002488:	68db      	ldr	r3, [r3, #12]
 800248a:	f023 0273 	bic.w	r2, r3, #115	@ 0x73
 800248e:	687b      	ldr	r3, [r7, #4]
 8002490:	6819      	ldr	r1, [r3, #0]
 8002492:	687b      	ldr	r3, [r7, #4]
 8002494:	685b      	ldr	r3, [r3, #4]
 8002496:	3b01      	subs	r3, #1
 8002498:	011b      	lsls	r3, r3, #4
 800249a:	430b      	orrs	r3, r1
 800249c:	4944      	ldr	r1, [pc, #272]	@ (80025b0 <RCCEx_PLLSAI1_Config+0x1e4>)
 800249e:	4313      	orrs	r3, r2
 80024a0:	60cb      	str	r3, [r1, #12]
#endif
    }
  }

  if(status == HAL_OK)
 80024a2:	7bfb      	ldrb	r3, [r7, #15]
 80024a4:	2b00      	cmp	r3, #0
 80024a6:	d17d      	bne.n	80025a4 <RCCEx_PLLSAI1_Config+0x1d8>
  {
    /* Disable the PLLSAI1 */
    __HAL_RCC_PLLSAI1_DISABLE();
 80024a8:	4b41      	ldr	r3, [pc, #260]	@ (80025b0 <RCCEx_PLLSAI1_Config+0x1e4>)
 80024aa:	681b      	ldr	r3, [r3, #0]
 80024ac:	4a40      	ldr	r2, [pc, #256]	@ (80025b0 <RCCEx_PLLSAI1_Config+0x1e4>)
 80024ae:	f023 6380 	bic.w	r3, r3, #67108864	@ 0x4000000
 80024b2:	6013      	str	r3, [r2, #0]

    /* Get Start Tick*/
    tickstart = HAL_GetTick();
 80024b4:	f7fe fb88 	bl	8000bc8 <HAL_GetTick>
 80024b8:	60b8      	str	r0, [r7, #8]

    /* Wait till PLLSAI1 is ready to be updated */
    while(READ_BIT(RCC->CR, RCC_CR_PLLSAI1RDY) != 0U)
 80024ba:	e009      	b.n	80024d0 <RCCEx_PLLSAI1_Config+0x104>
    {
      if((HAL_GetTick() - tickstart) > PLLSAI1_TIMEOUT_VALUE)
 80024bc:	f7fe fb84 	bl	8000bc8 <HAL_GetTick>
 80024c0:	4602      	mov	r2, r0
 80024c2:	68bb      	ldr	r3, [r7, #8]
 80024c4:	1ad3      	subs	r3, r2, r3
 80024c6:	2b02      	cmp	r3, #2
 80024c8:	d902      	bls.n	80024d0 <RCCEx_PLLSAI1_Config+0x104>
      {
        status = HAL_TIMEOUT;
 80024ca:	2303      	movs	r3, #3
 80024cc:	73fb      	strb	r3, [r7, #15]
        break;
 80024ce:	e005      	b.n	80024dc <RCCEx_PLLSAI1_Config+0x110>
    while(READ_BIT(RCC->CR, RCC_CR_PLLSAI1RDY) != 0U)
 80024d0:	4b37      	ldr	r3, [pc, #220]	@ (80025b0 <RCCEx_PLLSAI1_Config+0x1e4>)
 80024d2:	681b      	ldr	r3, [r3, #0]
 80024d4:	f003 6300 	and.w	r3, r3, #134217728	@ 0x8000000
 80024d8:	2b00      	cmp	r3, #0
 80024da:	d1ef      	bne.n	80024bc <RCCEx_PLLSAI1_Config+0xf0>
      }
    }

    if(status == HAL_OK)
 80024dc:	7bfb      	ldrb	r3, [r7, #15]
 80024de:	2b00      	cmp	r3, #0
 80024e0:	d160      	bne.n	80025a4 <RCCEx_PLLSAI1_Config+0x1d8>
    {
      if(Divider == DIVIDER_P_UPDATE)
 80024e2:	683b      	ldr	r3, [r7, #0]
 80024e4:	2b00      	cmp	r3, #0
 80024e6:	d111      	bne.n	800250c <RCCEx_PLLSAI1_Config+0x140>
        MODIFY_REG(RCC->PLLSAI1CFGR,
                   RCC_PLLSAI1CFGR_PLLSAI1N | RCC_PLLSAI1CFGR_PLLSAI1PDIV,
                   (PllSai1->PLLSAI1N << RCC_PLLSAI1CFGR_PLLSAI1N_Pos) |
                   (PllSai1->PLLSAI1P << RCC_PLLSAI1CFGR_PLLSAI1PDIV_Pos));
#else
        MODIFY_REG(RCC->PLLSAI1CFGR,
 80024e8:	4b31      	ldr	r3, [pc, #196]	@ (80025b0 <RCCEx_PLLSAI1_Config+0x1e4>)
 80024ea:	691b      	ldr	r3, [r3, #16]
 80024ec:	f423 331f 	bic.w	r3, r3, #162816	@ 0x27c00
 80024f0:	f423 7340 	bic.w	r3, r3, #768	@ 0x300
 80024f4:	687a      	ldr	r2, [r7, #4]
 80024f6:	6892      	ldr	r2, [r2, #8]
 80024f8:	0211      	lsls	r1, r2, #8
 80024fa:	687a      	ldr	r2, [r7, #4]
 80024fc:	68d2      	ldr	r2, [r2, #12]
 80024fe:	0912      	lsrs	r2, r2, #4
 8002500:	0452      	lsls	r2, r2, #17
 8002502:	430a      	orrs	r2, r1
 8002504:	492a      	ldr	r1, [pc, #168]	@ (80025b0 <RCCEx_PLLSAI1_Config+0x1e4>)
 8002506:	4313      	orrs	r3, r2
 8002508:	610b      	str	r3, [r1, #16]
 800250a:	e027      	b.n	800255c <RCCEx_PLLSAI1_Config+0x190>
                   ((PllSai1->PLLSAI1P >> 4U) << RCC_PLLSAI1CFGR_PLLSAI1P_Pos));
#endif /* RCC_PLLSAI1P_DIV_2_31_SUPPORT */

#endif /* RCC_PLLSAI1M_DIV_1_16_SUPPORT */
      }
      else if(Divider == DIVIDER_Q_UPDATE)
 800250c:	683b      	ldr	r3, [r7, #0]
 800250e:	2b01      	cmp	r3, #1
 8002510:	d112      	bne.n	8002538 <RCCEx_PLLSAI1_Config+0x16c>
                   (PllSai1->PLLSAI1N << RCC_PLLSAI1CFGR_PLLSAI1N_Pos) |
                   (((PllSai1->PLLSAI1Q >> 1U) - 1U) << RCC_PLLSAI1CFGR_PLLSAI1Q_Pos) |
                   ((PllSai1->PLLSAI1M - 1U) << RCC_PLLSAI1CFGR_PLLSAI1M_Pos));
#else
        /* Configure the PLLSAI1 Division factor Q and Multiplication factor N*/
        MODIFY_REG(RCC->PLLSAI1CFGR,
 8002512:	4b27      	ldr	r3, [pc, #156]	@ (80025b0 <RCCEx_PLLSAI1_Config+0x1e4>)
 8002514:	691b      	ldr	r3, [r3, #16]
 8002516:	f423 03c0 	bic.w	r3, r3, #6291456	@ 0x600000
 800251a:	f423 43fe 	bic.w	r3, r3, #32512	@ 0x7f00
 800251e:	687a      	ldr	r2, [r7, #4]
 8002520:	6892      	ldr	r2, [r2, #8]
 8002522:	0211      	lsls	r1, r2, #8
 8002524:	687a      	ldr	r2, [r7, #4]
 8002526:	6912      	ldr	r2, [r2, #16]
 8002528:	0852      	lsrs	r2, r2, #1
 800252a:	3a01      	subs	r2, #1
 800252c:	0552      	lsls	r2, r2, #21
 800252e:	430a      	orrs	r2, r1
 8002530:	491f      	ldr	r1, [pc, #124]	@ (80025b0 <RCCEx_PLLSAI1_Config+0x1e4>)
 8002532:	4313      	orrs	r3, r2
 8002534:	610b      	str	r3, [r1, #16]
 8002536:	e011      	b.n	800255c <RCCEx_PLLSAI1_Config+0x190>
                   (PllSai1->PLLSAI1N << RCC_PLLSAI1CFGR_PLLSAI1N_Pos) |
                   (((PllSai1->PLLSAI1R >> 1U) - 1U) << RCC_PLLSAI1CFGR_PLLSAI1R_Pos) |
                   ((PllSai1->PLLSAI1M - 1U) << RCC_PLLSAI1CFGR_PLLSAI1M_Pos));
#else
        /* Configure the PLLSAI1 Division factor R and Multiplication factor N*/
        MODIFY_REG(RCC->PLLSAI1CFGR,
 8002538:	4b1d      	ldr	r3, [pc, #116]	@ (80025b0 <RCCEx_PLLSAI1_Config+0x1e4>)
 800253a:	691b      	ldr	r3, [r3, #16]
 800253c:	f023 63c0 	bic.w	r3, r3, #100663296	@ 0x6000000
 8002540:	f423 43fe 	bic.w	r3, r3, #32512	@ 0x7f00
 8002544:	687a      	ldr	r2, [r7, #4]
 8002546:	6892      	ldr	r2, [r2, #8]
 8002548:	0211      	lsls	r1, r2, #8
 800254a:	687a      	ldr	r2, [r7, #4]
 800254c:	6952      	ldr	r2, [r2, #20]
 800254e:	0852      	lsrs	r2, r2, #1
 8002550:	3a01      	subs	r2, #1
 8002552:	0652      	lsls	r2, r2, #25
 8002554:	430a      	orrs	r2, r1
 8002556:	4916      	ldr	r1, [pc, #88]	@ (80025b0 <RCCEx_PLLSAI1_Config+0x1e4>)
 8002558:	4313      	orrs	r3, r2
 800255a:	610b      	str	r3, [r1, #16]
                   (((PllSai1->PLLSAI1R >> 1U) - 1U) << RCC_PLLSAI1CFGR_PLLSAI1R_Pos));
#endif /* RCC_PLLSAI1M_DIV_1_16_SUPPORT */
      }

      /* Enable the PLLSAI1 again by setting PLLSAI1ON to 1*/
      __HAL_RCC_PLLSAI1_ENABLE();
 800255c:	4b14      	ldr	r3, [pc, #80]	@ (80025b0 <RCCEx_PLLSAI1_Config+0x1e4>)
 800255e:	681b      	ldr	r3, [r3, #0]
 8002560:	4a13      	ldr	r2, [pc, #76]	@ (80025b0 <RCCEx_PLLSAI1_Config+0x1e4>)
 8002562:	f043 6380 	orr.w	r3, r3, #67108864	@ 0x4000000
 8002566:	6013      	str	r3, [r2, #0]

      /* Get Start Tick*/
      tickstart = HAL_GetTick();
 8002568:	f7fe fb2e 	bl	8000bc8 <HAL_GetTick>
 800256c:	60b8      	str	r0, [r7, #8]

      /* Wait till PLLSAI1 is ready */
      while(READ_BIT(RCC->CR, RCC_CR_PLLSAI1RDY) == 0U)
 800256e:	e009      	b.n	8002584 <RCCEx_PLLSAI1_Config+0x1b8>
      {
        if((HAL_GetTick() - tickstart) > PLLSAI1_TIMEOUT_VALUE)
 8002570:	f7fe fb2a 	bl	8000bc8 <HAL_GetTick>
 8002574:	4602      	mov	r2, r0
 8002576:	68bb      	ldr	r3, [r7, #8]
 8002578:	1ad3      	subs	r3, r2, r3
 800257a:	2b02      	cmp	r3, #2
 800257c:	d902      	bls.n	8002584 <RCCEx_PLLSAI1_Config+0x1b8>
        {
          status = HAL_TIMEOUT;
 800257e:	2303      	movs	r3, #3
 8002580:	73fb      	strb	r3, [r7, #15]
          break;
 8002582:	e005      	b.n	8002590 <RCCEx_PLLSAI1_Config+0x1c4>
      while(READ_BIT(RCC->CR, RCC_CR_PLLSAI1RDY) == 0U)
 8002584:	4b0a      	ldr	r3, [pc, #40]	@ (80025b0 <RCCEx_PLLSAI1_Config+0x1e4>)
 8002586:	681b      	ldr	r3, [r3, #0]
 8002588:	f003 6300 	and.w	r3, r3, #134217728	@ 0x8000000
 800258c:	2b00      	cmp	r3, #0
 800258e:	d0ef      	beq.n	8002570 <RCCEx_PLLSAI1_Config+0x1a4>
        }
      }

      if(status == HAL_OK)
 8002590:	7bfb      	ldrb	r3, [r7, #15]
 8002592:	2b00      	cmp	r3, #0
 8002594:	d106      	bne.n	80025a4 <RCCEx_PLLSAI1_Config+0x1d8>
      {
        /* Configure the PLLSAI1 Clock output(s) */
        __HAL_RCC_PLLSAI1CLKOUT_ENABLE(PllSai1->PLLSAI1ClockOut);
 8002596:	4b06      	ldr	r3, [pc, #24]	@ (80025b0 <RCCEx_PLLSAI1_Config+0x1e4>)
 8002598:	691a      	ldr	r2, [r3, #16]
 800259a:	687b      	ldr	r3, [r7, #4]
 800259c:	699b      	ldr	r3, [r3, #24]
 800259e:	4904      	ldr	r1, [pc, #16]	@ (80025b0 <RCCEx_PLLSAI1_Config+0x1e4>)
 80025a0:	4313      	orrs	r3, r2
 80025a2:	610b      	str	r3, [r1, #16]
      }
    }
  }

  return status;
 80025a4:	7bfb      	ldrb	r3, [r7, #15]
}
 80025a6:	4618      	mov	r0, r3
 80025a8:	3710      	adds	r7, #16
 80025aa:	46bd      	mov	sp, r7
 80025ac:	bd80      	pop	{r7, pc}
 80025ae:	bf00      	nop
 80025b0:	40021000 	.word	0x40021000

080025b4 <RCCEx_PLLSAI2_Config>:
  * @note   PLLSAI2 is temporary disable to apply new parameters
  *
  * @retval HAL status
  */
static HAL_StatusTypeDef RCCEx_PLLSAI2_Config(RCC_PLLSAI2InitTypeDef *PllSai2, uint32_t Divider)
{
 80025b4:	b580      	push	{r7, lr}
 80025b6:	b084      	sub	sp, #16
 80025b8:	af00      	add	r7, sp, #0
 80025ba:	6078      	str	r0, [r7, #4]
 80025bc:	6039      	str	r1, [r7, #0]
  uint32_t tickstart;
  HAL_StatusTypeDef status = HAL_OK;
 80025be:	2300      	movs	r3, #0
 80025c0:	73fb      	strb	r3, [r7, #15]
  assert_param(IS_RCC_PLLSAI2M_VALUE(PllSai2->PLLSAI2M));
  assert_param(IS_RCC_PLLSAI2N_VALUE(PllSai2->PLLSAI2N));
  assert_param(IS_RCC_PLLSAI2CLOCKOUT_VALUE(PllSai2->PLLSAI2ClockOut));

  /* Check that PLLSAI2 clock source and divider M can be applied */
  if(__HAL_RCC_GET_PLL_OSCSOURCE() != RCC_PLLSOURCE_NONE)
 80025c2:	4b6a      	ldr	r3, [pc, #424]	@ (800276c <RCCEx_PLLSAI2_Config+0x1b8>)
 80025c4:	68db      	ldr	r3, [r3, #12]
 80025c6:	f003 0303 	and.w	r3, r3, #3
 80025ca:	2b00      	cmp	r3, #0
 80025cc:	d018      	beq.n	8002600 <RCCEx_PLLSAI2_Config+0x4c>
  {
    /* PLL clock source and divider M already set, check that no request for change  */
    if((__HAL_RCC_GET_PLL_OSCSOURCE() != PllSai2->PLLSAI2Source)
 80025ce:	4b67      	ldr	r3, [pc, #412]	@ (800276c <RCCEx_PLLSAI2_Config+0x1b8>)
 80025d0:	68db      	ldr	r3, [r3, #12]
 80025d2:	f003 0203 	and.w	r2, r3, #3
 80025d6:	687b      	ldr	r3, [r7, #4]
 80025d8:	681b      	ldr	r3, [r3, #0]
 80025da:	429a      	cmp	r2, r3
 80025dc:	d10d      	bne.n	80025fa <RCCEx_PLLSAI2_Config+0x46>
       ||
       (PllSai2->PLLSAI2Source == RCC_PLLSOURCE_NONE)
 80025de:	687b      	ldr	r3, [r7, #4]
 80025e0:	681b      	ldr	r3, [r3, #0]
       ||
 80025e2:	2b00      	cmp	r3, #0
 80025e4:	d009      	beq.n	80025fa <RCCEx_PLLSAI2_Config+0x46>
#if !defined(RCC_PLLSAI2M_DIV_1_16_SUPPORT)
       ||
       (((READ_BIT(RCC->PLLCFGR, RCC_PLLCFGR_PLLM) >> RCC_PLLCFGR_PLLM_Pos) + 1U) != PllSai2->PLLSAI2M)
 80025e6:	4b61      	ldr	r3, [pc, #388]	@ (800276c <RCCEx_PLLSAI2_Config+0x1b8>)
 80025e8:	68db      	ldr	r3, [r3, #12]
 80025ea:	091b      	lsrs	r3, r3, #4
 80025ec:	f003 0307 	and.w	r3, r3, #7
 80025f0:	1c5a      	adds	r2, r3, #1
 80025f2:	687b      	ldr	r3, [r7, #4]
 80025f4:	685b      	ldr	r3, [r3, #4]
       ||
 80025f6:	429a      	cmp	r2, r3
 80025f8:	d047      	beq.n	800268a <RCCEx_PLLSAI2_Config+0xd6>
#endif
      )
    {
      status = HAL_ERROR;
 80025fa:	2301      	movs	r3, #1
 80025fc:	73fb      	strb	r3, [r7, #15]
 80025fe:	e044      	b.n	800268a <RCCEx_PLLSAI2_Config+0xd6>
    }
  }
  else
  {
    /* Check PLLSAI2 clock source availability */
    switch(PllSai2->PLLSAI2Source)
 8002600:	687b      	ldr	r3, [r7, #4]
 8002602:	681b      	ldr	r3, [r3, #0]
 8002604:	2b03      	cmp	r3, #3
 8002606:	d018      	beq.n	800263a <RCCEx_PLLSAI2_Config+0x86>
 8002608:	2b03      	cmp	r3, #3
 800260a:	d825      	bhi.n	8002658 <RCCEx_PLLSAI2_Config+0xa4>
 800260c:	2b01      	cmp	r3, #1
 800260e:	d002      	beq.n	8002616 <RCCEx_PLLSAI2_Config+0x62>
 8002610:	2b02      	cmp	r3, #2
 8002612:	d009      	beq.n	8002628 <RCCEx_PLLSAI2_Config+0x74>
 8002614:	e020      	b.n	8002658 <RCCEx_PLLSAI2_Config+0xa4>
    {
    case RCC_PLLSOURCE_MSI:
      if(HAL_IS_BIT_CLR(RCC->CR, RCC_CR_MSIRDY))
 8002616:	4b55      	ldr	r3, [pc, #340]	@ (800276c <RCCEx_PLLSAI2_Config+0x1b8>)
 8002618:	681b      	ldr	r3, [r3, #0]
 800261a:	f003 0302 	and.w	r3, r3, #2
 800261e:	2b00      	cmp	r3, #0
 8002620:	d11d      	bne.n	800265e <RCCEx_PLLSAI2_Config+0xaa>
      {
        status = HAL_ERROR;
 8002622:	2301      	movs	r3, #1
 8002624:	73fb      	strb	r3, [r7, #15]
      }
      break;
 8002626:	e01a      	b.n	800265e <RCCEx_PLLSAI2_Config+0xaa>
    case RCC_PLLSOURCE_HSI:
      if(HAL_IS_BIT_CLR(RCC->CR, RCC_CR_HSIRDY))
 8002628:	4b50      	ldr	r3, [pc, #320]	@ (800276c <RCCEx_PLLSAI2_Config+0x1b8>)
 800262a:	681b      	ldr	r3, [r3, #0]
 800262c:	f403 6380 	and.w	r3, r3, #1024	@ 0x400
 8002630:	2b00      	cmp	r3, #0
 8002632:	d116      	bne.n	8002662 <RCCEx_PLLSAI2_Config+0xae>
      {
        status = HAL_ERROR;
 8002634:	2301      	movs	r3, #1
 8002636:	73fb      	strb	r3, [r7, #15]
      }
      break;
 8002638:	e013      	b.n	8002662 <RCCEx_PLLSAI2_Config+0xae>
    case RCC_PLLSOURCE_HSE:
      if(HAL_IS_BIT_CLR(RCC->CR, RCC_CR_HSERDY))
 800263a:	4b4c      	ldr	r3, [pc, #304]	@ (800276c <RCCEx_PLLSAI2_Config+0x1b8>)
 800263c:	681b      	ldr	r3, [r3, #0]
 800263e:	f403 3300 	and.w	r3, r3, #131072	@ 0x20000
 8002642:	2b00      	cmp	r3, #0
 8002644:	d10f      	bne.n	8002666 <RCCEx_PLLSAI2_Config+0xb2>
      {
        if(HAL_IS_BIT_CLR(RCC->CR, RCC_CR_HSEBYP))
 8002646:	4b49      	ldr	r3, [pc, #292]	@ (800276c <RCCEx_PLLSAI2_Config+0x1b8>)
 8002648:	681b      	ldr	r3, [r3, #0]
 800264a:	f403 2380 	and.w	r3, r3, #262144	@ 0x40000
 800264e:	2b00      	cmp	r3, #0
 8002650:	d109      	bne.n	8002666 <RCCEx_PLLSAI2_Config+0xb2>
        {
          status = HAL_ERROR;
 8002652:	2301      	movs	r3, #1
 8002654:	73fb      	strb	r3, [r7, #15]
        }
      }
      break;
 8002656:	e006      	b.n	8002666 <RCCEx_PLLSAI2_Config+0xb2>
    default:
      status = HAL_ERROR;
 8002658:	2301      	movs	r3, #1
 800265a:	73fb      	strb	r3, [r7, #15]
      break;
 800265c:	e004      	b.n	8002668 <RCCEx_PLLSAI2_Config+0xb4>
      break;
 800265e:	bf00      	nop
 8002660:	e002      	b.n	8002668 <RCCEx_PLLSAI2_Config+0xb4>
      break;
 8002662:	bf00      	nop
 8002664:	e000      	b.n	8002668 <RCCEx_PLLSAI2_Config+0xb4>
      break;
 8002666:	bf00      	nop
    }

    if(status == HAL_OK)
 8002668:	7bfb      	ldrb	r3, [r7, #15]
 800266a:	2b00      	cmp	r3, #0
 800266c:	d10d      	bne.n	800268a <RCCEx_PLLSAI2_Config+0xd6>
#if defined(RCC_PLLSAI2M_DIV_1_16_SUPPORT)
      /* Set PLLSAI2 clock source */
      MODIFY_REG(RCC->PLLCFGR, RCC_PLLCFGR_PLLSRC, PllSai2->PLLSAI2Source);
#else
      /* Set PLLSAI2 clock source and divider M */
      MODIFY_REG(RCC->PLLCFGR, RCC_PLLCFGR_PLLSRC | RCC_PLLCFGR_PLLM, PllSai2->PLLSAI2Source | (PllSai2->PLLSAI2M - 1U) << RCC_PLLCFGR_PLLM_Pos);
 800266e:	4b3f      	ldr	r3, [pc, #252]	@ (800276c <RCCEx_PLLSAI2_Config+0x1b8>)
 8002670:	68db      	ldr	r3, [r3, #12]
 8002672:	f023 0273 	bic.w	r2, r3, #115	@ 0x73
 8002676:	687b      	ldr	r3, [r7, #4]
 8002678:	6819      	ldr	r1, [r3, #0]
 800267a:	687b      	ldr	r3, [r7, #4]
 800267c:	685b      	ldr	r3, [r3, #4]
 800267e:	3b01      	subs	r3, #1
 8002680:	011b      	lsls	r3, r3, #4
 8002682:	430b      	orrs	r3, r1
 8002684:	4939      	ldr	r1, [pc, #228]	@ (800276c <RCCEx_PLLSAI2_Config+0x1b8>)
 8002686:	4313      	orrs	r3, r2
 8002688:	60cb      	str	r3, [r1, #12]
#endif
    }
  }

  if(status == HAL_OK)
 800268a:	7bfb      	ldrb	r3, [r7, #15]
 800268c:	2b00      	cmp	r3, #0
 800268e:	d167      	bne.n	8002760 <RCCEx_PLLSAI2_Config+0x1ac>
  {
    /* Disable the PLLSAI2 */
    __HAL_RCC_PLLSAI2_DISABLE();
 8002690:	4b36      	ldr	r3, [pc, #216]	@ (800276c <RCCEx_PLLSAI2_Config+0x1b8>)
 8002692:	681b      	ldr	r3, [r3, #0]
 8002694:	4a35      	ldr	r2, [pc, #212]	@ (800276c <RCCEx_PLLSAI2_Config+0x1b8>)
 8002696:	f023 5380 	bic.w	r3, r3, #268435456	@ 0x10000000
 800269a:	6013      	str	r3, [r2, #0]

    /* Get Start Tick*/
    tickstart = HAL_GetTick();
 800269c:	f7fe fa94 	bl	8000bc8 <HAL_GetTick>
 80026a0:	60b8      	str	r0, [r7, #8]

    /* Wait till PLLSAI2 is ready to be updated */
    while(READ_BIT(RCC->CR, RCC_CR_PLLSAI2RDY) != 0U)
 80026a2:	e009      	b.n	80026b8 <RCCEx_PLLSAI2_Config+0x104>
    {
      if((HAL_GetTick() - tickstart) > PLLSAI2_TIMEOUT_VALUE)
 80026a4:	f7fe fa90 	bl	8000bc8 <HAL_GetTick>
 80026a8:	4602      	mov	r2, r0
 80026aa:	68bb      	ldr	r3, [r7, #8]
 80026ac:	1ad3      	subs	r3, r2, r3
 80026ae:	2b02      	cmp	r3, #2
 80026b0:	d902      	bls.n	80026b8 <RCCEx_PLLSAI2_Config+0x104>
      {
        status = HAL_TIMEOUT;
 80026b2:	2303      	movs	r3, #3
 80026b4:	73fb      	strb	r3, [r7, #15]
        break;
 80026b6:	e005      	b.n	80026c4 <RCCEx_PLLSAI2_Config+0x110>
    while(READ_BIT(RCC->CR, RCC_CR_PLLSAI2RDY) != 0U)
 80026b8:	4b2c      	ldr	r3, [pc, #176]	@ (800276c <RCCEx_PLLSAI2_Config+0x1b8>)
 80026ba:	681b      	ldr	r3, [r3, #0]
 80026bc:	f003 5300 	and.w	r3, r3, #536870912	@ 0x20000000
 80026c0:	2b00      	cmp	r3, #0
 80026c2:	d1ef      	bne.n	80026a4 <RCCEx_PLLSAI2_Config+0xf0>
      }
    }

    if(status == HAL_OK)
 80026c4:	7bfb      	ldrb	r3, [r7, #15]
 80026c6:	2b00      	cmp	r3, #0
 80026c8:	d14a      	bne.n	8002760 <RCCEx_PLLSAI2_Config+0x1ac>
    {
      if(Divider == DIVIDER_P_UPDATE)
 80026ca:	683b      	ldr	r3, [r7, #0]
 80026cc:	2b00      	cmp	r3, #0
 80026ce:	d111      	bne.n	80026f4 <RCCEx_PLLSAI2_Config+0x140>
        MODIFY_REG(RCC->PLLSAI2CFGR,
                   RCC_PLLSAI2CFGR_PLLSAI2N | RCC_PLLSAI2CFGR_PLLSAI2PDIV,
                   (PllSai2->PLLSAI2N << RCC_PLLSAI2CFGR_PLLSAI2N_Pos) |
                   (PllSai2->PLLSAI2P << RCC_PLLSAI2CFGR_PLLSAI2PDIV_Pos));
#else
        MODIFY_REG(RCC->PLLSAI2CFGR,
 80026d0:	4b26      	ldr	r3, [pc, #152]	@ (800276c <RCCEx_PLLSAI2_Config+0x1b8>)
 80026d2:	695b      	ldr	r3, [r3, #20]
 80026d4:	f423 331f 	bic.w	r3, r3, #162816	@ 0x27c00
 80026d8:	f423 7340 	bic.w	r3, r3, #768	@ 0x300
 80026dc:	687a      	ldr	r2, [r7, #4]
 80026de:	6892      	ldr	r2, [r2, #8]
 80026e0:	0211      	lsls	r1, r2, #8
 80026e2:	687a      	ldr	r2, [r7, #4]
 80026e4:	68d2      	ldr	r2, [r2, #12]
 80026e6:	0912      	lsrs	r2, r2, #4
 80026e8:	0452      	lsls	r2, r2, #17
 80026ea:	430a      	orrs	r2, r1
 80026ec:	491f      	ldr	r1, [pc, #124]	@ (800276c <RCCEx_PLLSAI2_Config+0x1b8>)
 80026ee:	4313      	orrs	r3, r2
 80026f0:	614b      	str	r3, [r1, #20]
 80026f2:	e011      	b.n	8002718 <RCCEx_PLLSAI2_Config+0x164>
                   (PllSai2->PLLSAI2N << RCC_PLLSAI2CFGR_PLLSAI2N_Pos) |
                   (((PllSai2->PLLSAI2R >> 1U) - 1U) << RCC_PLLSAI2CFGR_PLLSAI2R_Pos) |
                   ((PllSai2->PLLSAI2M - 1U) << RCC_PLLSAI2CFGR_PLLSAI2M_Pos));
#else
        /* Configure the PLLSAI2 Division factor R and Multiplication factor N*/
        MODIFY_REG(RCC->PLLSAI2CFGR,
 80026f4:	4b1d      	ldr	r3, [pc, #116]	@ (800276c <RCCEx_PLLSAI2_Config+0x1b8>)
 80026f6:	695b      	ldr	r3, [r3, #20]
 80026f8:	f023 63c0 	bic.w	r3, r3, #100663296	@ 0x6000000
 80026fc:	f423 43fe 	bic.w	r3, r3, #32512	@ 0x7f00
 8002700:	687a      	ldr	r2, [r7, #4]
 8002702:	6892      	ldr	r2, [r2, #8]
 8002704:	0211      	lsls	r1, r2, #8
 8002706:	687a      	ldr	r2, [r7, #4]
 8002708:	6912      	ldr	r2, [r2, #16]
 800270a:	0852      	lsrs	r2, r2, #1
 800270c:	3a01      	subs	r2, #1
 800270e:	0652      	lsls	r2, r2, #25
 8002710:	430a      	orrs	r2, r1
 8002712:	4916      	ldr	r1, [pc, #88]	@ (800276c <RCCEx_PLLSAI2_Config+0x1b8>)
 8002714:	4313      	orrs	r3, r2
 8002716:	614b      	str	r3, [r1, #20]
                   (((PllSai2->PLLSAI2R >> 1U) - 1U) << RCC_PLLSAI2CFGR_PLLSAI2R_Pos));
#endif /* RCC_PLLSAI2M_DIV_1_16_SUPPORT */
      }

      /* Enable the PLLSAI2 again by setting PLLSAI2ON to 1*/
      __HAL_RCC_PLLSAI2_ENABLE();
 8002718:	4b14      	ldr	r3, [pc, #80]	@ (800276c <RCCEx_PLLSAI2_Config+0x1b8>)
 800271a:	681b      	ldr	r3, [r3, #0]
 800271c:	4a13      	ldr	r2, [pc, #76]	@ (800276c <RCCEx_PLLSAI2_Config+0x1b8>)
 800271e:	f043 5380 	orr.w	r3, r3, #268435456	@ 0x10000000
 8002722:	6013      	str	r3, [r2, #0]

      /* Get Start Tick*/
      tickstart = HAL_GetTick();
 8002724:	f7fe fa50 	bl	8000bc8 <HAL_GetTick>
 8002728:	60b8      	str	r0, [r7, #8]

      /* Wait till PLLSAI2 is ready */
      while(READ_BIT(RCC->CR, RCC_CR_PLLSAI2RDY) == 0U)
 800272a:	e009      	b.n	8002740 <RCCEx_PLLSAI2_Config+0x18c>
      {
        if((HAL_GetTick() - tickstart) > PLLSAI2_TIMEOUT_VALUE)
 800272c:	f7fe fa4c 	bl	8000bc8 <HAL_GetTick>
 8002730:	4602      	mov	r2, r0
 8002732:	68bb      	ldr	r3, [r7, #8]
 8002734:	1ad3      	subs	r3, r2, r3
 8002736:	2b02      	cmp	r3, #2
 8002738:	d902      	bls.n	8002740 <RCCEx_PLLSAI2_Config+0x18c>
        {
          status = HAL_TIMEOUT;
 800273a:	2303      	movs	r3, #3
 800273c:	73fb      	strb	r3, [r7, #15]
          break;
 800273e:	e005      	b.n	800274c <RCCEx_PLLSAI2_Config+0x198>
      while(READ_BIT(RCC->CR, RCC_CR_PLLSAI2RDY) == 0U)
 8002740:	4b0a      	ldr	r3, [pc, #40]	@ (800276c <RCCEx_PLLSAI2_Config+0x1b8>)
 8002742:	681b      	ldr	r3, [r3, #0]
 8002744:	f003 5300 	and.w	r3, r3, #536870912	@ 0x20000000
 8002748:	2b00      	cmp	r3, #0
 800274a:	d0ef      	beq.n	800272c <RCCEx_PLLSAI2_Config+0x178>
        }
      }

      if(status == HAL_OK)
 800274c:	7bfb      	ldrb	r3, [r7, #15]
 800274e:	2b00      	cmp	r3, #0
 8002750:	d106      	bne.n	8002760 <RCCEx_PLLSAI2_Config+0x1ac>
      {
        /* Configure the PLLSAI2 Clock output(s) */
        __HAL_RCC_PLLSAI2CLKOUT_ENABLE(PllSai2->PLLSAI2ClockOut);
 8002752:	4b06      	ldr	r3, [pc, #24]	@ (800276c <RCCEx_PLLSAI2_Config+0x1b8>)
 8002754:	695a      	ldr	r2, [r3, #20]
 8002756:	687b      	ldr	r3, [r7, #4]
 8002758:	695b      	ldr	r3, [r3, #20]
 800275a:	4904      	ldr	r1, [pc, #16]	@ (800276c <RCCEx_PLLSAI2_Config+0x1b8>)
 800275c:	4313      	orrs	r3, r2
 800275e:	614b      	str	r3, [r1, #20]
      }
    }
  }

  return status;
 8002760:	7bfb      	ldrb	r3, [r7, #15]
}
 8002762:	4618      	mov	r0, r3
 8002764:	3710      	adds	r7, #16
 8002766:	46bd      	mov	sp, r7
 8002768:	bd80      	pop	{r7, pc}
 800276a:	bf00      	nop
 800276c:	40021000 	.word	0x40021000

08002770 <HAL_SPI_Init>:
  * @param  hspi pointer to a SPI_HandleTypeDef structure that contains
  *               the configuration information for SPI module.
  * @retval HAL status
  */
HAL_StatusTypeDef HAL_SPI_Init(SPI_HandleTypeDef *hspi)
{
 8002770:	b580      	push	{r7, lr}
 8002772:	b084      	sub	sp, #16
 8002774:	af00      	add	r7, sp, #0
 8002776:	6078      	str	r0, [r7, #4]
  uint32_t frxth;

  /* Check the SPI handle allocation */
  if (hspi == NULL)
 8002778:	687b      	ldr	r3, [r7, #4]
 800277a:	2b00      	cmp	r3, #0
 800277c:	d101      	bne.n	8002782 <HAL_SPI_Init+0x12>
  {
    return HAL_ERROR;
 800277e:	2301      	movs	r3, #1
 8002780:	e095      	b.n	80028ae <HAL_SPI_Init+0x13e>
  assert_param(IS_SPI_NSS(hspi->Init.NSS));
  assert_param(IS_SPI_NSSP(hspi->Init.NSSPMode));
  assert_param(IS_SPI_BAUDRATE_PRESCALER(hspi->Init.BaudRatePrescaler));
  assert_param(IS_SPI_FIRST_BIT(hspi->Init.FirstBit));
  assert_param(IS_SPI_TIMODE(hspi->Init.TIMode));
  if (hspi->Init.TIMode == SPI_TIMODE_DISABLE)
 8002782:	687b      	ldr	r3, [r7, #4]
 8002784:	6a5b      	ldr	r3, [r3, #36]	@ 0x24
 8002786:	2b00      	cmp	r3, #0
 8002788:	d108      	bne.n	800279c <HAL_SPI_Init+0x2c>
  {
    assert_param(IS_SPI_CPOL(hspi->Init.CLKPolarity));
    assert_param(IS_SPI_CPHA(hspi->Init.CLKPhase));

    if (hspi->Init.Mode == SPI_MODE_MASTER)
 800278a:	687b      	ldr	r3, [r7, #4]
 800278c:	685b      	ldr	r3, [r3, #4]
 800278e:	f5b3 7f82 	cmp.w	r3, #260	@ 0x104
 8002792:	d009      	beq.n	80027a8 <HAL_SPI_Init+0x38>
      assert_param(IS_SPI_BAUDRATE_PRESCALER(hspi->Init.BaudRatePrescaler));
    }
    else
    {
      /* Baudrate prescaler not use in Motoraola Slave mode. force to default value */
      hspi->Init.BaudRatePrescaler = SPI_BAUDRATEPRESCALER_2;
 8002794:	687b      	ldr	r3, [r7, #4]
 8002796:	2200      	movs	r2, #0
 8002798:	61da      	str	r2, [r3, #28]
 800279a:	e005      	b.n	80027a8 <HAL_SPI_Init+0x38>
  else
  {
    assert_param(IS_SPI_BAUDRATE_PRESCALER(hspi->Init.BaudRatePrescaler));

    /* Force polarity and phase to TI protocaol requirements */
    hspi->Init.CLKPolarity = SPI_POLARITY_LOW;
 800279c:	687b      	ldr	r3, [r7, #4]
 800279e:	2200      	movs	r2, #0
 80027a0:	611a      	str	r2, [r3, #16]
    hspi->Init.CLKPhase    = SPI_PHASE_1EDGE;
 80027a2:	687b      	ldr	r3, [r7, #4]
 80027a4:	2200      	movs	r2, #0
 80027a6:	615a      	str	r2, [r3, #20]
  {
    assert_param(IS_SPI_CRC_POLYNOMIAL(hspi->Init.CRCPolynomial));
    assert_param(IS_SPI_CRC_LENGTH(hspi->Init.CRCLength));
  }
#else
  hspi->Init.CRCCalculation = SPI_CRCCALCULATION_DISABLE;
 80027a8:	687b      	ldr	r3, [r7, #4]
 80027aa:	2200      	movs	r2, #0
 80027ac:	629a      	str	r2, [r3, #40]	@ 0x28
#endif /* USE_SPI_CRC */

  if (hspi->State == HAL_SPI_STATE_RESET)
 80027ae:	687b      	ldr	r3, [r7, #4]
 80027b0:	f893 305d 	ldrb.w	r3, [r3, #93]	@ 0x5d
 80027b4:	b2db      	uxtb	r3, r3
 80027b6:	2b00      	cmp	r3, #0
 80027b8:	d106      	bne.n	80027c8 <HAL_SPI_Init+0x58>
  {
    /* Allocate lock resource and initialize it */
    hspi->Lock = HAL_UNLOCKED;
 80027ba:	687b      	ldr	r3, [r7, #4]
 80027bc:	2200      	movs	r2, #0
 80027be:	f883 205c 	strb.w	r2, [r3, #92]	@ 0x5c

    /* Init the low level hardware : GPIO, CLOCK, NVIC... */
    hspi->MspInitCallback(hspi);
#else
    /* Init the low level hardware : GPIO, CLOCK, NVIC... */
    HAL_SPI_MspInit(hspi);
 80027c2:	6878      	ldr	r0, [r7, #4]
 80027c4:	f7fe f866 	bl	8000894 <HAL_SPI_MspInit>
#endif /* USE_HAL_SPI_REGISTER_CALLBACKS */
  }

  hspi->State = HAL_SPI_STATE_BUSY;
 80027c8:	687b      	ldr	r3, [r7, #4]
 80027ca:	2202      	movs	r2, #2
 80027cc:	f883 205d 	strb.w	r2, [r3, #93]	@ 0x5d

  /* Disable the selected SPI peripheral */
  __HAL_SPI_DISABLE(hspi);
 80027d0:	687b      	ldr	r3, [r7, #4]
 80027d2:	681b      	ldr	r3, [r3, #0]
 80027d4:	681a      	ldr	r2, [r3, #0]
 80027d6:	687b      	ldr	r3, [r7, #4]
 80027d8:	681b      	ldr	r3, [r3, #0]
 80027da:	f022 0240 	bic.w	r2, r2, #64	@ 0x40
 80027de:	601a      	str	r2, [r3, #0]

  /* Align by default the rs fifo threshold on the data size */
  if (hspi->Init.DataSize > SPI_DATASIZE_8BIT)
 80027e0:	687b      	ldr	r3, [r7, #4]
 80027e2:	68db      	ldr	r3, [r3, #12]
 80027e4:	f5b3 6fe0 	cmp.w	r3, #1792	@ 0x700
 80027e8:	d902      	bls.n	80027f0 <HAL_SPI_Init+0x80>
  {
    frxth = SPI_RXFIFO_THRESHOLD_HF;
 80027ea:	2300      	movs	r3, #0
 80027ec:	60fb      	str	r3, [r7, #12]
 80027ee:	e002      	b.n	80027f6 <HAL_SPI_Init+0x86>
  }
  else
  {
    frxth = SPI_RXFIFO_THRESHOLD_QF;
 80027f0:	f44f 5380 	mov.w	r3, #4096	@ 0x1000
 80027f4:	60fb      	str	r3, [r7, #12]
  }

  /* CRC calculation is valid only for 16Bit and 8 Bit */
  if ((hspi->Init.DataSize != SPI_DATASIZE_16BIT) && (hspi->Init.DataSize != SPI_DATASIZE_8BIT))
 80027f6:	687b      	ldr	r3, [r7, #4]
 80027f8:	68db      	ldr	r3, [r3, #12]
 80027fa:	f5b3 6f70 	cmp.w	r3, #3840	@ 0xf00
 80027fe:	d007      	beq.n	8002810 <HAL_SPI_Init+0xa0>
 8002800:	687b      	ldr	r3, [r7, #4]
 8002802:	68db      	ldr	r3, [r3, #12]
 8002804:	f5b3 6fe0 	cmp.w	r3, #1792	@ 0x700
 8002808:	d002      	beq.n	8002810 <HAL_SPI_Init+0xa0>
  {
    /* CRC must be disabled */
    hspi->Init.CRCCalculation = SPI_CRCCALCULATION_DISABLE;
 800280a:	687b      	ldr	r3, [r7, #4]
 800280c:	2200      	movs	r2, #0
 800280e:	629a      	str	r2, [r3, #40]	@ 0x28
  }

  /*----------------------- SPIx CR1 & CR2 Configuration ---------------------*/
  /* Configure : SPI Mode, Communication Mode, Clock polarity and phase, NSS management,
  Communication speed, First bit and CRC calculation state */
  WRITE_REG(hspi->Instance->CR1, ((hspi->Init.Mode & (SPI_CR1_MSTR | SPI_CR1_SSI)) |
 8002810:	687b      	ldr	r3, [r7, #4]
 8002812:	685b      	ldr	r3, [r3, #4]
 8002814:	f403 7282 	and.w	r2, r3, #260	@ 0x104
 8002818:	687b      	ldr	r3, [r7, #4]
 800281a:	689b      	ldr	r3, [r3, #8]
 800281c:	f403 4304 	and.w	r3, r3, #33792	@ 0x8400
 8002820:	431a      	orrs	r2, r3
 8002822:	687b      	ldr	r3, [r7, #4]
 8002824:	691b      	ldr	r3, [r3, #16]
 8002826:	f003 0302 	and.w	r3, r3, #2
 800282a:	431a      	orrs	r2, r3
 800282c:	687b      	ldr	r3, [r7, #4]
 800282e:	695b      	ldr	r3, [r3, #20]
 8002830:	f003 0301 	and.w	r3, r3, #1
 8002834:	431a      	orrs	r2, r3
 8002836:	687b      	ldr	r3, [r7, #4]
 8002838:	699b      	ldr	r3, [r3, #24]
 800283a:	f403 7300 	and.w	r3, r3, #512	@ 0x200
 800283e:	431a      	orrs	r2, r3
 8002840:	687b      	ldr	r3, [r7, #4]
 8002842:	69db      	ldr	r3, [r3, #28]
 8002844:	f003 0338 	and.w	r3, r3, #56	@ 0x38
 8002848:	431a      	orrs	r2, r3
 800284a:	687b      	ldr	r3, [r7, #4]
 800284c:	6a1b      	ldr	r3, [r3, #32]
 800284e:	f003 0380 	and.w	r3, r3, #128	@ 0x80
 8002852:	ea42 0103 	orr.w	r1, r2, r3
 8002856:	687b      	ldr	r3, [r7, #4]
 8002858:	6a9b      	ldr	r3, [r3, #40]	@ 0x28
 800285a:	f403 5200 	and.w	r2, r3, #8192	@ 0x2000
 800285e:	687b      	ldr	r3, [r7, #4]
 8002860:	681b      	ldr	r3, [r3, #0]
 8002862:	430a      	orrs	r2, r1
 8002864:	601a      	str	r2, [r3, #0]
    }
  }
#endif /* USE_SPI_CRC */

  /* Configure : NSS management, TI Mode, NSS Pulse, Data size and Rx Fifo threshold */
  WRITE_REG(hspi->Instance->CR2, (((hspi->Init.NSS >> 16U) & SPI_CR2_SSOE) |
 8002866:	687b      	ldr	r3, [r7, #4]
 8002868:	699b      	ldr	r3, [r3, #24]
 800286a:	0c1b      	lsrs	r3, r3, #16
 800286c:	f003 0204 	and.w	r2, r3, #4
 8002870:	687b      	ldr	r3, [r7, #4]
 8002872:	6a5b      	ldr	r3, [r3, #36]	@ 0x24
 8002874:	f003 0310 	and.w	r3, r3, #16
 8002878:	431a      	orrs	r2, r3
 800287a:	687b      	ldr	r3, [r7, #4]
 800287c:	6b5b      	ldr	r3, [r3, #52]	@ 0x34
 800287e:	f003 0308 	and.w	r3, r3, #8
 8002882:	431a      	orrs	r2, r3
 8002884:	687b      	ldr	r3, [r7, #4]
 8002886:	68db      	ldr	r3, [r3, #12]
 8002888:	f403 6370 	and.w	r3, r3, #3840	@ 0xf00
 800288c:	ea42 0103 	orr.w	r1, r2, r3
 8002890:	68fb      	ldr	r3, [r7, #12]
 8002892:	f403 5280 	and.w	r2, r3, #4096	@ 0x1000
 8002896:	687b      	ldr	r3, [r7, #4]
 8002898:	681b      	ldr	r3, [r3, #0]
 800289a:	430a      	orrs	r2, r1
 800289c:	605a      	str	r2, [r3, #4]
#if defined(SPI_I2SCFGR_I2SMOD)
  /* Activate the SPI mode (Make sure that I2SMOD bit in I2SCFGR register is reset) */
  CLEAR_BIT(hspi->Instance->I2SCFGR, SPI_I2SCFGR_I2SMOD);
#endif /* SPI_I2SCFGR_I2SMOD */

  hspi->ErrorCode = HAL_SPI_ERROR_NONE;
 800289e:	687b      	ldr	r3, [r7, #4]
 80028a0:	2200      	movs	r2, #0
 80028a2:	661a      	str	r2, [r3, #96]	@ 0x60
  hspi->State     = HAL_SPI_STATE_READY;
 80028a4:	687b      	ldr	r3, [r7, #4]
 80028a6:	2201      	movs	r2, #1
 80028a8:	f883 205d 	strb.w	r2, [r3, #93]	@ 0x5d

  return HAL_OK;
 80028ac:	2300      	movs	r3, #0
}
 80028ae:	4618      	mov	r0, r3
 80028b0:	3710      	adds	r7, #16
 80028b2:	46bd      	mov	sp, r7
 80028b4:	bd80      	pop	{r7, pc}

080028b6 <HAL_SPI_Transmit>:
  * @param  Size amount of data elements (u8 or u16) to be sent
  * @param  Timeout Timeout duration in ms
  * @retval HAL status
  */
HAL_StatusTypeDef HAL_SPI_Transmit(SPI_HandleTypeDef *hspi, const uint8_t *pData, uint16_t Size, uint32_t Timeout)
{
 80028b6:	b580      	push	{r7, lr}
 80028b8:	b088      	sub	sp, #32
 80028ba:	af00      	add	r7, sp, #0
 80028bc:	60f8      	str	r0, [r7, #12]
 80028be:	60b9      	str	r1, [r7, #8]
 80028c0:	603b      	str	r3, [r7, #0]
 80028c2:	4613      	mov	r3, r2
 80028c4:	80fb      	strh	r3, [r7, #6]

  /* Check Direction parameter */
  assert_param(IS_SPI_DIRECTION_2LINES_OR_1LINE(hspi->Init.Direction));

  /* Init tickstart for timeout management*/
  tickstart = HAL_GetTick();
 80028c6:	f7fe f97f 	bl	8000bc8 <HAL_GetTick>
 80028ca:	61f8      	str	r0, [r7, #28]
  initial_TxXferCount = Size;
 80028cc:	88fb      	ldrh	r3, [r7, #6]
 80028ce:	837b      	strh	r3, [r7, #26]

  if (hspi->State != HAL_SPI_STATE_READY)
 80028d0:	68fb      	ldr	r3, [r7, #12]
 80028d2:	f893 305d 	ldrb.w	r3, [r3, #93]	@ 0x5d
 80028d6:	b2db      	uxtb	r3, r3
 80028d8:	2b01      	cmp	r3, #1
 80028da:	d001      	beq.n	80028e0 <HAL_SPI_Transmit+0x2a>
  {
    return HAL_BUSY;
 80028dc:	2302      	movs	r3, #2
 80028de:	e15c      	b.n	8002b9a <HAL_SPI_Transmit+0x2e4>
  }

  if ((pData == NULL) || (Size == 0U))
 80028e0:	68bb      	ldr	r3, [r7, #8]
 80028e2:	2b00      	cmp	r3, #0
 80028e4:	d002      	beq.n	80028ec <HAL_SPI_Transmit+0x36>
 80028e6:	88fb      	ldrh	r3, [r7, #6]
 80028e8:	2b00      	cmp	r3, #0
 80028ea:	d101      	bne.n	80028f0 <HAL_SPI_Transmit+0x3a>
  {
    return HAL_ERROR;
 80028ec:	2301      	movs	r3, #1
 80028ee:	e154      	b.n	8002b9a <HAL_SPI_Transmit+0x2e4>
  }

  /* Process Locked */
  __HAL_LOCK(hspi);
 80028f0:	68fb      	ldr	r3, [r7, #12]
 80028f2:	f893 305c 	ldrb.w	r3, [r3, #92]	@ 0x5c
 80028f6:	2b01      	cmp	r3, #1
 80028f8:	d101      	bne.n	80028fe <HAL_SPI_Transmit+0x48>
 80028fa:	2302      	movs	r3, #2
 80028fc:	e14d      	b.n	8002b9a <HAL_SPI_Transmit+0x2e4>
 80028fe:	68fb      	ldr	r3, [r7, #12]
 8002900:	2201      	movs	r2, #1
 8002902:	f883 205c 	strb.w	r2, [r3, #92]	@ 0x5c

  /* Set the transaction information */
  hspi->State       = HAL_SPI_STATE_BUSY_TX;
 8002906:	68fb      	ldr	r3, [r7, #12]
 8002908:	2203      	movs	r2, #3
 800290a:	f883 205d 	strb.w	r2, [r3, #93]	@ 0x5d
  hspi->ErrorCode   = HAL_SPI_ERROR_NONE;
 800290e:	68fb      	ldr	r3, [r7, #12]
 8002910:	2200      	movs	r2, #0
 8002912:	661a      	str	r2, [r3, #96]	@ 0x60
  hspi->pTxBuffPtr  = (const uint8_t *)pData;
 8002914:	68fb      	ldr	r3, [r7, #12]
 8002916:	68ba      	ldr	r2, [r7, #8]
 8002918:	639a      	str	r2, [r3, #56]	@ 0x38
  hspi->TxXferSize  = Size;
 800291a:	68fb      	ldr	r3, [r7, #12]
 800291c:	88fa      	ldrh	r2, [r7, #6]
 800291e:	879a      	strh	r2, [r3, #60]	@ 0x3c
  hspi->TxXferCount = Size;
 8002920:	68fb      	ldr	r3, [r7, #12]
 8002922:	88fa      	ldrh	r2, [r7, #6]
 8002924:	87da      	strh	r2, [r3, #62]	@ 0x3e

  /*Init field not used in handle to zero */
  hspi->pRxBuffPtr  = (uint8_t *)NULL;
 8002926:	68fb      	ldr	r3, [r7, #12]
 8002928:	2200      	movs	r2, #0
 800292a:	641a      	str	r2, [r3, #64]	@ 0x40
  hspi->RxXferSize  = 0U;
 800292c:	68fb      	ldr	r3, [r7, #12]
 800292e:	2200      	movs	r2, #0
 8002930:	f8a3 2044 	strh.w	r2, [r3, #68]	@ 0x44
  hspi->RxXferCount = 0U;
 8002934:	68fb      	ldr	r3, [r7, #12]
 8002936:	2200      	movs	r2, #0
 8002938:	f8a3 2046 	strh.w	r2, [r3, #70]	@ 0x46
  hspi->TxISR       = NULL;
 800293c:	68fb      	ldr	r3, [r7, #12]
 800293e:	2200      	movs	r2, #0
 8002940:	651a      	str	r2, [r3, #80]	@ 0x50
  hspi->RxISR       = NULL;
 8002942:	68fb      	ldr	r3, [r7, #12]
 8002944:	2200      	movs	r2, #0
 8002946:	64da      	str	r2, [r3, #76]	@ 0x4c

  /* Configure communication direction : 1Line */
  if (hspi->Init.Direction == SPI_DIRECTION_1LINE)
 8002948:	68fb      	ldr	r3, [r7, #12]
 800294a:	689b      	ldr	r3, [r3, #8]
 800294c:	f5b3 4f00 	cmp.w	r3, #32768	@ 0x8000
 8002950:	d10f      	bne.n	8002972 <HAL_SPI_Transmit+0xbc>
  {
    /* Disable SPI Peripheral before set 1Line direction (BIDIOE bit) */
    __HAL_SPI_DISABLE(hspi);
 8002952:	68fb      	ldr	r3, [r7, #12]
 8002954:	681b      	ldr	r3, [r3, #0]
 8002956:	681a      	ldr	r2, [r3, #0]
 8002958:	68fb      	ldr	r3, [r7, #12]
 800295a:	681b      	ldr	r3, [r3, #0]
 800295c:	f022 0240 	bic.w	r2, r2, #64	@ 0x40
 8002960:	601a      	str	r2, [r3, #0]
    SPI_1LINE_TX(hspi);
 8002962:	68fb      	ldr	r3, [r7, #12]
 8002964:	681b      	ldr	r3, [r3, #0]
 8002966:	681a      	ldr	r2, [r3, #0]
 8002968:	68fb      	ldr	r3, [r7, #12]
 800296a:	681b      	ldr	r3, [r3, #0]
 800296c:	f442 4280 	orr.w	r2, r2, #16384	@ 0x4000
 8002970:	601a      	str	r2, [r3, #0]
    SPI_RESET_CRC(hspi);
  }
#endif /* USE_SPI_CRC */

  /* Check if the SPI is already enabled */
  if ((hspi->Instance->CR1 & SPI_CR1_SPE) != SPI_CR1_SPE)
 8002972:	68fb      	ldr	r3, [r7, #12]
 8002974:	681b      	ldr	r3, [r3, #0]
 8002976:	681b      	ldr	r3, [r3, #0]
 8002978:	f003 0340 	and.w	r3, r3, #64	@ 0x40
 800297c:	2b40      	cmp	r3, #64	@ 0x40
 800297e:	d007      	beq.n	8002990 <HAL_SPI_Transmit+0xda>
  {
    /* Enable SPI peripheral */
    __HAL_SPI_ENABLE(hspi);
 8002980:	68fb      	ldr	r3, [r7, #12]
 8002982:	681b      	ldr	r3, [r3, #0]
 8002984:	681a      	ldr	r2, [r3, #0]
 8002986:	68fb      	ldr	r3, [r7, #12]
 8002988:	681b      	ldr	r3, [r3, #0]
 800298a:	f042 0240 	orr.w	r2, r2, #64	@ 0x40
 800298e:	601a      	str	r2, [r3, #0]
  }

  /* Transmit data in 16 Bit mode */
  if (hspi->Init.DataSize > SPI_DATASIZE_8BIT)
 8002990:	68fb      	ldr	r3, [r7, #12]
 8002992:	68db      	ldr	r3, [r3, #12]
 8002994:	f5b3 6fe0 	cmp.w	r3, #1792	@ 0x700
 8002998:	d952      	bls.n	8002a40 <HAL_SPI_Transmit+0x18a>
  {
    if ((hspi->Init.Mode == SPI_MODE_SLAVE) || (initial_TxXferCount == 0x01U))
 800299a:	68fb      	ldr	r3, [r7, #12]
 800299c:	685b      	ldr	r3, [r3, #4]
 800299e:	2b00      	cmp	r3, #0
 80029a0:	d002      	beq.n	80029a8 <HAL_SPI_Transmit+0xf2>
 80029a2:	8b7b      	ldrh	r3, [r7, #26]
 80029a4:	2b01      	cmp	r3, #1
 80029a6:	d145      	bne.n	8002a34 <HAL_SPI_Transmit+0x17e>
    {
      hspi->Instance->DR = *((const uint16_t *)hspi->pTxBuffPtr);
 80029a8:	68fb      	ldr	r3, [r7, #12]
 80029aa:	6b9b      	ldr	r3, [r3, #56]	@ 0x38
 80029ac:	881a      	ldrh	r2, [r3, #0]
 80029ae:	68fb      	ldr	r3, [r7, #12]
 80029b0:	681b      	ldr	r3, [r3, #0]
 80029b2:	60da      	str	r2, [r3, #12]
      hspi->pTxBuffPtr += sizeof(uint16_t);
 80029b4:	68fb      	ldr	r3, [r7, #12]
 80029b6:	6b9b      	ldr	r3, [r3, #56]	@ 0x38
 80029b8:	1c9a      	adds	r2, r3, #2
 80029ba:	68fb      	ldr	r3, [r7, #12]
 80029bc:	639a      	str	r2, [r3, #56]	@ 0x38
      hspi->TxXferCount--;
 80029be:	68fb      	ldr	r3, [r7, #12]
 80029c0:	8fdb      	ldrh	r3, [r3, #62]	@ 0x3e
 80029c2:	b29b      	uxth	r3, r3
 80029c4:	3b01      	subs	r3, #1
 80029c6:	b29a      	uxth	r2, r3
 80029c8:	68fb      	ldr	r3, [r7, #12]
 80029ca:	87da      	strh	r2, [r3, #62]	@ 0x3e
    }
    /* Transmit data in 16 Bit mode */
    while (hspi->TxXferCount > 0U)
 80029cc:	e032      	b.n	8002a34 <HAL_SPI_Transmit+0x17e>
    {
      /* Wait until TXE flag is set to send data */
      if (__HAL_SPI_GET_FLAG(hspi, SPI_FLAG_TXE))
 80029ce:	68fb      	ldr	r3, [r7, #12]
 80029d0:	681b      	ldr	r3, [r3, #0]
 80029d2:	689b      	ldr	r3, [r3, #8]
 80029d4:	f003 0302 	and.w	r3, r3, #2
 80029d8:	2b02      	cmp	r3, #2
 80029da:	d112      	bne.n	8002a02 <HAL_SPI_Transmit+0x14c>
      {
        hspi->Instance->DR = *((const uint16_t *)hspi->pTxBuffPtr);
 80029dc:	68fb      	ldr	r3, [r7, #12]
 80029de:	6b9b      	ldr	r3, [r3, #56]	@ 0x38
 80029e0:	881a      	ldrh	r2, [r3, #0]
 80029e2:	68fb      	ldr	r3, [r7, #12]
 80029e4:	681b      	ldr	r3, [r3, #0]
 80029e6:	60da      	str	r2, [r3, #12]
        hspi->pTxBuffPtr += sizeof(uint16_t);
 80029e8:	68fb      	ldr	r3, [r7, #12]
 80029ea:	6b9b      	ldr	r3, [r3, #56]	@ 0x38
 80029ec:	1c9a      	adds	r2, r3, #2
 80029ee:	68fb      	ldr	r3, [r7, #12]
 80029f0:	639a      	str	r2, [r3, #56]	@ 0x38
        hspi->TxXferCount--;
 80029f2:	68fb      	ldr	r3, [r7, #12]
 80029f4:	8fdb      	ldrh	r3, [r3, #62]	@ 0x3e
 80029f6:	b29b      	uxth	r3, r3
 80029f8:	3b01      	subs	r3, #1
 80029fa:	b29a      	uxth	r2, r3
 80029fc:	68fb      	ldr	r3, [r7, #12]
 80029fe:	87da      	strh	r2, [r3, #62]	@ 0x3e
 8002a00:	e018      	b.n	8002a34 <HAL_SPI_Transmit+0x17e>
      }
      else
      {
        /* Timeout management */
        if ((((HAL_GetTick() - tickstart) >=  Timeout) && (Timeout != HAL_MAX_DELAY)) || (Timeout == 0U))
 8002a02:	f7fe f8e1 	bl	8000bc8 <HAL_GetTick>
 8002a06:	4602      	mov	r2, r0
 8002a08:	69fb      	ldr	r3, [r7, #28]
 8002a0a:	1ad3      	subs	r3, r2, r3
 8002a0c:	683a      	ldr	r2, [r7, #0]
 8002a0e:	429a      	cmp	r2, r3
 8002a10:	d803      	bhi.n	8002a1a <HAL_SPI_Transmit+0x164>
 8002a12:	683b      	ldr	r3, [r7, #0]
 8002a14:	f1b3 3fff 	cmp.w	r3, #4294967295
 8002a18:	d102      	bne.n	8002a20 <HAL_SPI_Transmit+0x16a>
 8002a1a:	683b      	ldr	r3, [r7, #0]
 8002a1c:	2b00      	cmp	r3, #0
 8002a1e:	d109      	bne.n	8002a34 <HAL_SPI_Transmit+0x17e>
        {
          hspi->State = HAL_SPI_STATE_READY;
 8002a20:	68fb      	ldr	r3, [r7, #12]
 8002a22:	2201      	movs	r2, #1
 8002a24:	f883 205d 	strb.w	r2, [r3, #93]	@ 0x5d
          __HAL_UNLOCK(hspi);
 8002a28:	68fb      	ldr	r3, [r7, #12]
 8002a2a:	2200      	movs	r2, #0
 8002a2c:	f883 205c 	strb.w	r2, [r3, #92]	@ 0x5c
          return HAL_TIMEOUT;
 8002a30:	2303      	movs	r3, #3
 8002a32:	e0b2      	b.n	8002b9a <HAL_SPI_Transmit+0x2e4>
    while (hspi->TxXferCount > 0U)
 8002a34:	68fb      	ldr	r3, [r7, #12]
 8002a36:	8fdb      	ldrh	r3, [r3, #62]	@ 0x3e
 8002a38:	b29b      	uxth	r3, r3
 8002a3a:	2b00      	cmp	r3, #0
 8002a3c:	d1c7      	bne.n	80029ce <HAL_SPI_Transmit+0x118>
 8002a3e:	e083      	b.n	8002b48 <HAL_SPI_Transmit+0x292>
    }
  }
  /* Transmit data in 8 Bit mode */
  else
  {
    if ((hspi->Init.Mode == SPI_MODE_SLAVE) || (initial_TxXferCount == 0x01U))
 8002a40:	68fb      	ldr	r3, [r7, #12]
 8002a42:	685b      	ldr	r3, [r3, #4]
 8002a44:	2b00      	cmp	r3, #0
 8002a46:	d002      	beq.n	8002a4e <HAL_SPI_Transmit+0x198>
 8002a48:	8b7b      	ldrh	r3, [r7, #26]
 8002a4a:	2b01      	cmp	r3, #1
 8002a4c:	d177      	bne.n	8002b3e <HAL_SPI_Transmit+0x288>
    {
      if (hspi->TxXferCount > 1U)
 8002a4e:	68fb      	ldr	r3, [r7, #12]
 8002a50:	8fdb      	ldrh	r3, [r3, #62]	@ 0x3e
 8002a52:	b29b      	uxth	r3, r3
 8002a54:	2b01      	cmp	r3, #1
 8002a56:	d912      	bls.n	8002a7e <HAL_SPI_Transmit+0x1c8>
      {
        /* write on the data register in packing mode */
        hspi->Instance->DR = *((const uint16_t *)hspi->pTxBuffPtr);
 8002a58:	68fb      	ldr	r3, [r7, #12]
 8002a5a:	6b9b      	ldr	r3, [r3, #56]	@ 0x38
 8002a5c:	881a      	ldrh	r2, [r3, #0]
 8002a5e:	68fb      	ldr	r3, [r7, #12]
 8002a60:	681b      	ldr	r3, [r3, #0]
 8002a62:	60da      	str	r2, [r3, #12]
        hspi->pTxBuffPtr += sizeof(uint16_t);
 8002a64:	68fb      	ldr	r3, [r7, #12]
 8002a66:	6b9b      	ldr	r3, [r3, #56]	@ 0x38
 8002a68:	1c9a      	adds	r2, r3, #2
 8002a6a:	68fb      	ldr	r3, [r7, #12]
 8002a6c:	639a      	str	r2, [r3, #56]	@ 0x38
        hspi->TxXferCount -= 2U;
 8002a6e:	68fb      	ldr	r3, [r7, #12]
 8002a70:	8fdb      	ldrh	r3, [r3, #62]	@ 0x3e
 8002a72:	b29b      	uxth	r3, r3
 8002a74:	3b02      	subs	r3, #2
 8002a76:	b29a      	uxth	r2, r3
 8002a78:	68fb      	ldr	r3, [r7, #12]
 8002a7a:	87da      	strh	r2, [r3, #62]	@ 0x3e
 8002a7c:	e05f      	b.n	8002b3e <HAL_SPI_Transmit+0x288>
      }
      else
      {
        *((__IO uint8_t *)&hspi->Instance->DR) = *((const uint8_t *)hspi->pTxBuffPtr);
 8002a7e:	68fb      	ldr	r3, [r7, #12]
 8002a80:	6b9a      	ldr	r2, [r3, #56]	@ 0x38
 8002a82:	68fb      	ldr	r3, [r7, #12]
 8002a84:	681b      	ldr	r3, [r3, #0]
 8002a86:	330c      	adds	r3, #12
 8002a88:	7812      	ldrb	r2, [r2, #0]
 8002a8a:	701a      	strb	r2, [r3, #0]
        hspi->pTxBuffPtr ++;
 8002a8c:	68fb      	ldr	r3, [r7, #12]
 8002a8e:	6b9b      	ldr	r3, [r3, #56]	@ 0x38
 8002a90:	1c5a      	adds	r2, r3, #1
 8002a92:	68fb      	ldr	r3, [r7, #12]
 8002a94:	639a      	str	r2, [r3, #56]	@ 0x38
        hspi->TxXferCount--;
 8002a96:	68fb      	ldr	r3, [r7, #12]
 8002a98:	8fdb      	ldrh	r3, [r3, #62]	@ 0x3e
 8002a9a:	b29b      	uxth	r3, r3
 8002a9c:	3b01      	subs	r3, #1
 8002a9e:	b29a      	uxth	r2, r3
 8002aa0:	68fb      	ldr	r3, [r7, #12]
 8002aa2:	87da      	strh	r2, [r3, #62]	@ 0x3e
      }
    }
    while (hspi->TxXferCount > 0U)
 8002aa4:	e04b      	b.n	8002b3e <HAL_SPI_Transmit+0x288>
    {
      /* Wait until TXE flag is set to send data */
      if (__HAL_SPI_GET_FLAG(hspi, SPI_FLAG_TXE))
 8002aa6:	68fb      	ldr	r3, [r7, #12]
 8002aa8:	681b      	ldr	r3, [r3, #0]
 8002aaa:	689b      	ldr	r3, [r3, #8]
 8002aac:	f003 0302 	and.w	r3, r3, #2
 8002ab0:	2b02      	cmp	r3, #2
 8002ab2:	d12b      	bne.n	8002b0c <HAL_SPI_Transmit+0x256>
      {
        if (hspi->TxXferCount > 1U)
 8002ab4:	68fb      	ldr	r3, [r7, #12]
 8002ab6:	8fdb      	ldrh	r3, [r3, #62]	@ 0x3e
 8002ab8:	b29b      	uxth	r3, r3
 8002aba:	2b01      	cmp	r3, #1
 8002abc:	d912      	bls.n	8002ae4 <HAL_SPI_Transmit+0x22e>
        {
          /* write on the data register in packing mode */
          hspi->Instance->DR = *((const uint16_t *)hspi->pTxBuffPtr);
 8002abe:	68fb      	ldr	r3, [r7, #12]
 8002ac0:	6b9b      	ldr	r3, [r3, #56]	@ 0x38
 8002ac2:	881a      	ldrh	r2, [r3, #0]
 8002ac4:	68fb      	ldr	r3, [r7, #12]
 8002ac6:	681b      	ldr	r3, [r3, #0]
 8002ac8:	60da      	str	r2, [r3, #12]
          hspi->pTxBuffPtr += sizeof(uint16_t);
 8002aca:	68fb      	ldr	r3, [r7, #12]
 8002acc:	6b9b      	ldr	r3, [r3, #56]	@ 0x38
 8002ace:	1c9a      	adds	r2, r3, #2
 8002ad0:	68fb      	ldr	r3, [r7, #12]
 8002ad2:	639a      	str	r2, [r3, #56]	@ 0x38
          hspi->TxXferCount -= 2U;
 8002ad4:	68fb      	ldr	r3, [r7, #12]
 8002ad6:	8fdb      	ldrh	r3, [r3, #62]	@ 0x3e
 8002ad8:	b29b      	uxth	r3, r3
 8002ada:	3b02      	subs	r3, #2
 8002adc:	b29a      	uxth	r2, r3
 8002ade:	68fb      	ldr	r3, [r7, #12]
 8002ae0:	87da      	strh	r2, [r3, #62]	@ 0x3e
 8002ae2:	e02c      	b.n	8002b3e <HAL_SPI_Transmit+0x288>
        }
        else
        {
          *((__IO uint8_t *)&hspi->Instance->DR) = *((const uint8_t *)hspi->pTxBuffPtr);
 8002ae4:	68fb      	ldr	r3, [r7, #12]
 8002ae6:	6b9a      	ldr	r2, [r3, #56]	@ 0x38
 8002ae8:	68fb      	ldr	r3, [r7, #12]
 8002aea:	681b      	ldr	r3, [r3, #0]
 8002aec:	330c      	adds	r3, #12
 8002aee:	7812      	ldrb	r2, [r2, #0]
 8002af0:	701a      	strb	r2, [r3, #0]
          hspi->pTxBuffPtr++;
 8002af2:	68fb      	ldr	r3, [r7, #12]
 8002af4:	6b9b      	ldr	r3, [r3, #56]	@ 0x38
 8002af6:	1c5a      	adds	r2, r3, #1
 8002af8:	68fb      	ldr	r3, [r7, #12]
 8002afa:	639a      	str	r2, [r3, #56]	@ 0x38
          hspi->TxXferCount--;
 8002afc:	68fb      	ldr	r3, [r7, #12]
 8002afe:	8fdb      	ldrh	r3, [r3, #62]	@ 0x3e
 8002b00:	b29b      	uxth	r3, r3
 8002b02:	3b01      	subs	r3, #1
 8002b04:	b29a      	uxth	r2, r3
 8002b06:	68fb      	ldr	r3, [r7, #12]
 8002b08:	87da      	strh	r2, [r3, #62]	@ 0x3e
 8002b0a:	e018      	b.n	8002b3e <HAL_SPI_Transmit+0x288>
        }
      }
      else
      {
        /* Timeout management */
        if ((((HAL_GetTick() - tickstart) >=  Timeout) && (Timeout != HAL_MAX_DELAY)) || (Timeout == 0U))
 8002b0c:	f7fe f85c 	bl	8000bc8 <HAL_GetTick>
 8002b10:	4602      	mov	r2, r0
 8002b12:	69fb      	ldr	r3, [r7, #28]
 8002b14:	1ad3      	subs	r3, r2, r3
 8002b16:	683a      	ldr	r2, [r7, #0]
 8002b18:	429a      	cmp	r2, r3
 8002b1a:	d803      	bhi.n	8002b24 <HAL_SPI_Transmit+0x26e>
 8002b1c:	683b      	ldr	r3, [r7, #0]
 8002b1e:	f1b3 3fff 	cmp.w	r3, #4294967295
 8002b22:	d102      	bne.n	8002b2a <HAL_SPI_Transmit+0x274>
 8002b24:	683b      	ldr	r3, [r7, #0]
 8002b26:	2b00      	cmp	r3, #0
 8002b28:	d109      	bne.n	8002b3e <HAL_SPI_Transmit+0x288>
        {
          hspi->State = HAL_SPI_STATE_READY;
 8002b2a:	68fb      	ldr	r3, [r7, #12]
 8002b2c:	2201      	movs	r2, #1
 8002b2e:	f883 205d 	strb.w	r2, [r3, #93]	@ 0x5d
          __HAL_UNLOCK(hspi);
 8002b32:	68fb      	ldr	r3, [r7, #12]
 8002b34:	2200      	movs	r2, #0
 8002b36:	f883 205c 	strb.w	r2, [r3, #92]	@ 0x5c
          return HAL_TIMEOUT;
 8002b3a:	2303      	movs	r3, #3
 8002b3c:	e02d      	b.n	8002b9a <HAL_SPI_Transmit+0x2e4>
    while (hspi->TxXferCount > 0U)
 8002b3e:	68fb      	ldr	r3, [r7, #12]
 8002b40:	8fdb      	ldrh	r3, [r3, #62]	@ 0x3e
 8002b42:	b29b      	uxth	r3, r3
 8002b44:	2b00      	cmp	r3, #0
 8002b46:	d1ae      	bne.n	8002aa6 <HAL_SPI_Transmit+0x1f0>
    SET_BIT(hspi->Instance->CR1, SPI_CR1_CRCNEXT);
  }
#endif /* USE_SPI_CRC */

  /* Check the end of the transaction */
  if (SPI_EndRxTxTransaction(hspi, Timeout, tickstart) != HAL_OK)
 8002b48:	69fa      	ldr	r2, [r7, #28]
 8002b4a:	6839      	ldr	r1, [r7, #0]
 8002b4c:	68f8      	ldr	r0, [r7, #12]
 8002b4e:	f000 f947 	bl	8002de0 <SPI_EndRxTxTransaction>
 8002b52:	4603      	mov	r3, r0
 8002b54:	2b00      	cmp	r3, #0
 8002b56:	d002      	beq.n	8002b5e <HAL_SPI_Transmit+0x2a8>
  {
    hspi->ErrorCode = HAL_SPI_ERROR_FLAG;
 8002b58:	68fb      	ldr	r3, [r7, #12]
 8002b5a:	2220      	movs	r2, #32
 8002b5c:	661a      	str	r2, [r3, #96]	@ 0x60
  }

  /* Clear overrun flag in 2 Lines communication mode because received is not read */
  if (hspi->Init.Direction == SPI_DIRECTION_2LINES)
 8002b5e:	68fb      	ldr	r3, [r7, #12]
 8002b60:	689b      	ldr	r3, [r3, #8]
 8002b62:	2b00      	cmp	r3, #0
 8002b64:	d10a      	bne.n	8002b7c <HAL_SPI_Transmit+0x2c6>
  {
    __HAL_SPI_CLEAR_OVRFLAG(hspi);
 8002b66:	2300      	movs	r3, #0
 8002b68:	617b      	str	r3, [r7, #20]
 8002b6a:	68fb      	ldr	r3, [r7, #12]
 8002b6c:	681b      	ldr	r3, [r3, #0]
 8002b6e:	68db      	ldr	r3, [r3, #12]
 8002b70:	617b      	str	r3, [r7, #20]
 8002b72:	68fb      	ldr	r3, [r7, #12]
 8002b74:	681b      	ldr	r3, [r3, #0]
 8002b76:	689b      	ldr	r3, [r3, #8]
 8002b78:	617b      	str	r3, [r7, #20]
 8002b7a:	697b      	ldr	r3, [r7, #20]
  }

  hspi->State = HAL_SPI_STATE_READY;
 8002b7c:	68fb      	ldr	r3, [r7, #12]
 8002b7e:	2201      	movs	r2, #1
 8002b80:	f883 205d 	strb.w	r2, [r3, #93]	@ 0x5d
  /* Process Unlocked */
  __HAL_UNLOCK(hspi);
 8002b84:	68fb      	ldr	r3, [r7, #12]
 8002b86:	2200      	movs	r2, #0
 8002b88:	f883 205c 	strb.w	r2, [r3, #92]	@ 0x5c

  if (hspi->ErrorCode != HAL_SPI_ERROR_NONE)
 8002b8c:	68fb      	ldr	r3, [r7, #12]
 8002b8e:	6e1b      	ldr	r3, [r3, #96]	@ 0x60
 8002b90:	2b00      	cmp	r3, #0
 8002b92:	d001      	beq.n	8002b98 <HAL_SPI_Transmit+0x2e2>
  {
    return HAL_ERROR;
 8002b94:	2301      	movs	r3, #1
 8002b96:	e000      	b.n	8002b9a <HAL_SPI_Transmit+0x2e4>
  }
  else
  {
    return HAL_OK;
 8002b98:	2300      	movs	r3, #0
  }
}
 8002b9a:	4618      	mov	r0, r3
 8002b9c:	3720      	adds	r7, #32
 8002b9e:	46bd      	mov	sp, r7
 8002ba0:	bd80      	pop	{r7, pc}
	...

08002ba4 <SPI_WaitFlagStateUntilTimeout>:
  * @param  Tickstart tick start value
  * @retval HAL status
  */
static HAL_StatusTypeDef SPI_WaitFlagStateUntilTimeout(SPI_HandleTypeDef *hspi, uint32_t Flag, FlagStatus State,
                                                       uint32_t Timeout, uint32_t Tickstart)
{
 8002ba4:	b580      	push	{r7, lr}
 8002ba6:	b088      	sub	sp, #32
 8002ba8:	af00      	add	r7, sp, #0
 8002baa:	60f8      	str	r0, [r7, #12]
 8002bac:	60b9      	str	r1, [r7, #8]
 8002bae:	603b      	str	r3, [r7, #0]
 8002bb0:	4613      	mov	r3, r2
 8002bb2:	71fb      	strb	r3, [r7, #7]
  __IO uint32_t count;
  uint32_t tmp_timeout;
  uint32_t tmp_tickstart;

  /* Adjust Timeout value  in case of end of transfer */
  tmp_timeout   = Timeout - (HAL_GetTick() - Tickstart);
 8002bb4:	f7fe f808 	bl	8000bc8 <HAL_GetTick>
 8002bb8:	4602      	mov	r2, r0
 8002bba:	6abb      	ldr	r3, [r7, #40]	@ 0x28
 8002bbc:	1a9b      	subs	r3, r3, r2
 8002bbe:	683a      	ldr	r2, [r7, #0]
 8002bc0:	4413      	add	r3, r2
 8002bc2:	61fb      	str	r3, [r7, #28]
  tmp_tickstart = HAL_GetTick();
 8002bc4:	f7fe f800 	bl	8000bc8 <HAL_GetTick>
 8002bc8:	61b8      	str	r0, [r7, #24]

  /* Calculate Timeout based on a software loop to avoid blocking issue if Systick is disabled */
  count = tmp_timeout * ((SystemCoreClock * 32U) >> 20U);
 8002bca:	4b39      	ldr	r3, [pc, #228]	@ (8002cb0 <SPI_WaitFlagStateUntilTimeout+0x10c>)
 8002bcc:	681b      	ldr	r3, [r3, #0]
 8002bce:	015b      	lsls	r3, r3, #5
 8002bd0:	0d1b      	lsrs	r3, r3, #20
 8002bd2:	69fa      	ldr	r2, [r7, #28]
 8002bd4:	fb02 f303 	mul.w	r3, r2, r3
 8002bd8:	617b      	str	r3, [r7, #20]

  while ((__HAL_SPI_GET_FLAG(hspi, Flag) ? SET : RESET) != State)
 8002bda:	e055      	b.n	8002c88 <SPI_WaitFlagStateUntilTimeout+0xe4>
  {
    if (Timeout != HAL_MAX_DELAY)
 8002bdc:	683b      	ldr	r3, [r7, #0]
 8002bde:	f1b3 3fff 	cmp.w	r3, #4294967295
 8002be2:	d051      	beq.n	8002c88 <SPI_WaitFlagStateUntilTimeout+0xe4>
    {
      if (((HAL_GetTick() - tmp_tickstart) >= tmp_timeout) || (tmp_timeout == 0U))
 8002be4:	f7fd fff0 	bl	8000bc8 <HAL_GetTick>
 8002be8:	4602      	mov	r2, r0
 8002bea:	69bb      	ldr	r3, [r7, #24]
 8002bec:	1ad3      	subs	r3, r2, r3
 8002bee:	69fa      	ldr	r2, [r7, #28]
 8002bf0:	429a      	cmp	r2, r3
 8002bf2:	d902      	bls.n	8002bfa <SPI_WaitFlagStateUntilTimeout+0x56>
 8002bf4:	69fb      	ldr	r3, [r7, #28]
 8002bf6:	2b00      	cmp	r3, #0
 8002bf8:	d13d      	bne.n	8002c76 <SPI_WaitFlagStateUntilTimeout+0xd2>
        /* Disable the SPI and reset the CRC: the CRC value should be cleared
           on both master and slave sides in order to resynchronize the master
           and slave for their respective CRC calculation */

        /* Disable TXE, RXNE and ERR interrupts for the interrupt process */
        __HAL_SPI_DISABLE_IT(hspi, (SPI_IT_TXE | SPI_IT_RXNE | SPI_IT_ERR));
 8002bfa:	68fb      	ldr	r3, [r7, #12]
 8002bfc:	681b      	ldr	r3, [r3, #0]
 8002bfe:	685a      	ldr	r2, [r3, #4]
 8002c00:	68fb      	ldr	r3, [r7, #12]
 8002c02:	681b      	ldr	r3, [r3, #0]
 8002c04:	f022 02e0 	bic.w	r2, r2, #224	@ 0xe0
 8002c08:	605a      	str	r2, [r3, #4]

        if ((hspi->Init.Mode == SPI_MODE_MASTER) && ((hspi->Init.Direction == SPI_DIRECTION_1LINE)
 8002c0a:	68fb      	ldr	r3, [r7, #12]
 8002c0c:	685b      	ldr	r3, [r3, #4]
 8002c0e:	f5b3 7f82 	cmp.w	r3, #260	@ 0x104
 8002c12:	d111      	bne.n	8002c38 <SPI_WaitFlagStateUntilTimeout+0x94>
 8002c14:	68fb      	ldr	r3, [r7, #12]
 8002c16:	689b      	ldr	r3, [r3, #8]
 8002c18:	f5b3 4f00 	cmp.w	r3, #32768	@ 0x8000
 8002c1c:	d004      	beq.n	8002c28 <SPI_WaitFlagStateUntilTimeout+0x84>
                                                     || (hspi->Init.Direction == SPI_DIRECTION_2LINES_RXONLY)))
 8002c1e:	68fb      	ldr	r3, [r7, #12]
 8002c20:	689b      	ldr	r3, [r3, #8]
 8002c22:	f5b3 6f80 	cmp.w	r3, #1024	@ 0x400
 8002c26:	d107      	bne.n	8002c38 <SPI_WaitFlagStateUntilTimeout+0x94>
        {
          /* Disable SPI peripheral */
          __HAL_SPI_DISABLE(hspi);
 8002c28:	68fb      	ldr	r3, [r7, #12]
 8002c2a:	681b      	ldr	r3, [r3, #0]
 8002c2c:	681a      	ldr	r2, [r3, #0]
 8002c2e:	68fb      	ldr	r3, [r7, #12]
 8002c30:	681b      	ldr	r3, [r3, #0]
 8002c32:	f022 0240 	bic.w	r2, r2, #64	@ 0x40
 8002c36:	601a      	str	r2, [r3, #0]
        }

        /* Reset CRC Calculation */
        if (hspi->Init.CRCCalculation == SPI_CRCCALCULATION_ENABLE)
 8002c38:	68fb      	ldr	r3, [r7, #12]
 8002c3a:	6a9b      	ldr	r3, [r3, #40]	@ 0x28
 8002c3c:	f5b3 5f00 	cmp.w	r3, #8192	@ 0x2000
 8002c40:	d10f      	bne.n	8002c62 <SPI_WaitFlagStateUntilTimeout+0xbe>
        {
          SPI_RESET_CRC(hspi);
 8002c42:	68fb      	ldr	r3, [r7, #12]
 8002c44:	681b      	ldr	r3, [r3, #0]
 8002c46:	681a      	ldr	r2, [r3, #0]
 8002c48:	68fb      	ldr	r3, [r7, #12]
 8002c4a:	681b      	ldr	r3, [r3, #0]
 8002c4c:	f422 5200 	bic.w	r2, r2, #8192	@ 0x2000
 8002c50:	601a      	str	r2, [r3, #0]
 8002c52:	68fb      	ldr	r3, [r7, #12]
 8002c54:	681b      	ldr	r3, [r3, #0]
 8002c56:	681a      	ldr	r2, [r3, #0]
 8002c58:	68fb      	ldr	r3, [r7, #12]
 8002c5a:	681b      	ldr	r3, [r3, #0]
 8002c5c:	f442 5200 	orr.w	r2, r2, #8192	@ 0x2000
 8002c60:	601a      	str	r2, [r3, #0]
        }

        hspi->State = HAL_SPI_STATE_READY;
 8002c62:	68fb      	ldr	r3, [r7, #12]
 8002c64:	2201      	movs	r2, #1
 8002c66:	f883 205d 	strb.w	r2, [r3, #93]	@ 0x5d

        /* Process Unlocked */
        __HAL_UNLOCK(hspi);
 8002c6a:	68fb      	ldr	r3, [r7, #12]
 8002c6c:	2200      	movs	r2, #0
 8002c6e:	f883 205c 	strb.w	r2, [r3, #92]	@ 0x5c

        return HAL_TIMEOUT;
 8002c72:	2303      	movs	r3, #3
 8002c74:	e018      	b.n	8002ca8 <SPI_WaitFlagStateUntilTimeout+0x104>
      }
      /* If Systick is disabled or not incremented, deactivate timeout to go in disable loop procedure */
      if (count == 0U)
 8002c76:	697b      	ldr	r3, [r7, #20]
 8002c78:	2b00      	cmp	r3, #0
 8002c7a:	d102      	bne.n	8002c82 <SPI_WaitFlagStateUntilTimeout+0xde>
      {
        tmp_timeout = 0U;
 8002c7c:	2300      	movs	r3, #0
 8002c7e:	61fb      	str	r3, [r7, #28]
 8002c80:	e002      	b.n	8002c88 <SPI_WaitFlagStateUntilTimeout+0xe4>
      }
      else
      {
        count--;
 8002c82:	697b      	ldr	r3, [r7, #20]
 8002c84:	3b01      	subs	r3, #1
 8002c86:	617b      	str	r3, [r7, #20]
  while ((__HAL_SPI_GET_FLAG(hspi, Flag) ? SET : RESET) != State)
 8002c88:	68fb      	ldr	r3, [r7, #12]
 8002c8a:	681b      	ldr	r3, [r3, #0]
 8002c8c:	689a      	ldr	r2, [r3, #8]
 8002c8e:	68bb      	ldr	r3, [r7, #8]
 8002c90:	4013      	ands	r3, r2
 8002c92:	68ba      	ldr	r2, [r7, #8]
 8002c94:	429a      	cmp	r2, r3
 8002c96:	bf0c      	ite	eq
 8002c98:	2301      	moveq	r3, #1
 8002c9a:	2300      	movne	r3, #0
 8002c9c:	b2db      	uxtb	r3, r3
 8002c9e:	461a      	mov	r2, r3
 8002ca0:	79fb      	ldrb	r3, [r7, #7]
 8002ca2:	429a      	cmp	r2, r3
 8002ca4:	d19a      	bne.n	8002bdc <SPI_WaitFlagStateUntilTimeout+0x38>
      }
    }
  }

  return HAL_OK;
 8002ca6:	2300      	movs	r3, #0
}
 8002ca8:	4618      	mov	r0, r3
 8002caa:	3720      	adds	r7, #32
 8002cac:	46bd      	mov	sp, r7
 8002cae:	bd80      	pop	{r7, pc}
 8002cb0:	20000000 	.word	0x20000000

08002cb4 <SPI_WaitFifoStateUntilTimeout>:
  * @param  Tickstart tick start value
  * @retval HAL status
  */
static HAL_StatusTypeDef SPI_WaitFifoStateUntilTimeout(SPI_HandleTypeDef *hspi, uint32_t Fifo, uint32_t State,
                                                       uint32_t Timeout, uint32_t Tickstart)
{
 8002cb4:	b580      	push	{r7, lr}
 8002cb6:	b08a      	sub	sp, #40	@ 0x28
 8002cb8:	af00      	add	r7, sp, #0
 8002cba:	60f8      	str	r0, [r7, #12]
 8002cbc:	60b9      	str	r1, [r7, #8]
 8002cbe:	607a      	str	r2, [r7, #4]
 8002cc0:	603b      	str	r3, [r7, #0]
  __IO uint32_t count;
  uint32_t tmp_timeout;
  uint32_t tmp_tickstart;
  __IO const uint8_t  *ptmpreg8;
  __IO uint8_t  tmpreg8 = 0;
 8002cc2:	2300      	movs	r3, #0
 8002cc4:	75fb      	strb	r3, [r7, #23]

  /* Adjust Timeout value  in case of end of transfer */
  tmp_timeout = Timeout - (HAL_GetTick() - Tickstart);
 8002cc6:	f7fd ff7f 	bl	8000bc8 <HAL_GetTick>
 8002cca:	4602      	mov	r2, r0
 8002ccc:	6b3b      	ldr	r3, [r7, #48]	@ 0x30
 8002cce:	1a9b      	subs	r3, r3, r2
 8002cd0:	683a      	ldr	r2, [r7, #0]
 8002cd2:	4413      	add	r3, r2
 8002cd4:	627b      	str	r3, [r7, #36]	@ 0x24
  tmp_tickstart = HAL_GetTick();
 8002cd6:	f7fd ff77 	bl	8000bc8 <HAL_GetTick>
 8002cda:	6238      	str	r0, [r7, #32]

  /* Initialize the 8bit temporary pointer */
  ptmpreg8 = (__IO uint8_t *)&hspi->Instance->DR;
 8002cdc:	68fb      	ldr	r3, [r7, #12]
 8002cde:	681b      	ldr	r3, [r3, #0]
 8002ce0:	330c      	adds	r3, #12
 8002ce2:	61fb      	str	r3, [r7, #28]

  /* Calculate Timeout based on a software loop to avoid blocking issue if Systick is disabled */
  count = tmp_timeout * ((SystemCoreClock * 35U) >> 20U);
 8002ce4:	4b3d      	ldr	r3, [pc, #244]	@ (8002ddc <SPI_WaitFifoStateUntilTimeout+0x128>)
 8002ce6:	681a      	ldr	r2, [r3, #0]
 8002ce8:	4613      	mov	r3, r2
 8002cea:	009b      	lsls	r3, r3, #2
 8002cec:	4413      	add	r3, r2
 8002cee:	00da      	lsls	r2, r3, #3
 8002cf0:	1ad3      	subs	r3, r2, r3
 8002cf2:	0d1b      	lsrs	r3, r3, #20
 8002cf4:	6a7a      	ldr	r2, [r7, #36]	@ 0x24
 8002cf6:	fb02 f303 	mul.w	r3, r2, r3
 8002cfa:	61bb      	str	r3, [r7, #24]

  while ((hspi->Instance->SR & Fifo) != State)
 8002cfc:	e061      	b.n	8002dc2 <SPI_WaitFifoStateUntilTimeout+0x10e>
  {
    if ((Fifo == SPI_SR_FRLVL) && (State == SPI_FRLVL_EMPTY))
 8002cfe:	68bb      	ldr	r3, [r7, #8]
 8002d00:	f5b3 6fc0 	cmp.w	r3, #1536	@ 0x600
 8002d04:	d107      	bne.n	8002d16 <SPI_WaitFifoStateUntilTimeout+0x62>
 8002d06:	687b      	ldr	r3, [r7, #4]
 8002d08:	2b00      	cmp	r3, #0
 8002d0a:	d104      	bne.n	8002d16 <SPI_WaitFifoStateUntilTimeout+0x62>
    {
      /* Flush Data Register by a blank read */
      tmpreg8 = *ptmpreg8;
 8002d0c:	69fb      	ldr	r3, [r7, #28]
 8002d0e:	781b      	ldrb	r3, [r3, #0]
 8002d10:	b2db      	uxtb	r3, r3
 8002d12:	75fb      	strb	r3, [r7, #23]
      /* To avoid GCC warning */
      UNUSED(tmpreg8);
 8002d14:	7dfb      	ldrb	r3, [r7, #23]
    }

    if (Timeout != HAL_MAX_DELAY)
 8002d16:	683b      	ldr	r3, [r7, #0]
 8002d18:	f1b3 3fff 	cmp.w	r3, #4294967295
 8002d1c:	d051      	beq.n	8002dc2 <SPI_WaitFifoStateUntilTimeout+0x10e>
    {
      if (((HAL_GetTick() - tmp_tickstart) >= tmp_timeout) || (tmp_timeout == 0U))
 8002d1e:	f7fd ff53 	bl	8000bc8 <HAL_GetTick>
 8002d22:	4602      	mov	r2, r0
 8002d24:	6a3b      	ldr	r3, [r7, #32]
 8002d26:	1ad3      	subs	r3, r2, r3
 8002d28:	6a7a      	ldr	r2, [r7, #36]	@ 0x24
 8002d2a:	429a      	cmp	r2, r3
 8002d2c:	d902      	bls.n	8002d34 <SPI_WaitFifoStateUntilTimeout+0x80>
 8002d2e:	6a7b      	ldr	r3, [r7, #36]	@ 0x24
 8002d30:	2b00      	cmp	r3, #0
 8002d32:	d13d      	bne.n	8002db0 <SPI_WaitFifoStateUntilTimeout+0xfc>
        /* Disable the SPI and reset the CRC: the CRC value should be cleared
           on both master and slave sides in order to resynchronize the master
           and slave for their respective CRC calculation */

        /* Disable TXE, RXNE and ERR interrupts for the interrupt process */
        __HAL_SPI_DISABLE_IT(hspi, (SPI_IT_TXE | SPI_IT_RXNE | SPI_IT_ERR));
 8002d34:	68fb      	ldr	r3, [r7, #12]
 8002d36:	681b      	ldr	r3, [r3, #0]
 8002d38:	685a      	ldr	r2, [r3, #4]
 8002d3a:	68fb      	ldr	r3, [r7, #12]
 8002d3c:	681b      	ldr	r3, [r3, #0]
 8002d3e:	f022 02e0 	bic.w	r2, r2, #224	@ 0xe0
 8002d42:	605a      	str	r2, [r3, #4]

        if ((hspi->Init.Mode == SPI_MODE_MASTER) && ((hspi->Init.Direction == SPI_DIRECTION_1LINE)
 8002d44:	68fb      	ldr	r3, [r7, #12]
 8002d46:	685b      	ldr	r3, [r3, #4]
 8002d48:	f5b3 7f82 	cmp.w	r3, #260	@ 0x104
 8002d4c:	d111      	bne.n	8002d72 <SPI_WaitFifoStateUntilTimeout+0xbe>
 8002d4e:	68fb      	ldr	r3, [r7, #12]
 8002d50:	689b      	ldr	r3, [r3, #8]
 8002d52:	f5b3 4f00 	cmp.w	r3, #32768	@ 0x8000
 8002d56:	d004      	beq.n	8002d62 <SPI_WaitFifoStateUntilTimeout+0xae>
                                                     || (hspi->Init.Direction == SPI_DIRECTION_2LINES_RXONLY)))
 8002d58:	68fb      	ldr	r3, [r7, #12]
 8002d5a:	689b      	ldr	r3, [r3, #8]
 8002d5c:	f5b3 6f80 	cmp.w	r3, #1024	@ 0x400
 8002d60:	d107      	bne.n	8002d72 <SPI_WaitFifoStateUntilTimeout+0xbe>
        {
          /* Disable SPI peripheral */
          __HAL_SPI_DISABLE(hspi);
 8002d62:	68fb      	ldr	r3, [r7, #12]
 8002d64:	681b      	ldr	r3, [r3, #0]
 8002d66:	681a      	ldr	r2, [r3, #0]
 8002d68:	68fb      	ldr	r3, [r7, #12]
 8002d6a:	681b      	ldr	r3, [r3, #0]
 8002d6c:	f022 0240 	bic.w	r2, r2, #64	@ 0x40
 8002d70:	601a      	str	r2, [r3, #0]
        }

        /* Reset CRC Calculation */
        if (hspi->Init.CRCCalculation == SPI_CRCCALCULATION_ENABLE)
 8002d72:	68fb      	ldr	r3, [r7, #12]
 8002d74:	6a9b      	ldr	r3, [r3, #40]	@ 0x28
 8002d76:	f5b3 5f00 	cmp.w	r3, #8192	@ 0x2000
 8002d7a:	d10f      	bne.n	8002d9c <SPI_WaitFifoStateUntilTimeout+0xe8>
        {
          SPI_RESET_CRC(hspi);
 8002d7c:	68fb      	ldr	r3, [r7, #12]
 8002d7e:	681b      	ldr	r3, [r3, #0]
 8002d80:	681a      	ldr	r2, [r3, #0]
 8002d82:	68fb      	ldr	r3, [r7, #12]
 8002d84:	681b      	ldr	r3, [r3, #0]
 8002d86:	f422 5200 	bic.w	r2, r2, #8192	@ 0x2000
 8002d8a:	601a      	str	r2, [r3, #0]
 8002d8c:	68fb      	ldr	r3, [r7, #12]
 8002d8e:	681b      	ldr	r3, [r3, #0]
 8002d90:	681a      	ldr	r2, [r3, #0]
 8002d92:	68fb      	ldr	r3, [r7, #12]
 8002d94:	681b      	ldr	r3, [r3, #0]
 8002d96:	f442 5200 	orr.w	r2, r2, #8192	@ 0x2000
 8002d9a:	601a      	str	r2, [r3, #0]
        }

        hspi->State = HAL_SPI_STATE_READY;
 8002d9c:	68fb      	ldr	r3, [r7, #12]
 8002d9e:	2201      	movs	r2, #1
 8002da0:	f883 205d 	strb.w	r2, [r3, #93]	@ 0x5d

        /* Process Unlocked */
        __HAL_UNLOCK(hspi);
 8002da4:	68fb      	ldr	r3, [r7, #12]
 8002da6:	2200      	movs	r2, #0
 8002da8:	f883 205c 	strb.w	r2, [r3, #92]	@ 0x5c

        return HAL_TIMEOUT;
 8002dac:	2303      	movs	r3, #3
 8002dae:	e011      	b.n	8002dd4 <SPI_WaitFifoStateUntilTimeout+0x120>
      }
      /* If Systick is disabled or not incremented, deactivate timeout to go in disable loop procedure */
      if (count == 0U)
 8002db0:	69bb      	ldr	r3, [r7, #24]
 8002db2:	2b00      	cmp	r3, #0
 8002db4:	d102      	bne.n	8002dbc <SPI_WaitFifoStateUntilTimeout+0x108>
      {
        tmp_timeout = 0U;
 8002db6:	2300      	movs	r3, #0
 8002db8:	627b      	str	r3, [r7, #36]	@ 0x24
 8002dba:	e002      	b.n	8002dc2 <SPI_WaitFifoStateUntilTimeout+0x10e>
      }
      else
      {
        count--;
 8002dbc:	69bb      	ldr	r3, [r7, #24]
 8002dbe:	3b01      	subs	r3, #1
 8002dc0:	61bb      	str	r3, [r7, #24]
  while ((hspi->Instance->SR & Fifo) != State)
 8002dc2:	68fb      	ldr	r3, [r7, #12]
 8002dc4:	681b      	ldr	r3, [r3, #0]
 8002dc6:	689a      	ldr	r2, [r3, #8]
 8002dc8:	68bb      	ldr	r3, [r7, #8]
 8002dca:	4013      	ands	r3, r2
 8002dcc:	687a      	ldr	r2, [r7, #4]
 8002dce:	429a      	cmp	r2, r3
 8002dd0:	d195      	bne.n	8002cfe <SPI_WaitFifoStateUntilTimeout+0x4a>
      }
    }
  }

  return HAL_OK;
 8002dd2:	2300      	movs	r3, #0
}
 8002dd4:	4618      	mov	r0, r3
 8002dd6:	3728      	adds	r7, #40	@ 0x28
 8002dd8:	46bd      	mov	sp, r7
 8002dda:	bd80      	pop	{r7, pc}
 8002ddc:	20000000 	.word	0x20000000

08002de0 <SPI_EndRxTxTransaction>:
  * @param  Timeout Timeout duration
  * @param  Tickstart tick start value
  * @retval HAL status
  */
static HAL_StatusTypeDef SPI_EndRxTxTransaction(SPI_HandleTypeDef *hspi, uint32_t Timeout, uint32_t Tickstart)
{
 8002de0:	b580      	push	{r7, lr}
 8002de2:	b086      	sub	sp, #24
 8002de4:	af02      	add	r7, sp, #8
 8002de6:	60f8      	str	r0, [r7, #12]
 8002de8:	60b9      	str	r1, [r7, #8]
 8002dea:	607a      	str	r2, [r7, #4]
  /* Control if the TX fifo is empty */
  if (SPI_WaitFifoStateUntilTimeout(hspi, SPI_FLAG_FTLVL, SPI_FTLVL_EMPTY, Timeout, Tickstart) != HAL_OK)
 8002dec:	687b      	ldr	r3, [r7, #4]
 8002dee:	9300      	str	r3, [sp, #0]
 8002df0:	68bb      	ldr	r3, [r7, #8]
 8002df2:	2200      	movs	r2, #0
 8002df4:	f44f 51c0 	mov.w	r1, #6144	@ 0x1800
 8002df8:	68f8      	ldr	r0, [r7, #12]
 8002dfa:	f7ff ff5b 	bl	8002cb4 <SPI_WaitFifoStateUntilTimeout>
 8002dfe:	4603      	mov	r3, r0
 8002e00:	2b00      	cmp	r3, #0
 8002e02:	d007      	beq.n	8002e14 <SPI_EndRxTxTransaction+0x34>
  {
    SET_BIT(hspi->ErrorCode, HAL_SPI_ERROR_FLAG);
 8002e04:	68fb      	ldr	r3, [r7, #12]
 8002e06:	6e1b      	ldr	r3, [r3, #96]	@ 0x60
 8002e08:	f043 0220 	orr.w	r2, r3, #32
 8002e0c:	68fb      	ldr	r3, [r7, #12]
 8002e0e:	661a      	str	r2, [r3, #96]	@ 0x60
    return HAL_TIMEOUT;
 8002e10:	2303      	movs	r3, #3
 8002e12:	e027      	b.n	8002e64 <SPI_EndRxTxTransaction+0x84>
  }

  /* Control the BSY flag */
  if (SPI_WaitFlagStateUntilTimeout(hspi, SPI_FLAG_BSY, RESET, Timeout, Tickstart) != HAL_OK)
 8002e14:	687b      	ldr	r3, [r7, #4]
 8002e16:	9300      	str	r3, [sp, #0]
 8002e18:	68bb      	ldr	r3, [r7, #8]
 8002e1a:	2200      	movs	r2, #0
 8002e1c:	2180      	movs	r1, #128	@ 0x80
 8002e1e:	68f8      	ldr	r0, [r7, #12]
 8002e20:	f7ff fec0 	bl	8002ba4 <SPI_WaitFlagStateUntilTimeout>
 8002e24:	4603      	mov	r3, r0
 8002e26:	2b00      	cmp	r3, #0
 8002e28:	d007      	beq.n	8002e3a <SPI_EndRxTxTransaction+0x5a>
  {
    SET_BIT(hspi->ErrorCode, HAL_SPI_ERROR_FLAG);
 8002e2a:	68fb      	ldr	r3, [r7, #12]
 8002e2c:	6e1b      	ldr	r3, [r3, #96]	@ 0x60
 8002e2e:	f043 0220 	orr.w	r2, r3, #32
 8002e32:	68fb      	ldr	r3, [r7, #12]
 8002e34:	661a      	str	r2, [r3, #96]	@ 0x60
    return HAL_TIMEOUT;
 8002e36:	2303      	movs	r3, #3
 8002e38:	e014      	b.n	8002e64 <SPI_EndRxTxTransaction+0x84>
  }

  /* Control if the RX fifo is empty */
  if (SPI_WaitFifoStateUntilTimeout(hspi, SPI_FLAG_FRLVL, SPI_FRLVL_EMPTY, Timeout, Tickstart) != HAL_OK)
 8002e3a:	687b      	ldr	r3, [r7, #4]
 8002e3c:	9300      	str	r3, [sp, #0]
 8002e3e:	68bb      	ldr	r3, [r7, #8]
 8002e40:	2200      	movs	r2, #0
 8002e42:	f44f 61c0 	mov.w	r1, #1536	@ 0x600
 8002e46:	68f8      	ldr	r0, [r7, #12]
 8002e48:	f7ff ff34 	bl	8002cb4 <SPI_WaitFifoStateUntilTimeout>
 8002e4c:	4603      	mov	r3, r0
 8002e4e:	2b00      	cmp	r3, #0
 8002e50:	d007      	beq.n	8002e62 <SPI_EndRxTxTransaction+0x82>
  {
    SET_BIT(hspi->ErrorCode, HAL_SPI_ERROR_FLAG);
 8002e52:	68fb      	ldr	r3, [r7, #12]
 8002e54:	6e1b      	ldr	r3, [r3, #96]	@ 0x60
 8002e56:	f043 0220 	orr.w	r2, r3, #32
 8002e5a:	68fb      	ldr	r3, [r7, #12]
 8002e5c:	661a      	str	r2, [r3, #96]	@ 0x60
    return HAL_TIMEOUT;
 8002e5e:	2303      	movs	r3, #3
 8002e60:	e000      	b.n	8002e64 <SPI_EndRxTxTransaction+0x84>
  }

  return HAL_OK;
 8002e62:	2300      	movs	r3, #0
}
 8002e64:	4618      	mov	r0, r3
 8002e66:	3710      	adds	r7, #16
 8002e68:	46bd      	mov	sp, r7
 8002e6a:	bd80      	pop	{r7, pc}

08002e6c <HAL_UART_Init>:
  *        parameters in the UART_InitTypeDef and initialize the associated handle.
  * @param huart UART handle.
  * @retval HAL status
  */
HAL_StatusTypeDef HAL_UART_Init(UART_HandleTypeDef *huart)
{
 8002e6c:	b580      	push	{r7, lr}
 8002e6e:	b082      	sub	sp, #8
 8002e70:	af00      	add	r7, sp, #0
 8002e72:	6078      	str	r0, [r7, #4]
  /* Check the UART handle allocation */
  if (huart == NULL)
 8002e74:	687b      	ldr	r3, [r7, #4]
 8002e76:	2b00      	cmp	r3, #0
 8002e78:	d101      	bne.n	8002e7e <HAL_UART_Init+0x12>
  {
    return HAL_ERROR;
 8002e7a:	2301      	movs	r3, #1
 8002e7c:	e040      	b.n	8002f00 <HAL_UART_Init+0x94>
  {
    /* Check the parameters */
    assert_param((IS_UART_INSTANCE(huart->Instance)) || (IS_LPUART_INSTANCE(huart->Instance)));
  }

  if (huart->gState == HAL_UART_STATE_RESET)
 8002e7e:	687b      	ldr	r3, [r7, #4]
 8002e80:	6fdb      	ldr	r3, [r3, #124]	@ 0x7c
 8002e82:	2b00      	cmp	r3, #0
 8002e84:	d106      	bne.n	8002e94 <HAL_UART_Init+0x28>
  {
    /* Allocate lock resource and initialize it */
    huart->Lock = HAL_UNLOCKED;
 8002e86:	687b      	ldr	r3, [r7, #4]
 8002e88:	2200      	movs	r2, #0
 8002e8a:	f883 2078 	strb.w	r2, [r3, #120]	@ 0x78

    /* Init the low level hardware */
    huart->MspInitCallback(huart);
#else
    /* Init the low level hardware : GPIO, CLOCK */
    HAL_UART_MspInit(huart);
 8002e8e:	6878      	ldr	r0, [r7, #4]
 8002e90:	f7fd fd62 	bl	8000958 <HAL_UART_MspInit>
#endif /* (USE_HAL_UART_REGISTER_CALLBACKS) */
  }

  huart->gState = HAL_UART_STATE_BUSY;
 8002e94:	687b      	ldr	r3, [r7, #4]
 8002e96:	2224      	movs	r2, #36	@ 0x24
 8002e98:	67da      	str	r2, [r3, #124]	@ 0x7c

  __HAL_UART_DISABLE(huart);
 8002e9a:	687b      	ldr	r3, [r7, #4]
 8002e9c:	681b      	ldr	r3, [r3, #0]
 8002e9e:	681a      	ldr	r2, [r3, #0]
 8002ea0:	687b      	ldr	r3, [r7, #4]
 8002ea2:	681b      	ldr	r3, [r3, #0]
 8002ea4:	f022 0201 	bic.w	r2, r2, #1
 8002ea8:	601a      	str	r2, [r3, #0]

  /* Perform advanced settings configuration */
  /* For some items, configuration requires to be done prior TE and RE bits are set */
  if (huart->AdvancedInit.AdvFeatureInit != UART_ADVFEATURE_NO_INIT)
 8002eaa:	687b      	ldr	r3, [r7, #4]
 8002eac:	6a5b      	ldr	r3, [r3, #36]	@ 0x24
 8002eae:	2b00      	cmp	r3, #0
 8002eb0:	d002      	beq.n	8002eb8 <HAL_UART_Init+0x4c>
  {
    UART_AdvFeatureConfig(huart);
 8002eb2:	6878      	ldr	r0, [r7, #4]
 8002eb4:	f000 fae0 	bl	8003478 <UART_AdvFeatureConfig>
  }

  /* Set the UART Communication parameters */
  if (UART_SetConfig(huart) == HAL_ERROR)
 8002eb8:	6878      	ldr	r0, [r7, #4]
 8002eba:	f000 f825 	bl	8002f08 <UART_SetConfig>
 8002ebe:	4603      	mov	r3, r0
 8002ec0:	2b01      	cmp	r3, #1
 8002ec2:	d101      	bne.n	8002ec8 <HAL_UART_Init+0x5c>
  {
    return HAL_ERROR;
 8002ec4:	2301      	movs	r3, #1
 8002ec6:	e01b      	b.n	8002f00 <HAL_UART_Init+0x94>
  }

  /* In asynchronous mode, the following bits must be kept cleared:
  - LINEN and CLKEN bits in the USART_CR2 register,
  - SCEN, HDSEL and IREN  bits in the USART_CR3 register.*/
  CLEAR_BIT(huart->Instance->CR2, (USART_CR2_LINEN | USART_CR2_CLKEN));
 8002ec8:	687b      	ldr	r3, [r7, #4]
 8002eca:	681b      	ldr	r3, [r3, #0]
 8002ecc:	685a      	ldr	r2, [r3, #4]
 8002ece:	687b      	ldr	r3, [r7, #4]
 8002ed0:	681b      	ldr	r3, [r3, #0]
 8002ed2:	f422 4290 	bic.w	r2, r2, #18432	@ 0x4800
 8002ed6:	605a      	str	r2, [r3, #4]
  CLEAR_BIT(huart->Instance->CR3, (USART_CR3_SCEN | USART_CR3_HDSEL | USART_CR3_IREN));
 8002ed8:	687b      	ldr	r3, [r7, #4]
 8002eda:	681b      	ldr	r3, [r3, #0]
 8002edc:	689a      	ldr	r2, [r3, #8]
 8002ede:	687b      	ldr	r3, [r7, #4]
 8002ee0:	681b      	ldr	r3, [r3, #0]
 8002ee2:	f022 022a 	bic.w	r2, r2, #42	@ 0x2a
 8002ee6:	609a      	str	r2, [r3, #8]

  __HAL_UART_ENABLE(huart);
 8002ee8:	687b      	ldr	r3, [r7, #4]
 8002eea:	681b      	ldr	r3, [r3, #0]
 8002eec:	681a      	ldr	r2, [r3, #0]
 8002eee:	687b      	ldr	r3, [r7, #4]
 8002ef0:	681b      	ldr	r3, [r3, #0]
 8002ef2:	f042 0201 	orr.w	r2, r2, #1
 8002ef6:	601a      	str	r2, [r3, #0]

  /* TEACK and/or REACK to check before moving huart->gState and huart->RxState to Ready */
  return (UART_CheckIdleState(huart));
 8002ef8:	6878      	ldr	r0, [r7, #4]
 8002efa:	f000 fb5f 	bl	80035bc <UART_CheckIdleState>
 8002efe:	4603      	mov	r3, r0
}
 8002f00:	4618      	mov	r0, r3
 8002f02:	3708      	adds	r7, #8
 8002f04:	46bd      	mov	sp, r7
 8002f06:	bd80      	pop	{r7, pc}

08002f08 <UART_SetConfig>:
  * @brief Configure the UART peripheral.
  * @param huart UART handle.
  * @retval HAL status
  */
HAL_StatusTypeDef UART_SetConfig(UART_HandleTypeDef *huart)
{
 8002f08:	e92d 4fb0 	stmdb	sp!, {r4, r5, r7, r8, r9, sl, fp, lr}
 8002f0c:	b08a      	sub	sp, #40	@ 0x28
 8002f0e:	af00      	add	r7, sp, #0
 8002f10:	60f8      	str	r0, [r7, #12]
  uint32_t tmpreg;
  uint16_t brrtemp;
  UART_ClockSourceTypeDef clocksource;
  uint32_t usartdiv;
  HAL_StatusTypeDef ret               = HAL_OK;
 8002f12:	2300      	movs	r3, #0
 8002f14:	f887 3022 	strb.w	r3, [r7, #34]	@ 0x22
  *  the UART Word Length, Parity, Mode and oversampling:
  *  set the M bits according to huart->Init.WordLength value
  *  set PCE and PS bits according to huart->Init.Parity value
  *  set TE and RE bits according to huart->Init.Mode value
  *  set OVER8 bit according to huart->Init.OverSampling value */
  tmpreg = (uint32_t)huart->Init.WordLength | huart->Init.Parity | huart->Init.Mode | huart->Init.OverSampling ;
 8002f18:	68fb      	ldr	r3, [r7, #12]
 8002f1a:	689a      	ldr	r2, [r3, #8]
 8002f1c:	68fb      	ldr	r3, [r7, #12]
 8002f1e:	691b      	ldr	r3, [r3, #16]
 8002f20:	431a      	orrs	r2, r3
 8002f22:	68fb      	ldr	r3, [r7, #12]
 8002f24:	695b      	ldr	r3, [r3, #20]
 8002f26:	431a      	orrs	r2, r3
 8002f28:	68fb      	ldr	r3, [r7, #12]
 8002f2a:	69db      	ldr	r3, [r3, #28]
 8002f2c:	4313      	orrs	r3, r2
 8002f2e:	627b      	str	r3, [r7, #36]	@ 0x24
  MODIFY_REG(huart->Instance->CR1, USART_CR1_FIELDS, tmpreg);
 8002f30:	68fb      	ldr	r3, [r7, #12]
 8002f32:	681b      	ldr	r3, [r3, #0]
 8002f34:	681a      	ldr	r2, [r3, #0]
 8002f36:	4ba4      	ldr	r3, [pc, #656]	@ (80031c8 <UART_SetConfig+0x2c0>)
 8002f38:	4013      	ands	r3, r2
 8002f3a:	68fa      	ldr	r2, [r7, #12]
 8002f3c:	6812      	ldr	r2, [r2, #0]
 8002f3e:	6a79      	ldr	r1, [r7, #36]	@ 0x24
 8002f40:	430b      	orrs	r3, r1
 8002f42:	6013      	str	r3, [r2, #0]

  /*-------------------------- USART CR2 Configuration -----------------------*/
  /* Configure the UART Stop Bits: Set STOP[13:12] bits according
  * to huart->Init.StopBits value */
  MODIFY_REG(huart->Instance->CR2, USART_CR2_STOP, huart->Init.StopBits);
 8002f44:	68fb      	ldr	r3, [r7, #12]
 8002f46:	681b      	ldr	r3, [r3, #0]
 8002f48:	685b      	ldr	r3, [r3, #4]
 8002f4a:	f423 5140 	bic.w	r1, r3, #12288	@ 0x3000
 8002f4e:	68fb      	ldr	r3, [r7, #12]
 8002f50:	68da      	ldr	r2, [r3, #12]
 8002f52:	68fb      	ldr	r3, [r7, #12]
 8002f54:	681b      	ldr	r3, [r3, #0]
 8002f56:	430a      	orrs	r2, r1
 8002f58:	605a      	str	r2, [r3, #4]
  /* Configure
  * - UART HardWare Flow Control: set CTSE and RTSE bits according
  *   to huart->Init.HwFlowCtl value
  * - one-bit sampling method versus three samples' majority rule according
  *   to huart->Init.OneBitSampling (not applicable to LPUART) */
  tmpreg = (uint32_t)huart->Init.HwFlowCtl;
 8002f5a:	68fb      	ldr	r3, [r7, #12]
 8002f5c:	699b      	ldr	r3, [r3, #24]
 8002f5e:	627b      	str	r3, [r7, #36]	@ 0x24

  if (!(UART_INSTANCE_LOWPOWER(huart)))
 8002f60:	68fb      	ldr	r3, [r7, #12]
 8002f62:	681b      	ldr	r3, [r3, #0]
 8002f64:	4a99      	ldr	r2, [pc, #612]	@ (80031cc <UART_SetConfig+0x2c4>)
 8002f66:	4293      	cmp	r3, r2
 8002f68:	d004      	beq.n	8002f74 <UART_SetConfig+0x6c>
  {
    tmpreg |= huart->Init.OneBitSampling;
 8002f6a:	68fb      	ldr	r3, [r7, #12]
 8002f6c:	6a1b      	ldr	r3, [r3, #32]
 8002f6e:	6a7a      	ldr	r2, [r7, #36]	@ 0x24
 8002f70:	4313      	orrs	r3, r2
 8002f72:	627b      	str	r3, [r7, #36]	@ 0x24
  }
  MODIFY_REG(huart->Instance->CR3, USART_CR3_FIELDS, tmpreg);
 8002f74:	68fb      	ldr	r3, [r7, #12]
 8002f76:	681b      	ldr	r3, [r3, #0]
 8002f78:	689b      	ldr	r3, [r3, #8]
 8002f7a:	f423 6130 	bic.w	r1, r3, #2816	@ 0xb00
 8002f7e:	68fb      	ldr	r3, [r7, #12]
 8002f80:	681b      	ldr	r3, [r3, #0]
 8002f82:	6a7a      	ldr	r2, [r7, #36]	@ 0x24
 8002f84:	430a      	orrs	r2, r1
 8002f86:	609a      	str	r2, [r3, #8]
  * - UART Clock Prescaler : set PRESCALER according to huart->Init.ClockPrescaler value */
  MODIFY_REG(huart->Instance->PRESC, USART_PRESC_PRESCALER, huart->Init.ClockPrescaler);
#endif /* USART_PRESC_PRESCALER */

  /*-------------------------- USART BRR Configuration -----------------------*/
  UART_GETCLOCKSOURCE(huart, clocksource);
 8002f88:	68fb      	ldr	r3, [r7, #12]
 8002f8a:	681b      	ldr	r3, [r3, #0]
 8002f8c:	4a90      	ldr	r2, [pc, #576]	@ (80031d0 <UART_SetConfig+0x2c8>)
 8002f8e:	4293      	cmp	r3, r2
 8002f90:	d126      	bne.n	8002fe0 <UART_SetConfig+0xd8>
 8002f92:	4b90      	ldr	r3, [pc, #576]	@ (80031d4 <UART_SetConfig+0x2cc>)
 8002f94:	f8d3 3088 	ldr.w	r3, [r3, #136]	@ 0x88
 8002f98:	f003 0303 	and.w	r3, r3, #3
 8002f9c:	2b03      	cmp	r3, #3
 8002f9e:	d81b      	bhi.n	8002fd8 <UART_SetConfig+0xd0>
 8002fa0:	a201      	add	r2, pc, #4	@ (adr r2, 8002fa8 <UART_SetConfig+0xa0>)
 8002fa2:	f852 f023 	ldr.w	pc, [r2, r3, lsl #2]
 8002fa6:	bf00      	nop
 8002fa8:	08002fb9 	.word	0x08002fb9
 8002fac:	08002fc9 	.word	0x08002fc9
 8002fb0:	08002fc1 	.word	0x08002fc1
 8002fb4:	08002fd1 	.word	0x08002fd1
 8002fb8:	2301      	movs	r3, #1
 8002fba:	f887 3023 	strb.w	r3, [r7, #35]	@ 0x23
 8002fbe:	e116      	b.n	80031ee <UART_SetConfig+0x2e6>
 8002fc0:	2302      	movs	r3, #2
 8002fc2:	f887 3023 	strb.w	r3, [r7, #35]	@ 0x23
 8002fc6:	e112      	b.n	80031ee <UART_SetConfig+0x2e6>
 8002fc8:	2304      	movs	r3, #4
 8002fca:	f887 3023 	strb.w	r3, [r7, #35]	@ 0x23
 8002fce:	e10e      	b.n	80031ee <UART_SetConfig+0x2e6>
 8002fd0:	2308      	movs	r3, #8
 8002fd2:	f887 3023 	strb.w	r3, [r7, #35]	@ 0x23
 8002fd6:	e10a      	b.n	80031ee <UART_SetConfig+0x2e6>
 8002fd8:	2310      	movs	r3, #16
 8002fda:	f887 3023 	strb.w	r3, [r7, #35]	@ 0x23
 8002fde:	e106      	b.n	80031ee <UART_SetConfig+0x2e6>
 8002fe0:	68fb      	ldr	r3, [r7, #12]
 8002fe2:	681b      	ldr	r3, [r3, #0]
 8002fe4:	4a7c      	ldr	r2, [pc, #496]	@ (80031d8 <UART_SetConfig+0x2d0>)
 8002fe6:	4293      	cmp	r3, r2
 8002fe8:	d138      	bne.n	800305c <UART_SetConfig+0x154>
 8002fea:	4b7a      	ldr	r3, [pc, #488]	@ (80031d4 <UART_SetConfig+0x2cc>)
 8002fec:	f8d3 3088 	ldr.w	r3, [r3, #136]	@ 0x88
 8002ff0:	f003 030c 	and.w	r3, r3, #12
 8002ff4:	2b0c      	cmp	r3, #12
 8002ff6:	d82d      	bhi.n	8003054 <UART_SetConfig+0x14c>
 8002ff8:	a201      	add	r2, pc, #4	@ (adr r2, 8003000 <UART_SetConfig+0xf8>)
 8002ffa:	f852 f023 	ldr.w	pc, [r2, r3, lsl #2]
 8002ffe:	bf00      	nop
 8003000:	08003035 	.word	0x08003035
 8003004:	08003055 	.word	0x08003055
 8003008:	08003055 	.word	0x08003055
 800300c:	08003055 	.word	0x08003055
 8003010:	08003045 	.word	0x08003045
 8003014:	08003055 	.word	0x08003055
 8003018:	08003055 	.word	0x08003055
 800301c:	08003055 	.word	0x08003055
 8003020:	0800303d 	.word	0x0800303d
 8003024:	08003055 	.word	0x08003055
 8003028:	08003055 	.word	0x08003055
 800302c:	08003055 	.word	0x08003055
 8003030:	0800304d 	.word	0x0800304d
 8003034:	2300      	movs	r3, #0
 8003036:	f887 3023 	strb.w	r3, [r7, #35]	@ 0x23
 800303a:	e0d8      	b.n	80031ee <UART_SetConfig+0x2e6>
 800303c:	2302      	movs	r3, #2
 800303e:	f887 3023 	strb.w	r3, [r7, #35]	@ 0x23
 8003042:	e0d4      	b.n	80031ee <UART_SetConfig+0x2e6>
 8003044:	2304      	movs	r3, #4
 8003046:	f887 3023 	strb.w	r3, [r7, #35]	@ 0x23
 800304a:	e0d0      	b.n	80031ee <UART_SetConfig+0x2e6>
 800304c:	2308      	movs	r3, #8
 800304e:	f887 3023 	strb.w	r3, [r7, #35]	@ 0x23
 8003052:	e0cc      	b.n	80031ee <UART_SetConfig+0x2e6>
 8003054:	2310      	movs	r3, #16
 8003056:	f887 3023 	strb.w	r3, [r7, #35]	@ 0x23
 800305a:	e0c8      	b.n	80031ee <UART_SetConfig+0x2e6>
 800305c:	68fb      	ldr	r3, [r7, #12]
 800305e:	681b      	ldr	r3, [r3, #0]
 8003060:	4a5e      	ldr	r2, [pc, #376]	@ (80031dc <UART_SetConfig+0x2d4>)
 8003062:	4293      	cmp	r3, r2
 8003064:	d125      	bne.n	80030b2 <UART_SetConfig+0x1aa>
 8003066:	4b5b      	ldr	r3, [pc, #364]	@ (80031d4 <UART_SetConfig+0x2cc>)
 8003068:	f8d3 3088 	ldr.w	r3, [r3, #136]	@ 0x88
 800306c:	f003 0330 	and.w	r3, r3, #48	@ 0x30
 8003070:	2b30      	cmp	r3, #48	@ 0x30
 8003072:	d016      	beq.n	80030a2 <UART_SetConfig+0x19a>
 8003074:	2b30      	cmp	r3, #48	@ 0x30
 8003076:	d818      	bhi.n	80030aa <UART_SetConfig+0x1a2>
 8003078:	2b20      	cmp	r3, #32
 800307a:	d00a      	beq.n	8003092 <UART_SetConfig+0x18a>
 800307c:	2b20      	cmp	r3, #32
 800307e:	d814      	bhi.n	80030aa <UART_SetConfig+0x1a2>
 8003080:	2b00      	cmp	r3, #0
 8003082:	d002      	beq.n	800308a <UART_SetConfig+0x182>
 8003084:	2b10      	cmp	r3, #16
 8003086:	d008      	beq.n	800309a <UART_SetConfig+0x192>
 8003088:	e00f      	b.n	80030aa <UART_SetConfig+0x1a2>
 800308a:	2300      	movs	r3, #0
 800308c:	f887 3023 	strb.w	r3, [r7, #35]	@ 0x23
 8003090:	e0ad      	b.n	80031ee <UART_SetConfig+0x2e6>
 8003092:	2302      	movs	r3, #2
 8003094:	f887 3023 	strb.w	r3, [r7, #35]	@ 0x23
 8003098:	e0a9      	b.n	80031ee <UART_SetConfig+0x2e6>
 800309a:	2304      	movs	r3, #4
 800309c:	f887 3023 	strb.w	r3, [r7, #35]	@ 0x23
 80030a0:	e0a5      	b.n	80031ee <UART_SetConfig+0x2e6>
 80030a2:	2308      	movs	r3, #8
 80030a4:	f887 3023 	strb.w	r3, [r7, #35]	@ 0x23
 80030a8:	e0a1      	b.n	80031ee <UART_SetConfig+0x2e6>
 80030aa:	2310      	movs	r3, #16
 80030ac:	f887 3023 	strb.w	r3, [r7, #35]	@ 0x23
 80030b0:	e09d      	b.n	80031ee <UART_SetConfig+0x2e6>
 80030b2:	68fb      	ldr	r3, [r7, #12]
 80030b4:	681b      	ldr	r3, [r3, #0]
 80030b6:	4a4a      	ldr	r2, [pc, #296]	@ (80031e0 <UART_SetConfig+0x2d8>)
 80030b8:	4293      	cmp	r3, r2
 80030ba:	d125      	bne.n	8003108 <UART_SetConfig+0x200>
 80030bc:	4b45      	ldr	r3, [pc, #276]	@ (80031d4 <UART_SetConfig+0x2cc>)
 80030be:	f8d3 3088 	ldr.w	r3, [r3, #136]	@ 0x88
 80030c2:	f003 03c0 	and.w	r3, r3, #192	@ 0xc0
 80030c6:	2bc0      	cmp	r3, #192	@ 0xc0
 80030c8:	d016      	beq.n	80030f8 <UART_SetConfig+0x1f0>
 80030ca:	2bc0      	cmp	r3, #192	@ 0xc0
 80030cc:	d818      	bhi.n	8003100 <UART_SetConfig+0x1f8>
 80030ce:	2b80      	cmp	r3, #128	@ 0x80
 80030d0:	d00a      	beq.n	80030e8 <UART_SetConfig+0x1e0>
 80030d2:	2b80      	cmp	r3, #128	@ 0x80
 80030d4:	d814      	bhi.n	8003100 <UART_SetConfig+0x1f8>
 80030d6:	2b00      	cmp	r3, #0
 80030d8:	d002      	beq.n	80030e0 <UART_SetConfig+0x1d8>
 80030da:	2b40      	cmp	r3, #64	@ 0x40
 80030dc:	d008      	beq.n	80030f0 <UART_SetConfig+0x1e8>
 80030de:	e00f      	b.n	8003100 <UART_SetConfig+0x1f8>
 80030e0:	2300      	movs	r3, #0
 80030e2:	f887 3023 	strb.w	r3, [r7, #35]	@ 0x23
 80030e6:	e082      	b.n	80031ee <UART_SetConfig+0x2e6>
 80030e8:	2302      	movs	r3, #2
 80030ea:	f887 3023 	strb.w	r3, [r7, #35]	@ 0x23
 80030ee:	e07e      	b.n	80031ee <UART_SetConfig+0x2e6>
 80030f0:	2304      	movs	r3, #4
 80030f2:	f887 3023 	strb.w	r3, [r7, #35]	@ 0x23
 80030f6:	e07a      	b.n	80031ee <UART_SetConfig+0x2e6>
 80030f8:	2308      	movs	r3, #8
 80030fa:	f887 3023 	strb.w	r3, [r7, #35]	@ 0x23
 80030fe:	e076      	b.n	80031ee <UART_SetConfig+0x2e6>
 8003100:	2310      	movs	r3, #16
 8003102:	f887 3023 	strb.w	r3, [r7, #35]	@ 0x23
 8003106:	e072      	b.n	80031ee <UART_SetConfig+0x2e6>
 8003108:	68fb      	ldr	r3, [r7, #12]
 800310a:	681b      	ldr	r3, [r3, #0]
 800310c:	4a35      	ldr	r2, [pc, #212]	@ (80031e4 <UART_SetConfig+0x2dc>)
 800310e:	4293      	cmp	r3, r2
 8003110:	d12a      	bne.n	8003168 <UART_SetConfig+0x260>
 8003112:	4b30      	ldr	r3, [pc, #192]	@ (80031d4 <UART_SetConfig+0x2cc>)
 8003114:	f8d3 3088 	ldr.w	r3, [r3, #136]	@ 0x88
 8003118:	f403 7340 	and.w	r3, r3, #768	@ 0x300
 800311c:	f5b3 7f40 	cmp.w	r3, #768	@ 0x300
 8003120:	d01a      	beq.n	8003158 <UART_SetConfig+0x250>
 8003122:	f5b3 7f40 	cmp.w	r3, #768	@ 0x300
 8003126:	d81b      	bhi.n	8003160 <UART_SetConfig+0x258>
 8003128:	f5b3 7f00 	cmp.w	r3, #512	@ 0x200
 800312c:	d00c      	beq.n	8003148 <UART_SetConfig+0x240>
 800312e:	f5b3 7f00 	cmp.w	r3, #512	@ 0x200
 8003132:	d815      	bhi.n	8003160 <UART_SetConfig+0x258>
 8003134:	2b00      	cmp	r3, #0
 8003136:	d003      	beq.n	8003140 <UART_SetConfig+0x238>
 8003138:	f5b3 7f80 	cmp.w	r3, #256	@ 0x100
 800313c:	d008      	beq.n	8003150 <UART_SetConfig+0x248>
 800313e:	e00f      	b.n	8003160 <UART_SetConfig+0x258>
 8003140:	2300      	movs	r3, #0
 8003142:	f887 3023 	strb.w	r3, [r7, #35]	@ 0x23
 8003146:	e052      	b.n	80031ee <UART_SetConfig+0x2e6>
 8003148:	2302      	movs	r3, #2
 800314a:	f887 3023 	strb.w	r3, [r7, #35]	@ 0x23
 800314e:	e04e      	b.n	80031ee <UART_SetConfig+0x2e6>
 8003150:	2304      	movs	r3, #4
 8003152:	f887 3023 	strb.w	r3, [r7, #35]	@ 0x23
 8003156:	e04a      	b.n	80031ee <UART_SetConfig+0x2e6>
 8003158:	2308      	movs	r3, #8
 800315a:	f887 3023 	strb.w	r3, [r7, #35]	@ 0x23
 800315e:	e046      	b.n	80031ee <UART_SetConfig+0x2e6>
 8003160:	2310      	movs	r3, #16
 8003162:	f887 3023 	strb.w	r3, [r7, #35]	@ 0x23
 8003166:	e042      	b.n	80031ee <UART_SetConfig+0x2e6>
 8003168:	68fb      	ldr	r3, [r7, #12]
 800316a:	681b      	ldr	r3, [r3, #0]
 800316c:	4a17      	ldr	r2, [pc, #92]	@ (80031cc <UART_SetConfig+0x2c4>)
 800316e:	4293      	cmp	r3, r2
 8003170:	d13a      	bne.n	80031e8 <UART_SetConfig+0x2e0>
 8003172:	4b18      	ldr	r3, [pc, #96]	@ (80031d4 <UART_SetConfig+0x2cc>)
 8003174:	f8d3 3088 	ldr.w	r3, [r3, #136]	@ 0x88
 8003178:	f403 6340 	and.w	r3, r3, #3072	@ 0xc00
 800317c:	f5b3 6f40 	cmp.w	r3, #3072	@ 0xc00
 8003180:	d01a      	beq.n	80031b8 <UART_SetConfig+0x2b0>
 8003182:	f5b3 6f40 	cmp.w	r3, #3072	@ 0xc00
 8003186:	d81b      	bhi.n	80031c0 <UART_SetConfig+0x2b8>
 8003188:	f5b3 6f00 	cmp.w	r3, #2048	@ 0x800
 800318c:	d00c      	beq.n	80031a8 <UART_SetConfig+0x2a0>
 800318e:	f5b3 6f00 	cmp.w	r3, #2048	@ 0x800
 8003192:	d815      	bhi.n	80031c0 <UART_SetConfig+0x2b8>
 8003194:	2b00      	cmp	r3, #0
 8003196:	d003      	beq.n	80031a0 <UART_SetConfig+0x298>
 8003198:	f5b3 6f80 	cmp.w	r3, #1024	@ 0x400
 800319c:	d008      	beq.n	80031b0 <UART_SetConfig+0x2a8>
 800319e:	e00f      	b.n	80031c0 <UART_SetConfig+0x2b8>
 80031a0:	2300      	movs	r3, #0
 80031a2:	f887 3023 	strb.w	r3, [r7, #35]	@ 0x23
 80031a6:	e022      	b.n	80031ee <UART_SetConfig+0x2e6>
 80031a8:	2302      	movs	r3, #2
 80031aa:	f887 3023 	strb.w	r3, [r7, #35]	@ 0x23
 80031ae:	e01e      	b.n	80031ee <UART_SetConfig+0x2e6>
 80031b0:	2304      	movs	r3, #4
 80031b2:	f887 3023 	strb.w	r3, [r7, #35]	@ 0x23
 80031b6:	e01a      	b.n	80031ee <UART_SetConfig+0x2e6>
 80031b8:	2308      	movs	r3, #8
 80031ba:	f887 3023 	strb.w	r3, [r7, #35]	@ 0x23
 80031be:	e016      	b.n	80031ee <UART_SetConfig+0x2e6>
 80031c0:	2310      	movs	r3, #16
 80031c2:	f887 3023 	strb.w	r3, [r7, #35]	@ 0x23
 80031c6:	e012      	b.n	80031ee <UART_SetConfig+0x2e6>
 80031c8:	efff69f3 	.word	0xefff69f3
 80031cc:	40008000 	.word	0x40008000
 80031d0:	40013800 	.word	0x40013800
 80031d4:	40021000 	.word	0x40021000
 80031d8:	40004400 	.word	0x40004400
 80031dc:	40004800 	.word	0x40004800
 80031e0:	40004c00 	.word	0x40004c00
 80031e4:	40005000 	.word	0x40005000
 80031e8:	2310      	movs	r3, #16
 80031ea:	f887 3023 	strb.w	r3, [r7, #35]	@ 0x23

  /* Check LPUART instance */
  if (UART_INSTANCE_LOWPOWER(huart))
 80031ee:	68fb      	ldr	r3, [r7, #12]
 80031f0:	681b      	ldr	r3, [r3, #0]
 80031f2:	4a9f      	ldr	r2, [pc, #636]	@ (8003470 <UART_SetConfig+0x568>)
 80031f4:	4293      	cmp	r3, r2
 80031f6:	d17a      	bne.n	80032ee <UART_SetConfig+0x3e6>
  {
    /* Retrieve frequency clock */
    switch (clocksource)
 80031f8:	f897 3023 	ldrb.w	r3, [r7, #35]	@ 0x23
 80031fc:	2b08      	cmp	r3, #8
 80031fe:	d824      	bhi.n	800324a <UART_SetConfig+0x342>
 8003200:	a201      	add	r2, pc, #4	@ (adr r2, 8003208 <UART_SetConfig+0x300>)
 8003202:	f852 f023 	ldr.w	pc, [r2, r3, lsl #2]
 8003206:	bf00      	nop
 8003208:	0800322d 	.word	0x0800322d
 800320c:	0800324b 	.word	0x0800324b
 8003210:	08003235 	.word	0x08003235
 8003214:	0800324b 	.word	0x0800324b
 8003218:	0800323b 	.word	0x0800323b
 800321c:	0800324b 	.word	0x0800324b
 8003220:	0800324b 	.word	0x0800324b
 8003224:	0800324b 	.word	0x0800324b
 8003228:	08003243 	.word	0x08003243
    {
      case UART_CLOCKSOURCE_PCLK1:
        pclk = HAL_RCC_GetPCLK1Freq();
 800322c:	f7fe fd58 	bl	8001ce0 <HAL_RCC_GetPCLK1Freq>
 8003230:	61f8      	str	r0, [r7, #28]
        break;
 8003232:	e010      	b.n	8003256 <UART_SetConfig+0x34e>
      case UART_CLOCKSOURCE_HSI:
        pclk = (uint32_t) HSI_VALUE;
 8003234:	4b8f      	ldr	r3, [pc, #572]	@ (8003474 <UART_SetConfig+0x56c>)
 8003236:	61fb      	str	r3, [r7, #28]
        break;
 8003238:	e00d      	b.n	8003256 <UART_SetConfig+0x34e>
      case UART_CLOCKSOURCE_SYSCLK:
        pclk = HAL_RCC_GetSysClockFreq();
 800323a:	f7fe fcb9 	bl	8001bb0 <HAL_RCC_GetSysClockFreq>
 800323e:	61f8      	str	r0, [r7, #28]
        break;
 8003240:	e009      	b.n	8003256 <UART_SetConfig+0x34e>
      case UART_CLOCKSOURCE_LSE:
        pclk = (uint32_t) LSE_VALUE;
 8003242:	f44f 4300 	mov.w	r3, #32768	@ 0x8000
 8003246:	61fb      	str	r3, [r7, #28]
        break;
 8003248:	e005      	b.n	8003256 <UART_SetConfig+0x34e>
      default:
        pclk = 0U;
 800324a:	2300      	movs	r3, #0
 800324c:	61fb      	str	r3, [r7, #28]
        ret = HAL_ERROR;
 800324e:	2301      	movs	r3, #1
 8003250:	f887 3022 	strb.w	r3, [r7, #34]	@ 0x22
        break;
 8003254:	bf00      	nop
    }

    /* If proper clock source reported */
    if (pclk != 0U)
 8003256:	69fb      	ldr	r3, [r7, #28]
 8003258:	2b00      	cmp	r3, #0
 800325a:	f000 80fb 	beq.w	8003454 <UART_SetConfig+0x54c>
      } /* if ( (lpuart_ker_ck_pres < (3 * huart->Init.BaudRate) ) ||
                (lpuart_ker_ck_pres > (4096 * huart->Init.BaudRate) )) */
#else
      /* No Prescaler applicable */
      /* Ensure that Frequency clock is in the range [3 * baudrate, 4096 * baudrate] */
      if ((pclk < (3U * huart->Init.BaudRate)) ||
 800325e:	68fb      	ldr	r3, [r7, #12]
 8003260:	685a      	ldr	r2, [r3, #4]
 8003262:	4613      	mov	r3, r2
 8003264:	005b      	lsls	r3, r3, #1
 8003266:	4413      	add	r3, r2
 8003268:	69fa      	ldr	r2, [r7, #28]
 800326a:	429a      	cmp	r2, r3
 800326c:	d305      	bcc.n	800327a <UART_SetConfig+0x372>
          (pclk > (4096U * huart->Init.BaudRate)))
 800326e:	68fb      	ldr	r3, [r7, #12]
 8003270:	685b      	ldr	r3, [r3, #4]
 8003272:	031b      	lsls	r3, r3, #12
      if ((pclk < (3U * huart->Init.BaudRate)) ||
 8003274:	69fa      	ldr	r2, [r7, #28]
 8003276:	429a      	cmp	r2, r3
 8003278:	d903      	bls.n	8003282 <UART_SetConfig+0x37a>
      {
        ret = HAL_ERROR;
 800327a:	2301      	movs	r3, #1
 800327c:	f887 3022 	strb.w	r3, [r7, #34]	@ 0x22
 8003280:	e0e8      	b.n	8003454 <UART_SetConfig+0x54c>
      }
      else
      {
        usartdiv = (uint32_t)(UART_DIV_LPUART(pclk, huart->Init.BaudRate));
 8003282:	69fb      	ldr	r3, [r7, #28]
 8003284:	2200      	movs	r2, #0
 8003286:	461c      	mov	r4, r3
 8003288:	4615      	mov	r5, r2
 800328a:	f04f 0200 	mov.w	r2, #0
 800328e:	f04f 0300 	mov.w	r3, #0
 8003292:	022b      	lsls	r3, r5, #8
 8003294:	ea43 6314 	orr.w	r3, r3, r4, lsr #24
 8003298:	0222      	lsls	r2, r4, #8
 800329a:	68f9      	ldr	r1, [r7, #12]
 800329c:	6849      	ldr	r1, [r1, #4]
 800329e:	0849      	lsrs	r1, r1, #1
 80032a0:	2000      	movs	r0, #0
 80032a2:	4688      	mov	r8, r1
 80032a4:	4681      	mov	r9, r0
 80032a6:	eb12 0a08 	adds.w	sl, r2, r8
 80032aa:	eb43 0b09 	adc.w	fp, r3, r9
 80032ae:	68fb      	ldr	r3, [r7, #12]
 80032b0:	685b      	ldr	r3, [r3, #4]
 80032b2:	2200      	movs	r2, #0
 80032b4:	603b      	str	r3, [r7, #0]
 80032b6:	607a      	str	r2, [r7, #4]
 80032b8:	e9d7 2300 	ldrd	r2, r3, [r7]
 80032bc:	4650      	mov	r0, sl
 80032be:	4659      	mov	r1, fp
 80032c0:	f7fc ff82 	bl	80001c8 <__aeabi_uldivmod>
 80032c4:	4602      	mov	r2, r0
 80032c6:	460b      	mov	r3, r1
 80032c8:	4613      	mov	r3, r2
 80032ca:	61bb      	str	r3, [r7, #24]
        if ((usartdiv >= LPUART_BRR_MIN) && (usartdiv <= LPUART_BRR_MAX))
 80032cc:	69bb      	ldr	r3, [r7, #24]
 80032ce:	f5b3 7f40 	cmp.w	r3, #768	@ 0x300
 80032d2:	d308      	bcc.n	80032e6 <UART_SetConfig+0x3de>
 80032d4:	69bb      	ldr	r3, [r7, #24]
 80032d6:	f5b3 1f80 	cmp.w	r3, #1048576	@ 0x100000
 80032da:	d204      	bcs.n	80032e6 <UART_SetConfig+0x3de>
        {
          huart->Instance->BRR = usartdiv;
 80032dc:	68fb      	ldr	r3, [r7, #12]
 80032de:	681b      	ldr	r3, [r3, #0]
 80032e0:	69ba      	ldr	r2, [r7, #24]
 80032e2:	60da      	str	r2, [r3, #12]
 80032e4:	e0b6      	b.n	8003454 <UART_SetConfig+0x54c>
        }
        else
        {
          ret = HAL_ERROR;
 80032e6:	2301      	movs	r3, #1
 80032e8:	f887 3022 	strb.w	r3, [r7, #34]	@ 0x22
 80032ec:	e0b2      	b.n	8003454 <UART_SetConfig+0x54c>
      } /* if ( (pclk < (3 * huart->Init.BaudRate) ) || (pclk > (4096 * huart->Init.BaudRate) )) */
#endif /* USART_PRESC_PRESCALER */
    } /* if (pclk != 0) */
  }
  /* Check UART Over Sampling to set Baud Rate Register */
  else if (huart->Init.OverSampling == UART_OVERSAMPLING_8)
 80032ee:	68fb      	ldr	r3, [r7, #12]
 80032f0:	69db      	ldr	r3, [r3, #28]
 80032f2:	f5b3 4f00 	cmp.w	r3, #32768	@ 0x8000
 80032f6:	d15e      	bne.n	80033b6 <UART_SetConfig+0x4ae>
  {
    switch (clocksource)
 80032f8:	f897 3023 	ldrb.w	r3, [r7, #35]	@ 0x23
 80032fc:	2b08      	cmp	r3, #8
 80032fe:	d828      	bhi.n	8003352 <UART_SetConfig+0x44a>
 8003300:	a201      	add	r2, pc, #4	@ (adr r2, 8003308 <UART_SetConfig+0x400>)
 8003302:	f852 f023 	ldr.w	pc, [r2, r3, lsl #2]
 8003306:	bf00      	nop
 8003308:	0800332d 	.word	0x0800332d
 800330c:	08003335 	.word	0x08003335
 8003310:	0800333d 	.word	0x0800333d
 8003314:	08003353 	.word	0x08003353
 8003318:	08003343 	.word	0x08003343
 800331c:	08003353 	.word	0x08003353
 8003320:	08003353 	.word	0x08003353
 8003324:	08003353 	.word	0x08003353
 8003328:	0800334b 	.word	0x0800334b
    {
      case UART_CLOCKSOURCE_PCLK1:
        pclk = HAL_RCC_GetPCLK1Freq();
 800332c:	f7fe fcd8 	bl	8001ce0 <HAL_RCC_GetPCLK1Freq>
 8003330:	61f8      	str	r0, [r7, #28]
        break;
 8003332:	e014      	b.n	800335e <UART_SetConfig+0x456>
      case UART_CLOCKSOURCE_PCLK2:
        pclk = HAL_RCC_GetPCLK2Freq();
 8003334:	f7fe fcea 	bl	8001d0c <HAL_RCC_GetPCLK2Freq>
 8003338:	61f8      	str	r0, [r7, #28]
        break;
 800333a:	e010      	b.n	800335e <UART_SetConfig+0x456>
      case UART_CLOCKSOURCE_HSI:
        pclk = (uint32_t) HSI_VALUE;
 800333c:	4b4d      	ldr	r3, [pc, #308]	@ (8003474 <UART_SetConfig+0x56c>)
 800333e:	61fb      	str	r3, [r7, #28]
        break;
 8003340:	e00d      	b.n	800335e <UART_SetConfig+0x456>
      case UART_CLOCKSOURCE_SYSCLK:
        pclk = HAL_RCC_GetSysClockFreq();
 8003342:	f7fe fc35 	bl	8001bb0 <HAL_RCC_GetSysClockFreq>
 8003346:	61f8      	str	r0, [r7, #28]
        break;
 8003348:	e009      	b.n	800335e <UART_SetConfig+0x456>
      case UART_CLOCKSOURCE_LSE:
        pclk = (uint32_t) LSE_VALUE;
 800334a:	f44f 4300 	mov.w	r3, #32768	@ 0x8000
 800334e:	61fb      	str	r3, [r7, #28]
        break;
 8003350:	e005      	b.n	800335e <UART_SetConfig+0x456>
      default:
        pclk = 0U;
 8003352:	2300      	movs	r3, #0
 8003354:	61fb      	str	r3, [r7, #28]
        ret = HAL_ERROR;
 8003356:	2301      	movs	r3, #1
 8003358:	f887 3022 	strb.w	r3, [r7, #34]	@ 0x22
        break;
 800335c:	bf00      	nop
    }

    /* USARTDIV must be greater than or equal to 0d16 */
    if (pclk != 0U)
 800335e:	69fb      	ldr	r3, [r7, #28]
 8003360:	2b00      	cmp	r3, #0
 8003362:	d077      	beq.n	8003454 <UART_SetConfig+0x54c>
    {
#if defined(USART_PRESC_PRESCALER)
      usartdiv = (uint32_t)(UART_DIV_SAMPLING8(pclk, huart->Init.BaudRate, huart->Init.ClockPrescaler));
#else
      usartdiv = (uint32_t)(UART_DIV_SAMPLING8(pclk, huart->Init.BaudRate));
 8003364:	69fb      	ldr	r3, [r7, #28]
 8003366:	005a      	lsls	r2, r3, #1
 8003368:	68fb      	ldr	r3, [r7, #12]
 800336a:	685b      	ldr	r3, [r3, #4]
 800336c:	085b      	lsrs	r3, r3, #1
 800336e:	441a      	add	r2, r3
 8003370:	68fb      	ldr	r3, [r7, #12]
 8003372:	685b      	ldr	r3, [r3, #4]
 8003374:	fbb2 f3f3 	udiv	r3, r2, r3
 8003378:	61bb      	str	r3, [r7, #24]
#endif /* USART_PRESC_PRESCALER */
      if ((usartdiv >= UART_BRR_MIN) && (usartdiv <= UART_BRR_MAX))
 800337a:	69bb      	ldr	r3, [r7, #24]
 800337c:	2b0f      	cmp	r3, #15
 800337e:	d916      	bls.n	80033ae <UART_SetConfig+0x4a6>
 8003380:	69bb      	ldr	r3, [r7, #24]
 8003382:	f5b3 3f80 	cmp.w	r3, #65536	@ 0x10000
 8003386:	d212      	bcs.n	80033ae <UART_SetConfig+0x4a6>
      {
        brrtemp = (uint16_t)(usartdiv & 0xFFF0U);
 8003388:	69bb      	ldr	r3, [r7, #24]
 800338a:	b29b      	uxth	r3, r3
 800338c:	f023 030f 	bic.w	r3, r3, #15
 8003390:	82fb      	strh	r3, [r7, #22]
        brrtemp |= (uint16_t)((usartdiv & (uint16_t)0x000FU) >> 1U);
 8003392:	69bb      	ldr	r3, [r7, #24]
 8003394:	085b      	lsrs	r3, r3, #1
 8003396:	b29b      	uxth	r3, r3
 8003398:	f003 0307 	and.w	r3, r3, #7
 800339c:	b29a      	uxth	r2, r3
 800339e:	8afb      	ldrh	r3, [r7, #22]
 80033a0:	4313      	orrs	r3, r2
 80033a2:	82fb      	strh	r3, [r7, #22]
        huart->Instance->BRR = brrtemp;
 80033a4:	68fb      	ldr	r3, [r7, #12]
 80033a6:	681b      	ldr	r3, [r3, #0]
 80033a8:	8afa      	ldrh	r2, [r7, #22]
 80033aa:	60da      	str	r2, [r3, #12]
 80033ac:	e052      	b.n	8003454 <UART_SetConfig+0x54c>
      }
      else
      {
        ret = HAL_ERROR;
 80033ae:	2301      	movs	r3, #1
 80033b0:	f887 3022 	strb.w	r3, [r7, #34]	@ 0x22
 80033b4:	e04e      	b.n	8003454 <UART_SetConfig+0x54c>
      }
    }
  }
  else
  {
    switch (clocksource)
 80033b6:	f897 3023 	ldrb.w	r3, [r7, #35]	@ 0x23
 80033ba:	2b08      	cmp	r3, #8
 80033bc:	d827      	bhi.n	800340e <UART_SetConfig+0x506>
 80033be:	a201      	add	r2, pc, #4	@ (adr r2, 80033c4 <UART_SetConfig+0x4bc>)
 80033c0:	f852 f023 	ldr.w	pc, [r2, r3, lsl #2]
 80033c4:	080033e9 	.word	0x080033e9
 80033c8:	080033f1 	.word	0x080033f1
 80033cc:	080033f9 	.word	0x080033f9
 80033d0:	0800340f 	.word	0x0800340f
 80033d4:	080033ff 	.word	0x080033ff
 80033d8:	0800340f 	.word	0x0800340f
 80033dc:	0800340f 	.word	0x0800340f
 80033e0:	0800340f 	.word	0x0800340f
 80033e4:	08003407 	.word	0x08003407
    {
      case UART_CLOCKSOURCE_PCLK1:
        pclk = HAL_RCC_GetPCLK1Freq();
 80033e8:	f7fe fc7a 	bl	8001ce0 <HAL_RCC_GetPCLK1Freq>
 80033ec:	61f8      	str	r0, [r7, #28]
        break;
 80033ee:	e014      	b.n	800341a <UART_SetConfig+0x512>
      case UART_CLOCKSOURCE_PCLK2:
        pclk = HAL_RCC_GetPCLK2Freq();
 80033f0:	f7fe fc8c 	bl	8001d0c <HAL_RCC_GetPCLK2Freq>
 80033f4:	61f8      	str	r0, [r7, #28]
        break;
 80033f6:	e010      	b.n	800341a <UART_SetConfig+0x512>
      case UART_CLOCKSOURCE_HSI:
        pclk = (uint32_t) HSI_VALUE;
 80033f8:	4b1e      	ldr	r3, [pc, #120]	@ (8003474 <UART_SetConfig+0x56c>)
 80033fa:	61fb      	str	r3, [r7, #28]
        break;
 80033fc:	e00d      	b.n	800341a <UART_SetConfig+0x512>
      case UART_CLOCKSOURCE_SYSCLK:
        pclk = HAL_RCC_GetSysClockFreq();
 80033fe:	f7fe fbd7 	bl	8001bb0 <HAL_RCC_GetSysClockFreq>
 8003402:	61f8      	str	r0, [r7, #28]
        break;
 8003404:	e009      	b.n	800341a <UART_SetConfig+0x512>
      case UART_CLOCKSOURCE_LSE:
        pclk = (uint32_t) LSE_VALUE;
 8003406:	f44f 4300 	mov.w	r3, #32768	@ 0x8000
 800340a:	61fb      	str	r3, [r7, #28]
        break;
 800340c:	e005      	b.n	800341a <UART_SetConfig+0x512>
      default:
        pclk = 0U;
 800340e:	2300      	movs	r3, #0
 8003410:	61fb      	str	r3, [r7, #28]
        ret = HAL_ERROR;
 8003412:	2301      	movs	r3, #1
 8003414:	f887 3022 	strb.w	r3, [r7, #34]	@ 0x22
        break;
 8003418:	bf00      	nop
    }

    if (pclk != 0U)
 800341a:	69fb      	ldr	r3, [r7, #28]
 800341c:	2b00      	cmp	r3, #0
 800341e:	d019      	beq.n	8003454 <UART_SetConfig+0x54c>
    {
      /* USARTDIV must be greater than or equal to 0d16 */
#if defined(USART_PRESC_PRESCALER)
      usartdiv = (uint32_t)(UART_DIV_SAMPLING16(pclk, huart->Init.BaudRate, huart->Init.ClockPrescaler));
#else
      usartdiv = (uint32_t)(UART_DIV_SAMPLING16(pclk, huart->Init.BaudRate));
 8003420:	68fb      	ldr	r3, [r7, #12]
 8003422:	685b      	ldr	r3, [r3, #4]
 8003424:	085a      	lsrs	r2, r3, #1
 8003426:	69fb      	ldr	r3, [r7, #28]
 8003428:	441a      	add	r2, r3
 800342a:	68fb      	ldr	r3, [r7, #12]
 800342c:	685b      	ldr	r3, [r3, #4]
 800342e:	fbb2 f3f3 	udiv	r3, r2, r3
 8003432:	61bb      	str	r3, [r7, #24]
#endif /* USART_PRESC_PRESCALER */
      if ((usartdiv >= UART_BRR_MIN) && (usartdiv <= UART_BRR_MAX))
 8003434:	69bb      	ldr	r3, [r7, #24]
 8003436:	2b0f      	cmp	r3, #15
 8003438:	d909      	bls.n	800344e <UART_SetConfig+0x546>
 800343a:	69bb      	ldr	r3, [r7, #24]
 800343c:	f5b3 3f80 	cmp.w	r3, #65536	@ 0x10000
 8003440:	d205      	bcs.n	800344e <UART_SetConfig+0x546>
      {
        huart->Instance->BRR = (uint16_t)usartdiv;
 8003442:	69bb      	ldr	r3, [r7, #24]
 8003444:	b29a      	uxth	r2, r3
 8003446:	68fb      	ldr	r3, [r7, #12]
 8003448:	681b      	ldr	r3, [r3, #0]
 800344a:	60da      	str	r2, [r3, #12]
 800344c:	e002      	b.n	8003454 <UART_SetConfig+0x54c>
      }
      else
      {
        ret = HAL_ERROR;
 800344e:	2301      	movs	r3, #1
 8003450:	f887 3022 	strb.w	r3, [r7, #34]	@ 0x22
  huart->NbTxDataToProcess = 1;
  huart->NbRxDataToProcess = 1;
#endif /* USART_CR1_FIFOEN */

  /* Clear ISR function pointers */
  huart->RxISR = NULL;
 8003454:	68fb      	ldr	r3, [r7, #12]
 8003456:	2200      	movs	r2, #0
 8003458:	669a      	str	r2, [r3, #104]	@ 0x68
  huart->TxISR = NULL;
 800345a:	68fb      	ldr	r3, [r7, #12]
 800345c:	2200      	movs	r2, #0
 800345e:	66da      	str	r2, [r3, #108]	@ 0x6c

  return ret;
 8003460:	f897 3022 	ldrb.w	r3, [r7, #34]	@ 0x22
}
 8003464:	4618      	mov	r0, r3
 8003466:	3728      	adds	r7, #40	@ 0x28
 8003468:	46bd      	mov	sp, r7
 800346a:	e8bd 8fb0 	ldmia.w	sp!, {r4, r5, r7, r8, r9, sl, fp, pc}
 800346e:	bf00      	nop
 8003470:	40008000 	.word	0x40008000
 8003474:	00f42400 	.word	0x00f42400

08003478 <UART_AdvFeatureConfig>:
  * @brief Configure the UART peripheral advanced features.
  * @param huart UART handle.
  * @retval None
  */
void UART_AdvFeatureConfig(UART_HandleTypeDef *huart)
{
 8003478:	b480      	push	{r7}
 800347a:	b083      	sub	sp, #12
 800347c:	af00      	add	r7, sp, #0
 800347e:	6078      	str	r0, [r7, #4]
  /* Check whether the set of advanced features to configure is properly set */
  assert_param(IS_UART_ADVFEATURE_INIT(huart->AdvancedInit.AdvFeatureInit));

  /* if required, configure RX/TX pins swap */
  if (HAL_IS_BIT_SET(huart->AdvancedInit.AdvFeatureInit, UART_ADVFEATURE_SWAP_INIT))
 8003480:	687b      	ldr	r3, [r7, #4]
 8003482:	6a5b      	ldr	r3, [r3, #36]	@ 0x24
 8003484:	f003 0308 	and.w	r3, r3, #8
 8003488:	2b00      	cmp	r3, #0
 800348a:	d00a      	beq.n	80034a2 <UART_AdvFeatureConfig+0x2a>
  {
    assert_param(IS_UART_ADVFEATURE_SWAP(huart->AdvancedInit.Swap));
    MODIFY_REG(huart->Instance->CR2, USART_CR2_SWAP, huart->AdvancedInit.Swap);
 800348c:	687b      	ldr	r3, [r7, #4]
 800348e:	681b      	ldr	r3, [r3, #0]
 8003490:	685b      	ldr	r3, [r3, #4]
 8003492:	f423 4100 	bic.w	r1, r3, #32768	@ 0x8000
 8003496:	687b      	ldr	r3, [r7, #4]
 8003498:	6b5a      	ldr	r2, [r3, #52]	@ 0x34
 800349a:	687b      	ldr	r3, [r7, #4]
 800349c:	681b      	ldr	r3, [r3, #0]
 800349e:	430a      	orrs	r2, r1
 80034a0:	605a      	str	r2, [r3, #4]
  }

  /* if required, configure TX pin active level inversion */
  if (HAL_IS_BIT_SET(huart->AdvancedInit.AdvFeatureInit, UART_ADVFEATURE_TXINVERT_INIT))
 80034a2:	687b      	ldr	r3, [r7, #4]
 80034a4:	6a5b      	ldr	r3, [r3, #36]	@ 0x24
 80034a6:	f003 0301 	and.w	r3, r3, #1
 80034aa:	2b00      	cmp	r3, #0
 80034ac:	d00a      	beq.n	80034c4 <UART_AdvFeatureConfig+0x4c>
  {
    assert_param(IS_UART_ADVFEATURE_TXINV(huart->AdvancedInit.TxPinLevelInvert));
    MODIFY_REG(huart->Instance->CR2, USART_CR2_TXINV, huart->AdvancedInit.TxPinLevelInvert);
 80034ae:	687b      	ldr	r3, [r7, #4]
 80034b0:	681b      	ldr	r3, [r3, #0]
 80034b2:	685b      	ldr	r3, [r3, #4]
 80034b4:	f423 3100 	bic.w	r1, r3, #131072	@ 0x20000
 80034b8:	687b      	ldr	r3, [r7, #4]
 80034ba:	6a9a      	ldr	r2, [r3, #40]	@ 0x28
 80034bc:	687b      	ldr	r3, [r7, #4]
 80034be:	681b      	ldr	r3, [r3, #0]
 80034c0:	430a      	orrs	r2, r1
 80034c2:	605a      	str	r2, [r3, #4]
  }

  /* if required, configure RX pin active level inversion */
  if (HAL_IS_BIT_SET(huart->AdvancedInit.AdvFeatureInit, UART_ADVFEATURE_RXINVERT_INIT))
 80034c4:	687b      	ldr	r3, [r7, #4]
 80034c6:	6a5b      	ldr	r3, [r3, #36]	@ 0x24
 80034c8:	f003 0302 	and.w	r3, r3, #2
 80034cc:	2b00      	cmp	r3, #0
 80034ce:	d00a      	beq.n	80034e6 <UART_AdvFeatureConfig+0x6e>
  {
    assert_param(IS_UART_ADVFEATURE_RXINV(huart->AdvancedInit.RxPinLevelInvert));
    MODIFY_REG(huart->Instance->CR2, USART_CR2_RXINV, huart->AdvancedInit.RxPinLevelInvert);
 80034d0:	687b      	ldr	r3, [r7, #4]
 80034d2:	681b      	ldr	r3, [r3, #0]
 80034d4:	685b      	ldr	r3, [r3, #4]
 80034d6:	f423 3180 	bic.w	r1, r3, #65536	@ 0x10000
 80034da:	687b      	ldr	r3, [r7, #4]
 80034dc:	6ada      	ldr	r2, [r3, #44]	@ 0x2c
 80034de:	687b      	ldr	r3, [r7, #4]
 80034e0:	681b      	ldr	r3, [r3, #0]
 80034e2:	430a      	orrs	r2, r1
 80034e4:	605a      	str	r2, [r3, #4]
  }

  /* if required, configure data inversion */
  if (HAL_IS_BIT_SET(huart->AdvancedInit.AdvFeatureInit, UART_ADVFEATURE_DATAINVERT_INIT))
 80034e6:	687b      	ldr	r3, [r7, #4]
 80034e8:	6a5b      	ldr	r3, [r3, #36]	@ 0x24
 80034ea:	f003 0304 	and.w	r3, r3, #4
 80034ee:	2b00      	cmp	r3, #0
 80034f0:	d00a      	beq.n	8003508 <UART_AdvFeatureConfig+0x90>
  {
    assert_param(IS_UART_ADVFEATURE_DATAINV(huart->AdvancedInit.DataInvert));
    MODIFY_REG(huart->Instance->CR2, USART_CR2_DATAINV, huart->AdvancedInit.DataInvert);
 80034f2:	687b      	ldr	r3, [r7, #4]
 80034f4:	681b      	ldr	r3, [r3, #0]
 80034f6:	685b      	ldr	r3, [r3, #4]
 80034f8:	f423 2180 	bic.w	r1, r3, #262144	@ 0x40000
 80034fc:	687b      	ldr	r3, [r7, #4]
 80034fe:	6b1a      	ldr	r2, [r3, #48]	@ 0x30
 8003500:	687b      	ldr	r3, [r7, #4]
 8003502:	681b      	ldr	r3, [r3, #0]
 8003504:	430a      	orrs	r2, r1
 8003506:	605a      	str	r2, [r3, #4]
  }

  /* if required, configure RX overrun detection disabling */
  if (HAL_IS_BIT_SET(huart->AdvancedInit.AdvFeatureInit, UART_ADVFEATURE_RXOVERRUNDISABLE_INIT))
 8003508:	687b      	ldr	r3, [r7, #4]
 800350a:	6a5b      	ldr	r3, [r3, #36]	@ 0x24
 800350c:	f003 0310 	and.w	r3, r3, #16
 8003510:	2b00      	cmp	r3, #0
 8003512:	d00a      	beq.n	800352a <UART_AdvFeatureConfig+0xb2>
  {
    assert_param(IS_UART_OVERRUN(huart->AdvancedInit.OverrunDisable));
    MODIFY_REG(huart->Instance->CR3, USART_CR3_OVRDIS, huart->AdvancedInit.OverrunDisable);
 8003514:	687b      	ldr	r3, [r7, #4]
 8003516:	681b      	ldr	r3, [r3, #0]
 8003518:	689b      	ldr	r3, [r3, #8]
 800351a:	f423 5180 	bic.w	r1, r3, #4096	@ 0x1000
 800351e:	687b      	ldr	r3, [r7, #4]
 8003520:	6b9a      	ldr	r2, [r3, #56]	@ 0x38
 8003522:	687b      	ldr	r3, [r7, #4]
 8003524:	681b      	ldr	r3, [r3, #0]
 8003526:	430a      	orrs	r2, r1
 8003528:	609a      	str	r2, [r3, #8]
  }

  /* if required, configure DMA disabling on reception error */
  if (HAL_IS_BIT_SET(huart->AdvancedInit.AdvFeatureInit, UART_ADVFEATURE_DMADISABLEONERROR_INIT))
 800352a:	687b      	ldr	r3, [r7, #4]
 800352c:	6a5b      	ldr	r3, [r3, #36]	@ 0x24
 800352e:	f003 0320 	and.w	r3, r3, #32
 8003532:	2b00      	cmp	r3, #0
 8003534:	d00a      	beq.n	800354c <UART_AdvFeatureConfig+0xd4>
  {
    assert_param(IS_UART_ADVFEATURE_DMAONRXERROR(huart->AdvancedInit.DMADisableonRxError));
    MODIFY_REG(huart->Instance->CR3, USART_CR3_DDRE, huart->AdvancedInit.DMADisableonRxError);
 8003536:	687b      	ldr	r3, [r7, #4]
 8003538:	681b      	ldr	r3, [r3, #0]
 800353a:	689b      	ldr	r3, [r3, #8]
 800353c:	f423 5100 	bic.w	r1, r3, #8192	@ 0x2000
 8003540:	687b      	ldr	r3, [r7, #4]
 8003542:	6bda      	ldr	r2, [r3, #60]	@ 0x3c
 8003544:	687b      	ldr	r3, [r7, #4]
 8003546:	681b      	ldr	r3, [r3, #0]
 8003548:	430a      	orrs	r2, r1
 800354a:	609a      	str	r2, [r3, #8]
  }

  /* if required, configure auto Baud rate detection scheme */
  if (HAL_IS_BIT_SET(huart->AdvancedInit.AdvFeatureInit, UART_ADVFEATURE_AUTOBAUDRATE_INIT))
 800354c:	687b      	ldr	r3, [r7, #4]
 800354e:	6a5b      	ldr	r3, [r3, #36]	@ 0x24
 8003550:	f003 0340 	and.w	r3, r3, #64	@ 0x40
 8003554:	2b00      	cmp	r3, #0
 8003556:	d01a      	beq.n	800358e <UART_AdvFeatureConfig+0x116>
  {
    assert_param(IS_USART_AUTOBAUDRATE_DETECTION_INSTANCE(huart->Instance));
    assert_param(IS_UART_ADVFEATURE_AUTOBAUDRATE(huart->AdvancedInit.AutoBaudRateEnable));
    MODIFY_REG(huart->Instance->CR2, USART_CR2_ABREN, huart->AdvancedInit.AutoBaudRateEnable);
 8003558:	687b      	ldr	r3, [r7, #4]
 800355a:	681b      	ldr	r3, [r3, #0]
 800355c:	685b      	ldr	r3, [r3, #4]
 800355e:	f423 1180 	bic.w	r1, r3, #1048576	@ 0x100000
 8003562:	687b      	ldr	r3, [r7, #4]
 8003564:	6c1a      	ldr	r2, [r3, #64]	@ 0x40
 8003566:	687b      	ldr	r3, [r7, #4]
 8003568:	681b      	ldr	r3, [r3, #0]
 800356a:	430a      	orrs	r2, r1
 800356c:	605a      	str	r2, [r3, #4]
    /* set auto Baudrate detection parameters if detection is enabled */
    if (huart->AdvancedInit.AutoBaudRateEnable == UART_ADVFEATURE_AUTOBAUDRATE_ENABLE)
 800356e:	687b      	ldr	r3, [r7, #4]
 8003570:	6c1b      	ldr	r3, [r3, #64]	@ 0x40
 8003572:	f5b3 1f80 	cmp.w	r3, #1048576	@ 0x100000
 8003576:	d10a      	bne.n	800358e <UART_AdvFeatureConfig+0x116>
    {
      assert_param(IS_UART_ADVFEATURE_AUTOBAUDRATEMODE(huart->AdvancedInit.AutoBaudRateMode));
      MODIFY_REG(huart->Instance->CR2, USART_CR2_ABRMODE, huart->AdvancedInit.AutoBaudRateMode);
 8003578:	687b      	ldr	r3, [r7, #4]
 800357a:	681b      	ldr	r3, [r3, #0]
 800357c:	685b      	ldr	r3, [r3, #4]
 800357e:	f423 01c0 	bic.w	r1, r3, #6291456	@ 0x600000
 8003582:	687b      	ldr	r3, [r7, #4]
 8003584:	6c5a      	ldr	r2, [r3, #68]	@ 0x44
 8003586:	687b      	ldr	r3, [r7, #4]
 8003588:	681b      	ldr	r3, [r3, #0]
 800358a:	430a      	orrs	r2, r1
 800358c:	605a      	str	r2, [r3, #4]
    }
  }

  /* if required, configure MSB first on communication line */
  if (HAL_IS_BIT_SET(huart->AdvancedInit.AdvFeatureInit, UART_ADVFEATURE_MSBFIRST_INIT))
 800358e:	687b      	ldr	r3, [r7, #4]
 8003590:	6a5b      	ldr	r3, [r3, #36]	@ 0x24
 8003592:	f003 0380 	and.w	r3, r3, #128	@ 0x80
 8003596:	2b00      	cmp	r3, #0
 8003598:	d00a      	beq.n	80035b0 <UART_AdvFeatureConfig+0x138>
  {
    assert_param(IS_UART_ADVFEATURE_MSBFIRST(huart->AdvancedInit.MSBFirst));
    MODIFY_REG(huart->Instance->CR2, USART_CR2_MSBFIRST, huart->AdvancedInit.MSBFirst);
 800359a:	687b      	ldr	r3, [r7, #4]
 800359c:	681b      	ldr	r3, [r3, #0]
 800359e:	685b      	ldr	r3, [r3, #4]
 80035a0:	f423 2100 	bic.w	r1, r3, #524288	@ 0x80000
 80035a4:	687b      	ldr	r3, [r7, #4]
 80035a6:	6c9a      	ldr	r2, [r3, #72]	@ 0x48
 80035a8:	687b      	ldr	r3, [r7, #4]
 80035aa:	681b      	ldr	r3, [r3, #0]
 80035ac:	430a      	orrs	r2, r1
 80035ae:	605a      	str	r2, [r3, #4]
  }
}
 80035b0:	bf00      	nop
 80035b2:	370c      	adds	r7, #12
 80035b4:	46bd      	mov	sp, r7
 80035b6:	f85d 7b04 	ldr.w	r7, [sp], #4
 80035ba:	4770      	bx	lr

080035bc <UART_CheckIdleState>:
  * @brief Check the UART Idle State.
  * @param huart UART handle.
  * @retval HAL status
  */
HAL_StatusTypeDef UART_CheckIdleState(UART_HandleTypeDef *huart)
{
 80035bc:	b580      	push	{r7, lr}
 80035be:	b098      	sub	sp, #96	@ 0x60
 80035c0:	af02      	add	r7, sp, #8
 80035c2:	6078      	str	r0, [r7, #4]
  uint32_t tickstart;

  /* Initialize the UART ErrorCode */
  huart->ErrorCode = HAL_UART_ERROR_NONE;
 80035c4:	687b      	ldr	r3, [r7, #4]
 80035c6:	2200      	movs	r2, #0
 80035c8:	f8c3 2084 	str.w	r2, [r3, #132]	@ 0x84

  /* Init tickstart for timeout management */
  tickstart = HAL_GetTick();
 80035cc:	f7fd fafc 	bl	8000bc8 <HAL_GetTick>
 80035d0:	6578      	str	r0, [r7, #84]	@ 0x54

  /* Check if the Transmitter is enabled */
  if ((huart->Instance->CR1 & USART_CR1_TE) == USART_CR1_TE)
 80035d2:	687b      	ldr	r3, [r7, #4]
 80035d4:	681b      	ldr	r3, [r3, #0]
 80035d6:	681b      	ldr	r3, [r3, #0]
 80035d8:	f003 0308 	and.w	r3, r3, #8
 80035dc:	2b08      	cmp	r3, #8
 80035de:	d12e      	bne.n	800363e <UART_CheckIdleState+0x82>
  {
    /* Wait until TEACK flag is set */
    if (UART_WaitOnFlagUntilTimeout(huart, USART_ISR_TEACK, RESET, tickstart, HAL_UART_TIMEOUT_VALUE) != HAL_OK)
 80035e0:	f06f 437e 	mvn.w	r3, #4261412864	@ 0xfe000000
 80035e4:	9300      	str	r3, [sp, #0]
 80035e6:	6d7b      	ldr	r3, [r7, #84]	@ 0x54
 80035e8:	2200      	movs	r2, #0
 80035ea:	f44f 1100 	mov.w	r1, #2097152	@ 0x200000
 80035ee:	6878      	ldr	r0, [r7, #4]
 80035f0:	f000 f88c 	bl	800370c <UART_WaitOnFlagUntilTimeout>
 80035f4:	4603      	mov	r3, r0
 80035f6:	2b00      	cmp	r3, #0
 80035f8:	d021      	beq.n	800363e <UART_CheckIdleState+0x82>
    {
      /* Disable TXE interrupt for the interrupt process */
#if defined(USART_CR1_FIFOEN)
      ATOMIC_CLEAR_BIT(huart->Instance->CR1, (USART_CR1_TXEIE_TXFNFIE));
#else
      ATOMIC_CLEAR_BIT(huart->Instance->CR1, (USART_CR1_TXEIE));
 80035fa:	687b      	ldr	r3, [r7, #4]
 80035fc:	681b      	ldr	r3, [r3, #0]
 80035fe:	63bb      	str	r3, [r7, #56]	@ 0x38
 */
__STATIC_FORCEINLINE uint32_t __LDREXW(volatile uint32_t *addr)
{
    uint32_t result;

   __ASM volatile ("ldrex %0, %1" : "=r" (result) : "Q" (*addr) );
 8003600:	6bbb      	ldr	r3, [r7, #56]	@ 0x38
 8003602:	e853 3f00 	ldrex	r3, [r3]
 8003606:	637b      	str	r3, [r7, #52]	@ 0x34
   return(result);
 8003608:	6b7b      	ldr	r3, [r7, #52]	@ 0x34
 800360a:	f023 0380 	bic.w	r3, r3, #128	@ 0x80
 800360e:	653b      	str	r3, [r7, #80]	@ 0x50
 8003610:	687b      	ldr	r3, [r7, #4]
 8003612:	681b      	ldr	r3, [r3, #0]
 8003614:	461a      	mov	r2, r3
 8003616:	6d3b      	ldr	r3, [r7, #80]	@ 0x50
 8003618:	647b      	str	r3, [r7, #68]	@ 0x44
 800361a:	643a      	str	r2, [r7, #64]	@ 0x40
 */
__STATIC_FORCEINLINE uint32_t __STREXW(uint32_t value, volatile uint32_t *addr)
{
   uint32_t result;

   __ASM volatile ("strex %0, %2, %1" : "=&r" (result), "=Q" (*addr) : "r" (value) );
 800361c:	6c39      	ldr	r1, [r7, #64]	@ 0x40
 800361e:	6c7a      	ldr	r2, [r7, #68]	@ 0x44
 8003620:	e841 2300 	strex	r3, r2, [r1]
 8003624:	63fb      	str	r3, [r7, #60]	@ 0x3c
   return(result);
 8003626:	6bfb      	ldr	r3, [r7, #60]	@ 0x3c
 8003628:	2b00      	cmp	r3, #0
 800362a:	d1e6      	bne.n	80035fa <UART_CheckIdleState+0x3e>
#endif /* USART_CR1_FIFOEN */

      huart->gState = HAL_UART_STATE_READY;
 800362c:	687b      	ldr	r3, [r7, #4]
 800362e:	2220      	movs	r2, #32
 8003630:	67da      	str	r2, [r3, #124]	@ 0x7c

      __HAL_UNLOCK(huart);
 8003632:	687b      	ldr	r3, [r7, #4]
 8003634:	2200      	movs	r2, #0
 8003636:	f883 2078 	strb.w	r2, [r3, #120]	@ 0x78

      /* Timeout occurred */
      return HAL_TIMEOUT;
 800363a:	2303      	movs	r3, #3
 800363c:	e062      	b.n	8003704 <UART_CheckIdleState+0x148>
    }
  }

  /* Check if the Receiver is enabled */
  if ((huart->Instance->CR1 & USART_CR1_RE) == USART_CR1_RE)
 800363e:	687b      	ldr	r3, [r7, #4]
 8003640:	681b      	ldr	r3, [r3, #0]
 8003642:	681b      	ldr	r3, [r3, #0]
 8003644:	f003 0304 	and.w	r3, r3, #4
 8003648:	2b04      	cmp	r3, #4
 800364a:	d149      	bne.n	80036e0 <UART_CheckIdleState+0x124>
  {
    /* Wait until REACK flag is set */
    if (UART_WaitOnFlagUntilTimeout(huart, USART_ISR_REACK, RESET, tickstart, HAL_UART_TIMEOUT_VALUE) != HAL_OK)
 800364c:	f06f 437e 	mvn.w	r3, #4261412864	@ 0xfe000000
 8003650:	9300      	str	r3, [sp, #0]
 8003652:	6d7b      	ldr	r3, [r7, #84]	@ 0x54
 8003654:	2200      	movs	r2, #0
 8003656:	f44f 0180 	mov.w	r1, #4194304	@ 0x400000
 800365a:	6878      	ldr	r0, [r7, #4]
 800365c:	f000 f856 	bl	800370c <UART_WaitOnFlagUntilTimeout>
 8003660:	4603      	mov	r3, r0
 8003662:	2b00      	cmp	r3, #0
 8003664:	d03c      	beq.n	80036e0 <UART_CheckIdleState+0x124>
      /* Disable RXNE, PE and ERR (Frame error, noise error, overrun error)
      interrupts for the interrupt process */
#if defined(USART_CR1_FIFOEN)
      ATOMIC_CLEAR_BIT(huart->Instance->CR1, (USART_CR1_RXNEIE_RXFNEIE | USART_CR1_PEIE));
#else
      ATOMIC_CLEAR_BIT(huart->Instance->CR1, (USART_CR1_RXNEIE | USART_CR1_PEIE));
 8003666:	687b      	ldr	r3, [r7, #4]
 8003668:	681b      	ldr	r3, [r3, #0]
 800366a:	627b      	str	r3, [r7, #36]	@ 0x24
   __ASM volatile ("ldrex %0, %1" : "=r" (result) : "Q" (*addr) );
 800366c:	6a7b      	ldr	r3, [r7, #36]	@ 0x24
 800366e:	e853 3f00 	ldrex	r3, [r3]
 8003672:	623b      	str	r3, [r7, #32]
   return(result);
 8003674:	6a3b      	ldr	r3, [r7, #32]
 8003676:	f423 7390 	bic.w	r3, r3, #288	@ 0x120
 800367a:	64fb      	str	r3, [r7, #76]	@ 0x4c
 800367c:	687b      	ldr	r3, [r7, #4]
 800367e:	681b      	ldr	r3, [r3, #0]
 8003680:	461a      	mov	r2, r3
 8003682:	6cfb      	ldr	r3, [r7, #76]	@ 0x4c
 8003684:	633b      	str	r3, [r7, #48]	@ 0x30
 8003686:	62fa      	str	r2, [r7, #44]	@ 0x2c
   __ASM volatile ("strex %0, %2, %1" : "=&r" (result), "=Q" (*addr) : "r" (value) );
 8003688:	6af9      	ldr	r1, [r7, #44]	@ 0x2c
 800368a:	6b3a      	ldr	r2, [r7, #48]	@ 0x30
 800368c:	e841 2300 	strex	r3, r2, [r1]
 8003690:	62bb      	str	r3, [r7, #40]	@ 0x28
   return(result);
 8003692:	6abb      	ldr	r3, [r7, #40]	@ 0x28
 8003694:	2b00      	cmp	r3, #0
 8003696:	d1e6      	bne.n	8003666 <UART_CheckIdleState+0xaa>
#endif /* USART_CR1_FIFOEN */
      ATOMIC_CLEAR_BIT(huart->Instance->CR3, USART_CR3_EIE);
 8003698:	687b      	ldr	r3, [r7, #4]
 800369a:	681b      	ldr	r3, [r3, #0]
 800369c:	3308      	adds	r3, #8
 800369e:	613b      	str	r3, [r7, #16]
   __ASM volatile ("ldrex %0, %1" : "=r" (result) : "Q" (*addr) );
 80036a0:	693b      	ldr	r3, [r7, #16]
 80036a2:	e853 3f00 	ldrex	r3, [r3]
 80036a6:	60fb      	str	r3, [r7, #12]
   return(result);
 80036a8:	68fb      	ldr	r3, [r7, #12]
 80036aa:	f023 0301 	bic.w	r3, r3, #1
 80036ae:	64bb      	str	r3, [r7, #72]	@ 0x48
 80036b0:	687b      	ldr	r3, [r7, #4]
 80036b2:	681b      	ldr	r3, [r3, #0]
 80036b4:	3308      	adds	r3, #8
 80036b6:	6cba      	ldr	r2, [r7, #72]	@ 0x48
 80036b8:	61fa      	str	r2, [r7, #28]
 80036ba:	61bb      	str	r3, [r7, #24]
   __ASM volatile ("strex %0, %2, %1" : "=&r" (result), "=Q" (*addr) : "r" (value) );
 80036bc:	69b9      	ldr	r1, [r7, #24]
 80036be:	69fa      	ldr	r2, [r7, #28]
 80036c0:	e841 2300 	strex	r3, r2, [r1]
 80036c4:	617b      	str	r3, [r7, #20]
   return(result);
 80036c6:	697b      	ldr	r3, [r7, #20]
 80036c8:	2b00      	cmp	r3, #0
 80036ca:	d1e5      	bne.n	8003698 <UART_CheckIdleState+0xdc>

      huart->RxState = HAL_UART_STATE_READY;
 80036cc:	687b      	ldr	r3, [r7, #4]
 80036ce:	2220      	movs	r2, #32
 80036d0:	f8c3 2080 	str.w	r2, [r3, #128]	@ 0x80

      __HAL_UNLOCK(huart);
 80036d4:	687b      	ldr	r3, [r7, #4]
 80036d6:	2200      	movs	r2, #0
 80036d8:	f883 2078 	strb.w	r2, [r3, #120]	@ 0x78

      /* Timeout occurred */
      return HAL_TIMEOUT;
 80036dc:	2303      	movs	r3, #3
 80036de:	e011      	b.n	8003704 <UART_CheckIdleState+0x148>
    }
  }

  /* Initialize the UART State */
  huart->gState = HAL_UART_STATE_READY;
 80036e0:	687b      	ldr	r3, [r7, #4]
 80036e2:	2220      	movs	r2, #32
 80036e4:	67da      	str	r2, [r3, #124]	@ 0x7c
  huart->RxState = HAL_UART_STATE_READY;
 80036e6:	687b      	ldr	r3, [r7, #4]
 80036e8:	2220      	movs	r2, #32
 80036ea:	f8c3 2080 	str.w	r2, [r3, #128]	@ 0x80
  huart->ReceptionType = HAL_UART_RECEPTION_STANDARD;
 80036ee:	687b      	ldr	r3, [r7, #4]
 80036f0:	2200      	movs	r2, #0
 80036f2:	661a      	str	r2, [r3, #96]	@ 0x60
  huart->RxEventType = HAL_UART_RXEVENT_TC;
 80036f4:	687b      	ldr	r3, [r7, #4]
 80036f6:	2200      	movs	r2, #0
 80036f8:	665a      	str	r2, [r3, #100]	@ 0x64

  __HAL_UNLOCK(huart);
 80036fa:	687b      	ldr	r3, [r7, #4]
 80036fc:	2200      	movs	r2, #0
 80036fe:	f883 2078 	strb.w	r2, [r3, #120]	@ 0x78

  return HAL_OK;
 8003702:	2300      	movs	r3, #0
}
 8003704:	4618      	mov	r0, r3
 8003706:	3758      	adds	r7, #88	@ 0x58
 8003708:	46bd      	mov	sp, r7
 800370a:	bd80      	pop	{r7, pc}

0800370c <UART_WaitOnFlagUntilTimeout>:
  * @param Timeout   Timeout duration
  * @retval HAL status
  */
HAL_StatusTypeDef UART_WaitOnFlagUntilTimeout(UART_HandleTypeDef *huart, uint32_t Flag, FlagStatus Status,
                                              uint32_t Tickstart, uint32_t Timeout)
{
 800370c:	b580      	push	{r7, lr}
 800370e:	b084      	sub	sp, #16
 8003710:	af00      	add	r7, sp, #0
 8003712:	60f8      	str	r0, [r7, #12]
 8003714:	60b9      	str	r1, [r7, #8]
 8003716:	603b      	str	r3, [r7, #0]
 8003718:	4613      	mov	r3, r2
 800371a:	71fb      	strb	r3, [r7, #7]
  /* Wait until flag is set */
  while ((__HAL_UART_GET_FLAG(huart, Flag) ? SET : RESET) == Status)
 800371c:	e04f      	b.n	80037be <UART_WaitOnFlagUntilTimeout+0xb2>
  {
    /* Check for the Timeout */
    if (Timeout != HAL_MAX_DELAY)
 800371e:	69bb      	ldr	r3, [r7, #24]
 8003720:	f1b3 3fff 	cmp.w	r3, #4294967295
 8003724:	d04b      	beq.n	80037be <UART_WaitOnFlagUntilTimeout+0xb2>
    {
      if (((HAL_GetTick() - Tickstart) > Timeout) || (Timeout == 0U))
 8003726:	f7fd fa4f 	bl	8000bc8 <HAL_GetTick>
 800372a:	4602      	mov	r2, r0
 800372c:	683b      	ldr	r3, [r7, #0]
 800372e:	1ad3      	subs	r3, r2, r3
 8003730:	69ba      	ldr	r2, [r7, #24]
 8003732:	429a      	cmp	r2, r3
 8003734:	d302      	bcc.n	800373c <UART_WaitOnFlagUntilTimeout+0x30>
 8003736:	69bb      	ldr	r3, [r7, #24]
 8003738:	2b00      	cmp	r3, #0
 800373a:	d101      	bne.n	8003740 <UART_WaitOnFlagUntilTimeout+0x34>
      {

        return HAL_TIMEOUT;
 800373c:	2303      	movs	r3, #3
 800373e:	e04e      	b.n	80037de <UART_WaitOnFlagUntilTimeout+0xd2>
      }

      if ((READ_BIT(huart->Instance->CR1, USART_CR1_RE) != 0U) && (Flag != UART_FLAG_TXE) && (Flag != UART_FLAG_TC))
 8003740:	68fb      	ldr	r3, [r7, #12]
 8003742:	681b      	ldr	r3, [r3, #0]
 8003744:	681b      	ldr	r3, [r3, #0]
 8003746:	f003 0304 	and.w	r3, r3, #4
 800374a:	2b00      	cmp	r3, #0
 800374c:	d037      	beq.n	80037be <UART_WaitOnFlagUntilTimeout+0xb2>
 800374e:	68bb      	ldr	r3, [r7, #8]
 8003750:	2b80      	cmp	r3, #128	@ 0x80
 8003752:	d034      	beq.n	80037be <UART_WaitOnFlagUntilTimeout+0xb2>
 8003754:	68bb      	ldr	r3, [r7, #8]
 8003756:	2b40      	cmp	r3, #64	@ 0x40
 8003758:	d031      	beq.n	80037be <UART_WaitOnFlagUntilTimeout+0xb2>
      {
        if (__HAL_UART_GET_FLAG(huart, UART_FLAG_ORE) == SET)
 800375a:	68fb      	ldr	r3, [r7, #12]
 800375c:	681b      	ldr	r3, [r3, #0]
 800375e:	69db      	ldr	r3, [r3, #28]
 8003760:	f003 0308 	and.w	r3, r3, #8
 8003764:	2b08      	cmp	r3, #8
 8003766:	d110      	bne.n	800378a <UART_WaitOnFlagUntilTimeout+0x7e>
        {
          /* Clear Overrun Error flag*/
          __HAL_UART_CLEAR_FLAG(huart, UART_CLEAR_OREF);
 8003768:	68fb      	ldr	r3, [r7, #12]
 800376a:	681b      	ldr	r3, [r3, #0]
 800376c:	2208      	movs	r2, #8
 800376e:	621a      	str	r2, [r3, #32]

          /* Blocking error : transfer is aborted
          Set the UART state ready to be able to start again the process,
          Disable Rx Interrupts if ongoing */
          UART_EndRxTransfer(huart);
 8003770:	68f8      	ldr	r0, [r7, #12]
 8003772:	f000 f838 	bl	80037e6 <UART_EndRxTransfer>

          huart->ErrorCode = HAL_UART_ERROR_ORE;
 8003776:	68fb      	ldr	r3, [r7, #12]
 8003778:	2208      	movs	r2, #8
 800377a:	f8c3 2084 	str.w	r2, [r3, #132]	@ 0x84

          /* Process Unlocked */
          __HAL_UNLOCK(huart);
 800377e:	68fb      	ldr	r3, [r7, #12]
 8003780:	2200      	movs	r2, #0
 8003782:	f883 2078 	strb.w	r2, [r3, #120]	@ 0x78

          return HAL_ERROR;
 8003786:	2301      	movs	r3, #1
 8003788:	e029      	b.n	80037de <UART_WaitOnFlagUntilTimeout+0xd2>
        }
        if (__HAL_UART_GET_FLAG(huart, UART_FLAG_RTOF) == SET)
 800378a:	68fb      	ldr	r3, [r7, #12]
 800378c:	681b      	ldr	r3, [r3, #0]
 800378e:	69db      	ldr	r3, [r3, #28]
 8003790:	f403 6300 	and.w	r3, r3, #2048	@ 0x800
 8003794:	f5b3 6f00 	cmp.w	r3, #2048	@ 0x800
 8003798:	d111      	bne.n	80037be <UART_WaitOnFlagUntilTimeout+0xb2>
        {
          /* Clear Receiver Timeout flag*/
          __HAL_UART_CLEAR_FLAG(huart, UART_CLEAR_RTOF);
 800379a:	68fb      	ldr	r3, [r7, #12]
 800379c:	681b      	ldr	r3, [r3, #0]
 800379e:	f44f 6200 	mov.w	r2, #2048	@ 0x800
 80037a2:	621a      	str	r2, [r3, #32]

          /* Blocking error : transfer is aborted
          Set the UART state ready to be able to start again the process,
          Disable Rx Interrupts if ongoing */
          UART_EndRxTransfer(huart);
 80037a4:	68f8      	ldr	r0, [r7, #12]
 80037a6:	f000 f81e 	bl	80037e6 <UART_EndRxTransfer>

          huart->ErrorCode = HAL_UART_ERROR_RTO;
 80037aa:	68fb      	ldr	r3, [r7, #12]
 80037ac:	2220      	movs	r2, #32
 80037ae:	f8c3 2084 	str.w	r2, [r3, #132]	@ 0x84

          /* Process Unlocked */
          __HAL_UNLOCK(huart);
 80037b2:	68fb      	ldr	r3, [r7, #12]
 80037b4:	2200      	movs	r2, #0
 80037b6:	f883 2078 	strb.w	r2, [r3, #120]	@ 0x78

          return HAL_TIMEOUT;
 80037ba:	2303      	movs	r3, #3
 80037bc:	e00f      	b.n	80037de <UART_WaitOnFlagUntilTimeout+0xd2>
  while ((__HAL_UART_GET_FLAG(huart, Flag) ? SET : RESET) == Status)
 80037be:	68fb      	ldr	r3, [r7, #12]
 80037c0:	681b      	ldr	r3, [r3, #0]
 80037c2:	69da      	ldr	r2, [r3, #28]
 80037c4:	68bb      	ldr	r3, [r7, #8]
 80037c6:	4013      	ands	r3, r2
 80037c8:	68ba      	ldr	r2, [r7, #8]
 80037ca:	429a      	cmp	r2, r3
 80037cc:	bf0c      	ite	eq
 80037ce:	2301      	moveq	r3, #1
 80037d0:	2300      	movne	r3, #0
 80037d2:	b2db      	uxtb	r3, r3
 80037d4:	461a      	mov	r2, r3
 80037d6:	79fb      	ldrb	r3, [r7, #7]
 80037d8:	429a      	cmp	r2, r3
 80037da:	d0a0      	beq.n	800371e <UART_WaitOnFlagUntilTimeout+0x12>
        }
      }
    }
  }
  return HAL_OK;
 80037dc:	2300      	movs	r3, #0
}
 80037de:	4618      	mov	r0, r3
 80037e0:	3710      	adds	r7, #16
 80037e2:	46bd      	mov	sp, r7
 80037e4:	bd80      	pop	{r7, pc}

080037e6 <UART_EndRxTransfer>:
  * @brief  End ongoing Rx transfer on UART peripheral (following error detection or Reception completion).
  * @param  huart UART handle.
  * @retval None
  */
static void UART_EndRxTransfer(UART_HandleTypeDef *huart)
{
 80037e6:	b480      	push	{r7}
 80037e8:	b095      	sub	sp, #84	@ 0x54
 80037ea:	af00      	add	r7, sp, #0
 80037ec:	6078      	str	r0, [r7, #4]
  /* Disable RXNE, PE and ERR (Frame error, noise error, overrun error) interrupts */
#if defined(USART_CR1_FIFOEN)
  ATOMIC_CLEAR_BIT(huart->Instance->CR1, (USART_CR1_RXNEIE_RXFNEIE | USART_CR1_PEIE));
  ATOMIC_CLEAR_BIT(huart->Instance->CR3, (USART_CR3_EIE | USART_CR3_RXFTIE));
#else
  ATOMIC_CLEAR_BIT(huart->Instance->CR1, (USART_CR1_RXNEIE | USART_CR1_PEIE));
 80037ee:	687b      	ldr	r3, [r7, #4]
 80037f0:	681b      	ldr	r3, [r3, #0]
 80037f2:	637b      	str	r3, [r7, #52]	@ 0x34
   __ASM volatile ("ldrex %0, %1" : "=r" (result) : "Q" (*addr) );
 80037f4:	6b7b      	ldr	r3, [r7, #52]	@ 0x34
 80037f6:	e853 3f00 	ldrex	r3, [r3]
 80037fa:	633b      	str	r3, [r7, #48]	@ 0x30
   return(result);
 80037fc:	6b3b      	ldr	r3, [r7, #48]	@ 0x30
 80037fe:	f423 7390 	bic.w	r3, r3, #288	@ 0x120
 8003802:	64fb      	str	r3, [r7, #76]	@ 0x4c
 8003804:	687b      	ldr	r3, [r7, #4]
 8003806:	681b      	ldr	r3, [r3, #0]
 8003808:	461a      	mov	r2, r3
 800380a:	6cfb      	ldr	r3, [r7, #76]	@ 0x4c
 800380c:	643b      	str	r3, [r7, #64]	@ 0x40
 800380e:	63fa      	str	r2, [r7, #60]	@ 0x3c
   __ASM volatile ("strex %0, %2, %1" : "=&r" (result), "=Q" (*addr) : "r" (value) );
 8003810:	6bf9      	ldr	r1, [r7, #60]	@ 0x3c
 8003812:	6c3a      	ldr	r2, [r7, #64]	@ 0x40
 8003814:	e841 2300 	strex	r3, r2, [r1]
 8003818:	63bb      	str	r3, [r7, #56]	@ 0x38
   return(result);
 800381a:	6bbb      	ldr	r3, [r7, #56]	@ 0x38
 800381c:	2b00      	cmp	r3, #0
 800381e:	d1e6      	bne.n	80037ee <UART_EndRxTransfer+0x8>
  ATOMIC_CLEAR_BIT(huart->Instance->CR3, USART_CR3_EIE);
 8003820:	687b      	ldr	r3, [r7, #4]
 8003822:	681b      	ldr	r3, [r3, #0]
 8003824:	3308      	adds	r3, #8
 8003826:	623b      	str	r3, [r7, #32]
   __ASM volatile ("ldrex %0, %1" : "=r" (result) : "Q" (*addr) );
 8003828:	6a3b      	ldr	r3, [r7, #32]
 800382a:	e853 3f00 	ldrex	r3, [r3]
 800382e:	61fb      	str	r3, [r7, #28]
   return(result);
 8003830:	69fb      	ldr	r3, [r7, #28]
 8003832:	f023 0301 	bic.w	r3, r3, #1
 8003836:	64bb      	str	r3, [r7, #72]	@ 0x48
 8003838:	687b      	ldr	r3, [r7, #4]
 800383a:	681b      	ldr	r3, [r3, #0]
 800383c:	3308      	adds	r3, #8
 800383e:	6cba      	ldr	r2, [r7, #72]	@ 0x48
 8003840:	62fa      	str	r2, [r7, #44]	@ 0x2c
 8003842:	62bb      	str	r3, [r7, #40]	@ 0x28
   __ASM volatile ("strex %0, %2, %1" : "=&r" (result), "=Q" (*addr) : "r" (value) );
 8003844:	6ab9      	ldr	r1, [r7, #40]	@ 0x28
 8003846:	6afa      	ldr	r2, [r7, #44]	@ 0x2c
 8003848:	e841 2300 	strex	r3, r2, [r1]
 800384c:	627b      	str	r3, [r7, #36]	@ 0x24
   return(result);
 800384e:	6a7b      	ldr	r3, [r7, #36]	@ 0x24
 8003850:	2b00      	cmp	r3, #0
 8003852:	d1e5      	bne.n	8003820 <UART_EndRxTransfer+0x3a>
#endif /* USART_CR1_FIFOEN */

  /* In case of reception waiting for IDLE event, disable also the IDLE IE interrupt source */
  if (huart->ReceptionType == HAL_UART_RECEPTION_TOIDLE)
 8003854:	687b      	ldr	r3, [r7, #4]
 8003856:	6e1b      	ldr	r3, [r3, #96]	@ 0x60
 8003858:	2b01      	cmp	r3, #1
 800385a:	d118      	bne.n	800388e <UART_EndRxTransfer+0xa8>
  {
    ATOMIC_CLEAR_BIT(huart->Instance->CR1, USART_CR1_IDLEIE);
 800385c:	687b      	ldr	r3, [r7, #4]
 800385e:	681b      	ldr	r3, [r3, #0]
 8003860:	60fb      	str	r3, [r7, #12]
   __ASM volatile ("ldrex %0, %1" : "=r" (result) : "Q" (*addr) );
 8003862:	68fb      	ldr	r3, [r7, #12]
 8003864:	e853 3f00 	ldrex	r3, [r3]
 8003868:	60bb      	str	r3, [r7, #8]
   return(result);
 800386a:	68bb      	ldr	r3, [r7, #8]
 800386c:	f023 0310 	bic.w	r3, r3, #16
 8003870:	647b      	str	r3, [r7, #68]	@ 0x44
 8003872:	687b      	ldr	r3, [r7, #4]
 8003874:	681b      	ldr	r3, [r3, #0]
 8003876:	461a      	mov	r2, r3
 8003878:	6c7b      	ldr	r3, [r7, #68]	@ 0x44
 800387a:	61bb      	str	r3, [r7, #24]
 800387c:	617a      	str	r2, [r7, #20]
   __ASM volatile ("strex %0, %2, %1" : "=&r" (result), "=Q" (*addr) : "r" (value) );
 800387e:	6979      	ldr	r1, [r7, #20]
 8003880:	69ba      	ldr	r2, [r7, #24]
 8003882:	e841 2300 	strex	r3, r2, [r1]
 8003886:	613b      	str	r3, [r7, #16]
   return(result);
 8003888:	693b      	ldr	r3, [r7, #16]
 800388a:	2b00      	cmp	r3, #0
 800388c:	d1e6      	bne.n	800385c <UART_EndRxTransfer+0x76>
  }

  /* At end of Rx process, restore huart->RxState to Ready */
  huart->RxState = HAL_UART_STATE_READY;
 800388e:	687b      	ldr	r3, [r7, #4]
 8003890:	2220      	movs	r2, #32
 8003892:	f8c3 2080 	str.w	r2, [r3, #128]	@ 0x80
  huart->ReceptionType = HAL_UART_RECEPTION_STANDARD;
 8003896:	687b      	ldr	r3, [r7, #4]
 8003898:	2200      	movs	r2, #0
 800389a:	661a      	str	r2, [r3, #96]	@ 0x60

  /* Reset RxIsr function pointer */
  huart->RxISR = NULL;
 800389c:	687b      	ldr	r3, [r7, #4]
 800389e:	2200      	movs	r2, #0
 80038a0:	669a      	str	r2, [r3, #104]	@ 0x68
}
 80038a2:	bf00      	nop
 80038a4:	3754      	adds	r7, #84	@ 0x54
 80038a6:	46bd      	mov	sp, r7
 80038a8:	f85d 7b04 	ldr.w	r7, [sp], #4
 80038ac:	4770      	bx	lr

080038ae <memset>:
 80038ae:	4402      	add	r2, r0
 80038b0:	4603      	mov	r3, r0
 80038b2:	4293      	cmp	r3, r2
 80038b4:	d100      	bne.n	80038b8 <memset+0xa>
 80038b6:	4770      	bx	lr
 80038b8:	f803 1b01 	strb.w	r1, [r3], #1
 80038bc:	e7f9      	b.n	80038b2 <memset+0x4>
	...

080038c0 <__libc_init_array>:
 80038c0:	b570      	push	{r4, r5, r6, lr}
 80038c2:	4d0d      	ldr	r5, [pc, #52]	@ (80038f8 <__libc_init_array+0x38>)
 80038c4:	4c0d      	ldr	r4, [pc, #52]	@ (80038fc <__libc_init_array+0x3c>)
 80038c6:	1b64      	subs	r4, r4, r5
 80038c8:	10a4      	asrs	r4, r4, #2
 80038ca:	2600      	movs	r6, #0
 80038cc:	42a6      	cmp	r6, r4
 80038ce:	d109      	bne.n	80038e4 <__libc_init_array+0x24>
 80038d0:	4d0b      	ldr	r5, [pc, #44]	@ (8003900 <__libc_init_array+0x40>)
 80038d2:	4c0c      	ldr	r4, [pc, #48]	@ (8003904 <__libc_init_array+0x44>)
 80038d4:	f000 f818 	bl	8003908 <_init>
 80038d8:	1b64      	subs	r4, r4, r5
 80038da:	10a4      	asrs	r4, r4, #2
 80038dc:	2600      	movs	r6, #0
 80038de:	42a6      	cmp	r6, r4
 80038e0:	d105      	bne.n	80038ee <__libc_init_array+0x2e>
 80038e2:	bd70      	pop	{r4, r5, r6, pc}
 80038e4:	f855 3b04 	ldr.w	r3, [r5], #4
 80038e8:	4798      	blx	r3
 80038ea:	3601      	adds	r6, #1
 80038ec:	e7ee      	b.n	80038cc <__libc_init_array+0xc>
 80038ee:	f855 3b04 	ldr.w	r3, [r5], #4
 80038f2:	4798      	blx	r3
 80038f4:	3601      	adds	r6, #1
 80038f6:	e7f2      	b.n	80038de <__libc_init_array+0x1e>
 80038f8:	08003974 	.word	0x08003974
 80038fc:	08003974 	.word	0x08003974
 8003900:	08003974 	.word	0x08003974
 8003904:	08003978 	.word	0x08003978

08003908 <_init>:
 8003908:	b5f8      	push	{r3, r4, r5, r6, r7, lr}
 800390a:	bf00      	nop
 800390c:	bcf8      	pop	{r3, r4, r5, r6, r7}
 800390e:	bc08      	pop	{r3}
 8003910:	469e      	mov	lr, r3
 8003912:	4770      	bx	lr

08003914 <_fini>:
 8003914:	b5f8      	push	{r3, r4, r5, r6, r7, lr}
 8003916:	bf00      	nop
 8003918:	bcf8      	pop	{r3, r4, r5, r6, r7}
 800391a:	bc08      	pop	{r3}
 800391c:	469e      	mov	lr, r3
 800391e:	4770      	bx	lr
